 godComplex

 Timestamp is 51ba258d (Fri Jun 14 08:03:25 2013)

 Preferred load address is 00400000

 Start         Length     Name                   Class
 0001:00000000 0009659eH .text                   CODE
 0001:000965a0 00005203H .text$x                 CODE
 0001:0009b7b0 00000c2cH .text$yc                CODE
 0001:0009c3e0 000003eaH .text$yd                CODE
 0002:00000000 00000364H .idata$5                DATA
 0002:00000364 00000004H .CRT$XCA                DATA
 0002:00000368 0000001cH .CRT$XCC                DATA
 0002:00000384 00000008H .CRT$XCL                DATA
 0002:0000038c 00000268H .CRT$XCU                DATA
 0002:000005f4 00000004H .CRT$XCZ                DATA
 0002:000005f8 00000004H .CRT$XIA                DATA
 0002:000005fc 00000018H .CRT$XIC                DATA
 0002:00000614 00000004H .CRT$XID                DATA
 0002:00000618 00000004H .CRT$XIU                DATA
 0002:0000061c 00000004H .CRT$XIY                DATA
 0002:00000620 00000004H .CRT$XIZ                DATA
 0002:00000624 00000004H .CRT$XLA                DATA
 0002:00000628 00000004H .CRT$XLC                DATA
 0002:0000062c 00000004H .CRT$XLZ                DATA
 0002:00000630 00000004H .CRT$XPA                DATA
 0002:00000634 00000004H .CRT$XPX                DATA
 0002:00000638 00000004H .CRT$XPXA               DATA
 0002:0000063c 00000004H .CRT$XPZ                DATA
 0002:00000640 00000004H .CRT$XTA                DATA
 0002:00000644 00000004H .CRT$XTU                DATA
 0002:00000648 00000004H .CRT$XTZ                DATA
 0002:00000650 0001b780H .rdata                  DATA
 0002:0001bdd0 00000018H .rdata$T                DATA
 0002:0001bde8 00003cc8H .rdata$r                DATA
 0002:0001fab0 00000574H .rdata$sxdata           DATA
 0002:00020024 00000004H .rtc$IAA                DATA
 0002:00020028 00000004H .rtc$IZZ                DATA
 0002:0002002c 00000004H .rtc$TAA                DATA
 0002:00020030 00000004H .rtc$TZZ                DATA
 0002:00020038 00006d24H .xdata$x                DATA
 0002:00026d5c 000000a0H .idata$2                DATA
 0002:00026dfc 00000014H .idata$3                DATA
 0002:00026e10 00000360H .idata$4                DATA
 0002:00027170 00000e90H .idata$6                DATA
 0002:00028000 00000000H .edata                  DATA
 0003:00000000 0000f700H .data                   DATA
 0003:0000f700 00003740H .bss                    DATA
 0004:00000000 00000001H .tls                    DATA
 0004:00000001 00000001H .tls$ZZZ                DATA
 0005:00000000 00000538H .rsrc$01                DATA
 0005:00000540 00c0fe70H .rsrc$02                DATA

  Address         Publics by Value              Rva+Base       Lib:Object

 0000:00000000       __except_list              00000000     <absolute>
 0000:0000015d       ___safe_se_handler_count   0000015d     <absolute>
 0000:00000000       ___ImageBase               00400000     <linker-defined>
 0001:00000000       _sqrtf                     00401000 f i CloudController.obj
 0001:00000020       ??1bad_alloc@std@@UAE@XZ   00401020 f i CloudController.obj
 0001:00000030       ??_Gbad_alloc@std@@UAEPAXI@Z 00401030 f i CloudController.obj
 0001:00000030       ??_Ebad_alloc@std@@UAEPAXI@Z 00401030 f i  CIL library: CIL module
 0001:00000060       ??0_Locinfo@std@@QAE@PBD@Z 00401060 f i CloudController.obj
 0001:00000110       ??1_Locinfo@std@@QAE@XZ    00401110 f i CloudController.obj
 0001:000001c0       ??0runtime_error@std@@QAE@ABV01@@Z 004011c0 f i CloudController.obj
 0001:000001e0       ??Bid@locale@std@@QAEIXZ   004011e0 f i CloudController.obj
 0001:00000220       ?_Incref@facet@locale@std@@QAEXXZ 00401220 f i CloudController.obj
 0001:00000250       ?_Decref@facet@locale@std@@QAEPAV123@XZ 00401250 f i CloudController.obj
 0001:00000290       ??1facet@locale@std@@UAE@XZ 00401290 f i CloudController.obj
 0001:000002a0       ??1locale@std@@QAE@XZ      004012a0 f i CloudController.obj
 0001:000002f0       ?_Getfacet@locale@std@@QBEPBVfacet@12@I@Z 004012f0 f i CloudController.obj
 0001:00000330       ??_G?$num_put@DV?$ostreambuf_iterator@DU?$char_traits@D@std@@@std@@@std@@MAEPAXI@Z 00401330 f i CloudController.obj
 0001:00000330       ??_Gfacet@locale@std@@UAEPAXI@Z 00401330 f i CloudController.obj
 0001:00000330       ??_G?$num_get@DV?$istreambuf_iterator@DU?$char_traits@D@std@@@std@@@std@@MAEPAXI@Z 00401330 f i cinder:ObjLoader.obj
 0001:00000330       ??_Efacet@locale@std@@UAEPAXI@Z 00401330 f i  CIL library: CIL module
 0001:00000330       ??_E?$num_get@DV?$istreambuf_iterator@DU?$char_traits@D@std@@@std@@@std@@MAEPAXI@Z 00401330 f i cinder:ObjLoader.obj
 0001:00000330       ??_E?$num_put@DV?$ostreambuf_iterator@DU?$char_traits@D@std@@@std@@@std@@MAEPAXI@Z 00401330 f i  CIL library: CIL module
 0001:00000360       ?clear@ios_base@std@@QAEXH_N@Z 00401360 f i CloudController.obj
 0001:00000460       ?getloc@ios_base@std@@QBE?AVlocale@2@XZ 00401460 f i CloudController.obj
 0001:000004a0       ??0failure@ios_base@std@@QAE@ABV012@@Z 004014a0 f i CloudController.obj
 0001:000004d0       ??0system_error@std@@QAE@ABV01@@Z 004014d0 f i CloudController.obj
 0001:00000500       ?update@CloudController@@QAEXXZ 00401500 f   CloudController.obj
 0001:00000bb0       ?draw@CloudController@@QAEXXZ 00401bb0 f   CloudController.obj
 0001:00000c70       ?applyForce@CloudController@@QAEXV?$Vec2@M@cinder@@@Z 00401c70 f   CloudController.obj
 0001:00000e70       ?doRespawn@CloudController@@QAEXXZ 00401e70 f   CloudController.obj
 0001:00000fe0       ??0?$basic_string@DU?$char_traits@D@std@@V?$allocator@D@2@@std@@QAE@PBD@Z 00401fe0 f i CloudController.obj
 0001:00001020       ??1?$_Yarn@D@std@@QAE@XZ   00402020 f i CloudController.obj
 0001:00001040       ??6?$basic_ostream@DU?$char_traits@D@std@@@std@@QAEAAV01@M@Z 00402040 f i CloudController.obj
 0001:00001220       ?put@?$basic_ostream@DU?$char_traits@D@std@@@std@@QAEAAV12@D@Z 00402220 f i CloudController.obj
 0001:00001390       ?flush@?$basic_ostream@DU?$char_traits@D@std@@@std@@QAEAAV12@XZ 00402390 f i CloudController.obj
 0001:000013f0       ?limit@?$Vec2@M@cinder@@QAEXM@Z 004023f0 f i CloudController.obj
 0001:00001470       ?assign@?$basic_string@DU?$char_traits@D@std@@V?$allocator@D@2@@std@@QAEAAV12@$$QAV12@@Z 00402470 f i CloudController.obj
 0001:000014f0       ?assign@?$basic_string@DU?$char_traits@D@std@@V?$allocator@D@2@@std@@QAEAAV12@ABV12@II@Z 004024f0 f i CloudController.obj
 0001:000015e0       ?_Tidy@?$basic_string@DU?$char_traits@D@std@@V?$allocator@D@2@@std@@QAEX_NI@Z 004025e0 f i CloudController.obj
 0001:00001630       ?c_str@?$basic_string@DU?$char_traits@D@std@@V?$allocator@D@2@@std@@QBEPBDXZ 00402630 f i CloudController.obj
 0001:00001630       ?_Myptr@?$basic_string@DU?$char_traits@D@std@@V?$allocator@D@2@@std@@QBEPBDXZ 00402630 f i CloudController.obj
 0001:00001640       ?allocate@?$allocator@D@std@@QAEPADI@Z 00402640 f i CloudController.obj
 0001:00001690       ?_Pnavail@?$basic_streambuf@DU?$char_traits@D@std@@@std@@IBE_JXZ 00402690 f i CloudController.obj
 0001:000016b0       ??1sentry@?$basic_ostream@DU?$char_traits@D@std@@@std@@QAE@XZ 004026b0 f i CloudController.obj
 0001:00001720       ?put@?$num_put@DV?$ostreambuf_iterator@DU?$char_traits@D@std@@@std@@@std@@QBE?AV?$ostreambuf_iterator@DU?$char_traits@D@std@@@2@V32@AAVios_base@2@DN@Z 00402720 f i CloudController.obj
 0001:00001760       ?do_put@?$num_put@DV?$ostreambuf_iterator@DU?$char_traits@D@std@@@std@@@std@@MBE?AV?$ostreambuf_iterator@DU?$char_traits@D@std@@@2@V32@AAVios_base@2@D_N@Z 00402760 f i CloudController.obj
 0001:000019b0       ?do_put@?$num_put@DV?$ostreambuf_iterator@DU?$char_traits@D@std@@@std@@@std@@MBE?AV?$ostreambuf_iterator@DU?$char_traits@D@std@@@2@V32@AAVios_base@2@DJ@Z 004029b0 f i CloudController.obj
 0001:00001a30       ?do_put@?$num_put@DV?$ostreambuf_iterator@DU?$char_traits@D@std@@@std@@@std@@MBE?AV?$ostreambuf_iterator@DU?$char_traits@D@std@@@2@V32@AAVios_base@2@DK@Z 00402a30 f i CloudController.obj
 0001:00001ab0       ?do_put@?$num_put@DV?$ostreambuf_iterator@DU?$char_traits@D@std@@@std@@@std@@MBE?AV?$ostreambuf_iterator@DU?$char_traits@D@std@@@2@V32@AAVios_base@2@D_J@Z 00402ab0 f i CloudController.obj
 0001:00001b40       ?do_put@?$num_put@DV?$ostreambuf_iterator@DU?$char_traits@D@std@@@std@@@std@@MBE?AV?$ostreambuf_iterator@DU?$char_traits@D@std@@@2@V32@AAVios_base@2@D_K@Z 00402b40 f i CloudController.obj
 0001:00001bd0       ?do_put@?$num_put@DV?$ostreambuf_iterator@DU?$char_traits@D@std@@@std@@@std@@MBE?AV?$ostreambuf_iterator@DU?$char_traits@D@std@@@2@V32@AAVios_base@2@DN@Z 00402bd0 f i CloudController.obj
 0001:00001de0       ?do_put@?$num_put@DV?$ostreambuf_iterator@DU?$char_traits@D@std@@@std@@@std@@MBE?AV?$ostreambuf_iterator@DU?$char_traits@D@std@@@2@V32@AAVios_base@2@DO@Z 00402de0 f i CloudController.obj
 0001:00001fe0       ?do_put@?$num_put@DV?$ostreambuf_iterator@DU?$char_traits@D@std@@@std@@@std@@MBE?AV?$ostreambuf_iterator@DU?$char_traits@D@std@@@2@V32@AAVios_base@2@DPBX@Z 00402fe0 f i CloudController.obj
 0001:00002050       ?append@?$basic_string@DU?$char_traits@D@std@@V?$allocator@D@2@@std@@QAEAAV12@ABV12@II@Z 00403050 f i CloudController.obj
 0001:00002140       ?append@?$basic_string@DU?$char_traits@D@std@@V?$allocator@D@2@@std@@QAEAAV12@PBDI@Z 00403140 f i CloudController.obj
 0001:00002260       ?assign@?$basic_string@DU?$char_traits@D@std@@V?$allocator@D@2@@std@@QAEAAV12@PBDI@Z 00403260 f i CloudController.obj
 0001:00002360       ?insert@?$basic_string@DU?$char_traits@D@std@@V?$allocator@D@2@@std@@QAEAAV12@IID@Z 00403360 f i CloudController.obj
 0001:00002460       ?erase@?$basic_string@DU?$char_traits@D@std@@V?$allocator@D@2@@std@@QAEAAV12@II@Z 00403460 f i CloudController.obj
 0001:000024f0       ?_Grow@?$basic_string@DU?$char_traits@D@std@@V?$allocator@D@2@@std@@QAE_NI_N@Z 004034f0 f i CloudController.obj
 0001:000025a0       ?_Osfx@?$basic_ostream@DU?$char_traits@D@std@@@std@@QAEXXZ 004035a0 f i CloudController.obj
 0001:00002640       ?_Fput@?$num_put@DV?$ostreambuf_iterator@DU?$char_traits@D@std@@@std@@@std@@ABA?AV?$ostreambuf_iterator@DU?$char_traits@D@std@@@2@V32@AAVios_base@2@DPBDIIII@Z 00403640 f i CloudController.obj
 0001:00002c30       ?_Ifmt@?$num_put@DV?$ostreambuf_iterator@DU?$char_traits@D@std@@@std@@@std@@ABAPADPADPBDH@Z 00403c30 f i CloudController.obj
 0001:00002cc0       ?_Iput@?$num_put@DV?$ostreambuf_iterator@DU?$char_traits@D@std@@@std@@@std@@ABA?AV?$ostreambuf_iterator@DU?$char_traits@D@std@@@2@V32@AAVios_base@2@DPADI@Z 00403cc0 f i CloudController.obj
 0001:00002fc0       ?_Putc@?$num_put@DV?$ostreambuf_iterator@DU?$char_traits@D@std@@@std@@@std@@ABA?AV?$ostreambuf_iterator@DU?$char_traits@D@std@@@2@V32@PBDI@Z 00403fc0 f i CloudController.obj
 0001:00002fc0       ?_Put@?$num_put@DV?$ostreambuf_iterator@DU?$char_traits@D@std@@@std@@@std@@ABA?AV?$ostreambuf_iterator@DU?$char_traits@D@std@@@2@V32@PBDI@Z 00403fc0 f i CloudController.obj
 0001:00003030       ?_Rep@?$num_put@DV?$ostreambuf_iterator@DU?$char_traits@D@std@@@std@@@std@@ABA?AV?$ostreambuf_iterator@DU?$char_traits@D@std@@@2@V32@DI@Z 00404030 f i CloudController.obj
 0001:000030a0       ?falsename@?$numpunct@D@std@@QBE?AV?$basic_string@DU?$char_traits@D@std@@V?$allocator@D@2@@2@XZ 004040a0 f i CloudController.obj
 0001:000030c0       ?truename@?$numpunct@D@std@@QBE?AV?$basic_string@DU?$char_traits@D@std@@V?$allocator@D@2@@2@XZ 004040c0 f i CloudController.obj
 0001:000030e0       ?do_decimal_point@?$numpunct@D@std@@MBEDXZ 004040e0 f i CloudController.obj
 0001:000030f0       ?do_thousands_sep@?$numpunct@D@std@@MBEDXZ 004040f0 f i CloudController.obj
 0001:00003100       ?do_grouping@?$numpunct@D@std@@MBE?AV?$basic_string@DU?$char_traits@D@std@@V?$allocator@D@2@@2@XZ 00404100 f i CloudController.obj
 0001:00003150       ?do_falsename@?$numpunct@D@std@@MBE?AV?$basic_string@DU?$char_traits@D@std@@V?$allocator@D@2@@2@XZ 00404150 f i CloudController.obj
 0001:000031a0       ?do_truename@?$numpunct@D@std@@MBE?AV?$basic_string@DU?$char_traits@D@std@@V?$allocator@D@2@@2@XZ 004041a0 f i CloudController.obj
 0001:000031f0       ??_E?$numpunct@D@std@@MAEPAXI@Z 004041f0 f i  CIL library: CIL module
 0001:000031f0       ??_G?$numpunct@D@std@@MAEPAXI@Z 004041f0 f i CloudController.obj
 0001:00003240       ?append@?$basic_string@DU?$char_traits@D@std@@V?$allocator@D@2@@std@@QAEAAV12@ID@Z 00404240 f i CloudController.obj
 0001:000032f0       ?_Chassign@?$basic_string@DU?$char_traits@D@std@@V?$allocator@D@2@@std@@QAEXIID@Z 004042f0 f i CloudController.obj
 0001:00003330       ?_Copy@?$basic_string@DU?$char_traits@D@std@@V?$allocator@D@2@@std@@QAEXII@Z 00404330 f i CloudController.obj
 0001:000034a0       ?_Putgrouped@?$num_put@DV?$ostreambuf_iterator@DU?$char_traits@D@std@@@std@@@std@@ABA?AV?$ostreambuf_iterator@DU?$char_traits@D@std@@@2@V32@PBDID@Z 004044a0 f i CloudController.obj
 0001:00003570       ??4?$ostreambuf_iterator@DU?$char_traits@D@std@@@std@@QAEAAV01@D@Z 00404570 f i CloudController.obj
 0001:000035c0       ?grouping@?$numpunct@D@std@@QBE?AV?$basic_string@DU?$char_traits@D@std@@V?$allocator@D@2@@2@XZ 004045c0 f i CloudController.obj
 0001:000035e0       ?_Tidy@?$numpunct@D@std@@AAEXXZ 004045e0 f i CloudController.obj
 0001:00003610       ??$?6U?$char_traits@D@std@@@std@@YAAAV?$basic_ostream@DU?$char_traits@D@std@@@0@AAV10@PBD@Z 00404610 f i CloudController.obj
 0001:000038c0       ??$use_facet@V?$num_put@DV?$ostreambuf_iterator@DU?$char_traits@D@std@@@std@@@std@@@std@@YAABV?$num_put@DV?$ostreambuf_iterator@DU?$char_traits@D@std@@@std@@@0@ABVlocale@0@@Z 004048c0 f i CloudController.obj
 0001:00003a00       ??$use_facet@V?$numpunct@D@std@@@std@@YAABV?$numpunct@D@0@ABVlocale@0@@Z 00404a00 f i CloudController.obj
 0001:00003b40       ??0bad_alloc@std@@QAE@ABV01@@Z 00404b40 f i CloudController.obj
 0001:00003b60       ?sputn@?$basic_streambuf@DU?$char_traits@D@std@@@std@@QAE_JPBD_J@Z 00404b60 f i CloudController.obj
 0001:00003b80       ?_Getcat@?$num_put@DV?$ostreambuf_iterator@DU?$char_traits@D@std@@@std@@@std@@SAIPAPBVfacet@locale@2@PBV42@@Z 00404b80 f i CloudController.obj
 0001:00003c40       ?_Getcat@?$numpunct@D@std@@SAIPAPBVfacet@locale@2@PBV42@@Z 00404c40 f i CloudController.obj
 0001:00003d10       ?_Init@?$numpunct@D@std@@IAEXABV_Locinfo@2@_N@Z 00404d10 f i CloudController.obj
 0001:00003e50       ??$_Maklocstr@D@std@@YAPADPBDPADABU_Cvtvec@@@Z 00404e50 f i CloudController.obj
 0001:00003e90       ??$generate_uniform_real@V?$mersenne_twister_engine@I$0CA@$0CHA@$0BIN@$0BP@$0JJAILANP@$0L@$0PPPPPPPP@$06$0JNCMFGIA@$0P@$0OPMGAAAA@$0BC@$0GMAHIJGF@@random@boost@@M@detail@random@boost@@YAMAAV?$mersenne_twister_engine@I$0CA@$0CHA@$0BIN@$0BP@$0JJAILANP@$0L@$0PPPPPPPP@$06$0JNCMFGIA@$0P@$0OPMGAAAA@$0BC@$0GMAHIJGF@@12@MMU?$bool_@$00@mpl@2@@Z 00404e90 f i CloudController.obj
 0001:00003f20       ??R?$mersenne_twister_engine@I$0CA@$0CHA@$0BIN@$0BP@$0JJAILANP@$0L@$0PPPPPPPP@$06$0JNCMFGIA@$0P@$0OPMGAAAA@$0BC@$0GMAHIJGF@@random@boost@@QAEIXZ 00404f20 f i CloudController.obj
 0001:00003f70       ?twist@?$mersenne_twister_engine@I$0CA@$0CHA@$0BIN@$0BP@$0JJAILANP@$0L@$0PPPPPPPP@$06$0JNCMFGIA@$0P@$0OPMGAAAA@$0BC@$0GMAHIJGF@@random@boost@@AAEXXZ 00404f70 f i CloudController.obj
 0001:000042a0       _cosf                      004052a0 f i CloudParticle.obj
 0001:000042c0       _sinf                      004052c0 f i CloudParticle.obj
 0001:000042e0       ?loadResource@app@cinder@@YA?AV?$shared_ptr@VDataSource@cinder@@@tr1@std@@HABV?$basic_string@DU?$char_traits@D@std@@V?$allocator@D@2@@5@@Z 004052e0 f i CloudParticle.obj
 0001:00004300       ??0?$ChannelT@M@cinder@@QAE@XZ 00405300 f i godComplexApp.obj
 0001:00004300       ??0Vbo@gl@cinder@@QAE@XZ   00405300 f i cinder:VBO.obj
 0001:00004300       ??0Fbo@gl@cinder@@QAE@XZ   00405300 f i CloudParticle.obj
 0001:00004300       ??0?$ChannelT@E@cinder@@QAE@XZ 00405300 f i cinder:Surface.obj
 0001:00004310       ??1Layout@VboMesh@gl@cinder@@QAE@XZ 00405310 f i CloudParticle.obj
 0001:00004350       ??1?$shared_ptr@VTimelineItem@cinder@@@tr1@std@@QAE@XZ 00405350 f i cinder:Timeline.obj
 0001:00004350       ??1?$shared_ptr@V?$ImageTargetChannel@M@cinder@@@tr1@std@@QAE@XZ 00405350 f i cinder:Channel.obj
 0001:00004350       ??1?$shared_ptr@E@tr1@std@@QAE@XZ 00405350 f i cinder:Texture.obj
 0001:00004350       ??1?$shared_ptr@VImageSource@cinder@@@tr1@std@@QAE@XZ 00405350 f i CloudParticle.obj
 0001:00004350       ??1?$shared_ptr@VIStream@cinder@@@tr1@std@@QAE@XZ 00405350 f i cinder:Texture.obj
 0001:00004350       ??1?$shared_ptr@VOStream@cinder@@@tr1@std@@QAE@XZ 00405350 f i cinder:ObjLoader.obj
 0001:00004350       ??1?$shared_ptr@UObj@Texture@gl@cinder@@@tr1@std@@QAE@XZ 00405350 f i CloudParticle.obj
 0001:00004350       ??1?$ChannelT@M@cinder@@QAE@XZ 00405350 f i godComplexApp.obj
 0001:00004350       ??1?$shared_ptr@UObj@VboMesh@gl@cinder@@@tr1@std@@QAE@XZ 00405350 f i CloudParticle.obj
 0001:00004350       ??1?$shared_ptr@UIWICFormatConverter@@@tr1@std@@QAE@XZ 00405350 f i cinder:ImageSourceFileWic.obj
 0001:00004350       ??1?$shared_ptr@V?$ImageTargetGLTexture@E@gl@cinder@@@tr1@std@@QAE@XZ 00405350 f i cinder:Texture.obj
 0001:00004350       ??1?$shared_ptr@UIWICBitmapDecoder@@@tr1@std@@QAE@XZ 00405350 f i cinder:ImageSourceFileWic.obj
 0001:00004350       ??1?$shared_ptr@VIStreamMem@cinder@@@tr1@std@@QAE@XZ 00405350 f i cinder:DataSource.obj
 0001:00004350       ??1?$shared_ptr@VDisplay@cinder@@@tr1@std@@QAE@XZ 00405350 f i cinder:AppBasic.obj
 0001:00004350       ??1?$shared_ptr@UInst@ImageIoRegistrar@cinder@@@tr1@std@@QAE@XZ 00405350 f i cinder:ImageIo.obj
 0001:00004350       ??1Fbo@gl@cinder@@QAE@XZ   00405350 f i CloudParticle.obj
 0001:00004350       ??1?$shared_ptr@VRenderer@app@cinder@@@tr1@std@@QAE@XZ 00405350 f i cinder:App.obj
 0001:00004350       ??1?$shared_ptr@VDataTarget@cinder@@@tr1@std@@QAE@XZ 00405350 f i cinder:ImageIo.obj
 0001:00004350       ??1?$shared_ptr@UObj@Vbo@gl@cinder@@@tr1@std@@QAE@XZ 00405350 f i cinder:VBO.obj
 0001:00004350       ??1?$shared_ptr@UIWICStream@@@tr1@std@@QAE@XZ 00405350 f i cinder:ImageSourceFileWic.obj
 0001:00004350       ??1?$shared_ptr@UIWICImagingFactory@@@tr1@std@@QAE@XZ 00405350 f i cinder:ImageSourceFileWic.obj
 0001:00004350       ??1?$shared_ptr@VDataSource@cinder@@@tr1@std@@QAE@XZ 00405350 f i CloudParticle.obj
 0001:00004350       ??1?$shared_ptr@UObj@Fbo@gl@cinder@@@tr1@std@@QAE@XZ 00405350 f i CloudParticle.obj
 0001:00004350       ??1?$ChannelT@E@cinder@@QAE@XZ 00405350 f i cinder:Surface.obj
 0001:00004350       ??1?$shared_ptr@V?$ImageTargetGLTexture@M@gl@cinder@@@tr1@std@@QAE@XZ 00405350 f i cinder:Texture.obj
 0001:00004350       ??1?$shared_ptr@UObj@?$SurfaceT@M@cinder@@@tr1@std@@QAE@XZ 00405350 f i CloudParticle.obj
 0001:00004350       ??1?$shared_ptr@UIWICBitmapFrameDecode@@@tr1@std@@QAE@XZ 00405350 f i cinder:ImageSourceFileWic.obj
 0001:00004350       ??1?$shared_ptr@UIWICBitmapEncoder@@@tr1@std@@QAE@XZ 00405350 f i cinder:ImageTargetFileWic.obj
 0001:00004350       ??1?$shared_ptr@V?$map@V?$basic_string@DU?$char_traits@D@std@@V?$allocator@D@2@@std@@PBU_GUID@@U?$less@V?$basic_string@DU?$char_traits@D@std@@V?$allocator@D@2@@std@@@2@V?$allocator@U?$pair@$$CBV?$basic_string@DU?$char_traits@D@std@@V?$allocator@D@2@@std@@PBU_GUID@@@std@@@2@@std@@@tr1@std@@QAE@XZ 00405350 f i cinder:ImageTargetFileWic.obj
 0001:00004350       ??1?$shared_ptr@UObj@?$ChannelT@M@cinder@@@tr1@std@@QAE@XZ 00405350 f i godComplexApp.obj
 0001:00004350       ??1?$shared_ptr@UObj@?$SurfaceT@E@cinder@@@tr1@std@@QAE@XZ 00405350 f i cinder:App.obj
 0001:00004350       ??1?$shared_ptr@VDataSourceBuffer@cinder@@@tr1@std@@QAE@XZ 00405350 f i cinder:App.obj
 0001:00004350       ??1?$shared_ptr@UIWICBitmapFrameEncode@@@tr1@std@@QAE@XZ 00405350 f i cinder:ImageTargetFileWic.obj
 0001:00004350       ??1Vbo@gl@cinder@@QAE@XZ   00405350 f i cinder:VBO.obj
 0001:00004350       ??1?$shared_ptr@VImageTarget@cinder@@@tr1@std@@QAE@XZ 00405350 f i cinder:Surface.obj
 0001:00004350       ??1?$shared_ptr@VComOStream@msw@cinder@@@tr1@std@@QAE@XZ 00405350 f i cinder:ImageTargetFileWic.obj
 0001:00004350       ??1?$shared_ptr@VTimeline@cinder@@@tr1@std@@QAE@XZ 00405350 f i cinder:App.obj
 0001:00004350       ??1?$shared_ptr@UObj@GlslProg@gl@cinder@@@tr1@std@@QAE@XZ 00405350 f i CloudParticle.obj
 0001:00004350       ??1Texture@gl@cinder@@QAE@XZ 00405350 f i CloudParticle.obj
 0001:00004350       ??1?$SurfaceT@M@cinder@@QAE@XZ 00405350 f i CloudParticle.obj
 0001:00004350       ??1?$shared_ptr@V?$ImageTargetGLTexture@G@gl@cinder@@@tr1@std@@QAE@XZ 00405350 f i cinder:Texture.obj
 0001:00004350       ??1Renderbuffer@gl@cinder@@QAE@XZ 00405350 f i cinder:Fbo.obj
 0001:00004350       ??1Buffer@cinder@@QAE@XZ   00405350 f i cinder:App.obj
 0001:00004350       ??1?$shared_ptr@UtagTOUCHINPUT@@@tr1@std@@QAE@XZ 00405350 f i cinder:AppImplMswBasic.obj
 0001:00004350       ??1?$shared_ptr@V?$basic_dostream@DU?$char_traits@D@std@@@msw@cinder@@@tr1@std@@QAE@XZ 00405350 f i cinder:App.obj
 0001:00004350       ??1?$shared_ptr@VImageSourceFileWic@cinder@@@tr1@std@@QAE@XZ 00405350 f i cinder:ImageSourceFileWic.obj
 0001:00004350       ??1?$shared_ptr@D@tr1@std@@QAE@XZ 00405350 f i cinder:GlslProg.obj
 0001:00004350       ??1?$SurfaceT@E@cinder@@QAE@XZ 00405350 f i cinder:App.obj
 0001:00004390       ??1VboMesh@gl@cinder@@QAE@XZ 00405390 f i CloudParticle.obj
 0001:00004390       ??1GlslProg@gl@cinder@@QAE@XZ 00405390 f i CloudParticle.obj
 0001:000043d0       ??1TriMesh@cinder@@QAE@XZ  004053d0 f i CloudParticle.obj
 0001:00004470       ??0CloudParticle@@QAE@PAV?$vector@PAVCloudController@@V?$allocator@PAVCloudController@@@std@@@std@@@Z 00405470 f   CloudParticle.obj
 0001:000045f0       ?initFBO@CloudParticle@@QAEXXZ 004055f0 f   CloudParticle.obj
 0001:000047e0       ?setup@CloudParticle@@QAEXXZ 004057e0 f   CloudParticle.obj
 0001:00006100       ??4Fbo@gl@cinder@@QAEAAV012@ABV012@@Z 00407100 f i CloudParticle.obj
 0001:00006100       ??4VboMesh@gl@cinder@@QAEAAV012@ABV012@@Z 00407100 f i CloudParticle.obj
 0001:00006170       ?update@CloudParticle@@QAEXXZ 00407170 f   CloudParticle.obj
 0001:00006e00       ?draw@CloudParticle@@QAEXXZ 00407e00 f   CloudParticle.obj
 0001:00007110       ?mouseDown@CloudParticle@@QAEXVMouseEvent@app@cinder@@@Z 00408110 f   CloudParticle.obj
 0001:00007220       ??6?$basic_ostream@DU?$char_traits@D@std@@@std@@QAEAAV01@H@Z 00408220 f i CloudParticle.obj
 0001:00007400       ?push_back@?$vector@V?$Vec2@M@cinder@@V?$allocator@V?$Vec2@M@cinder@@@std@@@std@@QAEXABV?$Vec2@M@cinder@@@Z 00408400 f i cinder:ObjLoader.obj
 0001:00007400       ?push_back@?$vector@V?$Vec2@M@cinder@@V?$allocator@V?$Vec2@M@cinder@@@std@@@std@@QAEX$$QAV?$Vec2@M@cinder@@@Z 00408400 f i CloudParticle.obj
 0001:00007480       ??6cinder@@YAAAV?$basic_ostream@DU?$char_traits@D@std@@@std@@AAV12@ABV?$Vec2@H@0@@Z 00408480 f i CloudParticle.obj
 0001:000074e0       ??0?$vector@V?$Vec3@M@cinder@@V?$allocator@V?$Vec3@M@cinder@@@std@@@std@@QAE@ABV01@@Z 004084e0 f i CloudParticle.obj
 0001:000075b0       ??0?$vector@U?$pair@W4CustomAttr@Layout@VboMesh@gl@cinder@@I@std@@V?$allocator@U?$pair@W4CustomAttr@Layout@VboMesh@gl@cinder@@I@std@@@2@@std@@QAE@ABV01@@Z 004085b0 f i CloudParticle.obj
 0001:00007670       ?getIter@?$SurfaceT@M@cinder@@QAE?AVIter@12@XZ 00408670 f i CloudParticle.obj
 0001:000076b0       ?_Reserve@?$vector@V?$Vec2@M@cinder@@V?$allocator@V?$Vec2@M@cinder@@@std@@@std@@IAEXI@Z 004086b0 f i CloudParticle.obj
 0001:00007710       ?_Buy@?$vector@U?$pair@W4CustomAttr@Layout@VboMesh@gl@cinder@@I@std@@V?$allocator@U?$pair@W4CustomAttr@Layout@VboMesh@gl@cinder@@I@std@@@2@@std@@IAE_NI@Z 00408710 f i CloudParticle.obj
 0001:00007760       ??0Iter@?$SurfaceT@M@cinder@@QAE@AAV12@ABV?$AreaT@H@2@@Z 00408760 f i CloudParticle.obj
 0001:00007830       ?reserve@?$vector@V?$Vec2@M@cinder@@V?$allocator@V?$Vec2@M@cinder@@@std@@@std@@QAEXI@Z 00408830 f i CloudParticle.obj
 0001:00007900       ?reserve@?$vector@HV?$allocator@H@std@@@std@@QAEXI@Z 00408900 f i cinder:VBO.obj
 0001:00007900       ?reserve@?$vector@IV?$allocator@I@std@@@std@@QAEXI@Z 00408900 f i CloudParticle.obj
 0001:00007980       ?allocate@?$allocator@V?$Vec3@M@cinder@@@std@@QAEPAV?$Vec3@M@cinder@@I@Z 00408980 f i CloudParticle.obj
 0001:000079e0       ?allocate@?$allocator@H@std@@QAEPAHI@Z 004089e0 f i cinder:VBO.obj
 0001:000079e0       ?allocate@?$allocator@I@std@@QAEPAII@Z 004089e0 f i CloudParticle.obj
 0001:00007a40       ??$_Reset@VDisplay@cinder@@@?$_Ptr_base@VDisplay@cinder@@@tr1@std@@QAEXABV012@@Z 00408a40 f i cinder:Display.obj
 0001:00007a40       ??$_Reset@V?$ImageTargetGLTexture@E@gl@cinder@@@?$_Ptr_base@VImageTarget@cinder@@@tr1@std@@QAEXABV?$_Ptr_base@V?$ImageTargetGLTexture@E@gl@cinder@@@12@@Z 00408a40 f i cinder:Texture.obj
 0001:00007a40       ??$_Reset@V?$ImageTargetGLTexture@M@gl@cinder@@@?$_Ptr_base@VImageTarget@cinder@@@tr1@std@@QAEXABV?$_Ptr_base@V?$ImageTargetGLTexture@M@gl@cinder@@@12@@Z 00408a40 f i cinder:Texture.obj
 0001:00007a40       ??$_Reset@VDataTarget@cinder@@@?$_Ptr_base@VDataTarget@cinder@@@tr1@std@@QAEXABV012@@Z 00408a40 f i cinder:ImageIo.obj
 0001:00007a40       ??$_Reset@VOStream@cinder@@@?$_Ptr_base@VOStream@cinder@@@tr1@std@@QAEXABV012@@Z 00408a40 f i cinder:ImageTargetFileWic.obj
 0001:00007a40       ??$_Reset@UObj@Vbo@gl@cinder@@@?$_Ptr_base@UObj@Vbo@gl@cinder@@@tr1@std@@QAEXABV012@@Z 00408a40 f i cinder:VBO.obj
 0001:00007a40       ??$_Reset@UObj@Buffer@cinder@@@?$_Ptr_base@UObj@Buffer@cinder@@@tr1@std@@QAEXABV012@@Z 00408a40 f i cinder:GlslProg.obj
 0001:00007a40       ??$_Reset@VImageSource@cinder@@@?$_Ptr_base@VImageSource@cinder@@@tr1@std@@QAEXABV012@@Z 00408a40 f i cinder:Surface.obj
 0001:00007a40       ??$_Reset@VDataSource@cinder@@@?$_Ptr_base@VDataSource@cinder@@@tr1@std@@QAEXABV012@@Z 00408a40 f i cinder:ImageIo.obj
 0001:00007a40       ??$_Reset@V?$ImageTargetChannel@M@cinder@@@?$_Ptr_base@VImageTarget@cinder@@@tr1@std@@QAEXABV?$_Ptr_base@V?$ImageTargetChannel@M@cinder@@@12@@Z 00408a40 f i cinder:Channel.obj
 0001:00007a40       ??$_Reset@VImageTarget@cinder@@@?$_Ptr_base@VImageTarget@cinder@@@tr1@std@@QAEXABV012@@Z 00408a40 f i cinder:Surface.obj
 0001:00007a40       ??$_Reset@V?$ImageTargetGLTexture@G@gl@cinder@@@?$_Ptr_base@VImageTarget@cinder@@@tr1@std@@QAEXABV?$_Ptr_base@V?$ImageTargetGLTexture@G@gl@cinder@@@12@@Z 00408a40 f i cinder:Texture.obj
 0001:00007a40       ??$_Reset@UObj@?$ChannelT@E@cinder@@@?$_Ptr_base@UObj@?$ChannelT@E@cinder@@@tr1@std@@QAEXABV012@@Z 00408a40 f i cinder:Surface.obj
 0001:00007a40       ??$_Reset@UObj@Texture@gl@cinder@@@?$_Ptr_base@UObj@Texture@gl@cinder@@@tr1@std@@QAEXABV012@@Z 00408a40 f i CloudParticle.obj
 0001:00007aa0       ??$_Reset@UObj@GlslProg@gl@cinder@@@?$_Ptr_base@UObj@GlslProg@gl@cinder@@@tr1@std@@QAEXABV012@@Z 00408aa0 f i CloudParticle.obj
 0001:00007aa0       ??$_Reset@UObj@VboMesh@gl@cinder@@@?$_Ptr_base@UObj@VboMesh@gl@cinder@@@tr1@std@@QAEXABV012@@Z 00408aa0 f i CloudParticle.obj
 0001:00007aa0       ??$_Reset@UObj@Fbo@gl@cinder@@@?$_Ptr_base@UObj@Fbo@gl@cinder@@@tr1@std@@QAEXABV012@@Z 00408aa0 f i CloudParticle.obj
 0001:00007b00       ??$_Uninit_copy@V?$_Vector_const_iterator@V?$_Vector_val@V?$Vec3@M@cinder@@V?$allocator@V?$Vec3@M@cinder@@@std@@@std@@@std@@PAV?$Vec3@M@cinder@@V?$allocator@V?$Vec3@M@cinder@@@2@@std@@YAPAV?$Vec3@M@cinder@@V?$_Vector_const_iterator@V?$_Vector_val@V?$Vec3@M@cinder@@V?$allocator@V?$Vec3@M@cinder@@@std@@@std@@@0@0PAV12@AAV?$allocator@V?$Vec3@M@cinder@@@0@U_Nonscalar_ptr_iterator_tag@0@@Z 00408b00 f i CloudParticle.obj
 0001:00007b40       ??$_Uninit_copy@V?$_Vector_const_iterator@V?$_Vector_val@U?$pair@W4CustomAttr@Layout@VboMesh@gl@cinder@@I@std@@V?$allocator@U?$pair@W4CustomAttr@Layout@VboMesh@gl@cinder@@I@std@@@2@@std@@@std@@PAU?$pair@W4CustomAttr@Layout@VboMesh@gl@cinder@@I@2@V?$allocator@U?$pair@W4CustomAttr@Layout@VboMesh@gl@cinder@@I@std@@@2@@std@@YAPAU?$pair@W4CustomAttr@Layout@VboMesh@gl@cinder@@I@0@V?$_Vector_const_iterator@V?$_Vector_val@U?$pair@W4CustomAttr@Layout@VboMesh@gl@cinder@@I@std@@V?$allocator@U?$pair@W4CustomAttr@Layout@VboMesh@gl@cinder@@I@std@@@2@@std@@@0@0PAU10@AAV?$allocator@U?$pair@W4CustomAttr@Layout@VboMesh@gl@cinder@@I@std@@@0@U_Nonscalar_ptr_iterator_tag@0@@Z 00408b40 f i CloudParticle.obj
 0001:00007b70       ??$_Uninit_move@PAV?$Vec2@M@cinder@@PAV12@V?$allocator@V?$Vec2@M@cinder@@@std@@V12@@std@@YAPAV?$Vec2@M@cinder@@PAV12@00AAV?$allocator@V?$Vec2@M@cinder@@@0@0U_Nonscalar_ptr_iterator_tag@0@@Z 00408b70 f i CloudParticle.obj
 0001:00007ba0       ?update@DirVector@@QAEXABV?$ChannelT@M@cinder@@ABV?$Vec2@M@3@@Z 00408ba0 f   DirVector.obj
 0001:00007d10       ?draw@DirVector@@QAEXXZ    00408d10 f   DirVector.obj
 0001:00007da0       ??1path@filesystem3@boost@@QAE@XZ 00408da0 f i godComplexApp.obj
 0001:00007da0       ??1?$basic_string@_WU?$char_traits@_W@std@@V?$allocator@_W@2@@std@@QAE@XZ 00408da0 f i godComplexApp.obj
 0001:00007dd0       ??1FileDropEvent@app@cinder@@UAE@XZ 00408dd0 f i godComplexApp.obj
 0001:00007e20       ??1MouseEvent@app@cinder@@UAE@XZ 00408e20 f i CloudParticle.obj
 0001:00007e20       ??1KeyEvent@app@cinder@@UAE@XZ 00408e20 f i godComplexApp.obj
 0001:00007e20       ??1ResizeEvent@app@cinder@@UAE@XZ 00408e20 f i godComplexApp.obj
 0001:00007e20       ??1Event@app@cinder@@UAE@XZ 00408e20 f i CloudParticle.obj
 0001:00007e30       ?keyUp@App@app@cinder@@UAEXVKeyEvent@23@@Z 00408e30 f i godComplexApp.obj
 0001:00007e30       ?keyDown@App@app@cinder@@UAEXVKeyEvent@23@@Z 00408e30 f i cinder:App.obj
 0001:00007e40       ?resize@App@app@cinder@@UAEXVResizeEvent@23@@Z 00408e40 f i godComplexApp.obj
 0001:00007e50       ?fileDrop@App@app@cinder@@UAEXVFileDropEvent@23@@Z 00408e50 f i godComplexApp.obj
 0001:00007e80       ??1TouchEvent@app@cinder@@UAE@XZ 00408e80 f i godComplexApp.obj
 0001:00007eb0       ?touchesMoved@AppBasic@app@cinder@@UAEXVTouchEvent@23@@Z 00408eb0 f i godComplexApp.obj
 0001:00007eb0       ?touchesBegan@AppBasic@app@cinder@@UAEXVTouchEvent@23@@Z 00408eb0 f i godComplexApp.obj
 0001:00007eb0       ?touchesEnded@AppBasic@app@cinder@@UAEXVTouchEvent@23@@Z 00408eb0 f i godComplexApp.obj
 0001:00007ed0       ?getSettings@AppBasic@app@cinder@@UBEABVSettings@123@XZ 00408ed0 f i godComplexApp.obj
 0001:00007ee0       ??1CameraPersp@cinder@@UAE@XZ 00408ee0 f i godComplexApp.obj
 0001:00007ee0       ??1Camera@cinder@@UAE@XZ   00408ee0 f i godComplexApp.obj
 0001:00007ef0       ??_ECameraPersp@cinder@@UAEPAXI@Z 00408ef0 f i cinder:Camera.obj
 0001:00007ef0       ??_GCamera@cinder@@UAEPAXI@Z 00408ef0 f i godComplexApp.obj
 0001:00007ef0       ??_GCameraPersp@cinder@@UAEPAXI@Z 00408ef0 f i cinder:Camera.obj
 0001:00007ef0       ??_ECamera@cinder@@UAEPAXI@Z 00408ef0 f i  CIL library: CIL module
 0001:00007f20       ??4Camera@cinder@@QAEAAV01@ABV01@@Z 00408f20 f i godComplexApp.obj
 0001:00008050       ?prepareSettings@godComplexApp@@UAEXPAVSettings@AppBasic@app@cinder@@@Z 00409050 f   godComplexApp.obj
 0001:00008080       ?setup@godComplexApp@@UAEXXZ 00409080 f   godComplexApp.obj
 0001:000085d0       ?mouseDown@godComplexApp@@UAEXVMouseEvent@app@cinder@@@Z 004095d0 f   godComplexApp.obj
 0001:000086a0       ?mouseUp@godComplexApp@@UAEXVMouseEvent@app@cinder@@@Z 004096a0 f   godComplexApp.obj
 0001:000086c0       ?mouseDrag@godComplexApp@@UAEXVMouseEvent@app@cinder@@@Z 004096c0 f   godComplexApp.obj
 0001:00008700       ?keyDown@godComplexApp@@UAEXVKeyEvent@app@cinder@@@Z 00409700 f   godComplexApp.obj
 0001:00008b80       ??1WaterModule@@QAE@XZ     00409b80 f i godComplexApp.obj
 0001:00008c70       ?update@godComplexApp@@UAEXXZ 00409c70 f   godComplexApp.obj
 0001:00008c80       ?draw@godComplexApp@@UAEXXZ 00409c80 f   godComplexApp.obj
 0001:00008de0       _WinMain@16                00409de0 f   godComplexApp.obj
 0001:00008e40       ??0godComplexApp@@QAE@XZ   00409e40 f i godComplexApp.obj
 0001:00009050       ??_EgodComplexApp@@UAEPAXI@Z 0040a050 f i  CIL library: CIL module
 0001:00009050       ??_GgodComplexApp@@UAEPAXI@Z 0040a050 f i godComplexApp.obj
 0001:00009080       ??1MayaCamUI@cinder@@QAE@XZ 0040a080 f i godComplexApp.obj
 0001:00009090       ??1godComplexApp@@UAE@XZ   0040a090 f i godComplexApp.obj
 0001:000091e0       ?_Tidy@?$basic_string@_WU?$char_traits@_W@std@@V?$allocator@_W@2@@std@@QAEX_NI@Z 0040a1e0 f i godComplexApp.obj
 0001:00009230       ?_Tidy@?$vector@Vpath@filesystem3@boost@@V?$allocator@Vpath@filesystem3@boost@@@std@@@std@@IAEXXZ 0040a230 f i godComplexApp.obj
 0001:00009230       ??1?$vector@Vpath@filesystem3@boost@@V?$allocator@Vpath@filesystem3@boost@@@std@@@std@@QAE@XZ 0040a230 f i godComplexApp.obj
 0001:00009270       ?_Destroy@?$vector@Vpath@filesystem3@boost@@V?$allocator@Vpath@filesystem3@boost@@@std@@@std@@IAEXPAVpath@filesystem3@boost@@0@Z 0040a270 f i godComplexApp.obj
 0001:000092c0       ??$_Destroy_range@V?$allocator@Vpath@filesystem3@boost@@@std@@@std@@YAXPAVpath@filesystem3@boost@@0AAV?$allocator@Vpath@filesystem3@boost@@@0@U_Nonscalar_ptr_iterator_tag@0@@Z 0040a2c0 f i godComplexApp.obj
 0001:00009300       ??$_Dest_val@V?$allocator@Vpath@filesystem3@boost@@@std@@Vpath@filesystem3@boost@@@std@@YAXAAV?$allocator@Vpath@filesystem3@boost@@@0@PAVpath@filesystem3@boost@@@Z 0040a300 f i godComplexApp.obj
 0001:00009330       ?setup@VectorFlowField@@QAEXXZ 0040a330 f   VectorFlowField.obj
 0001:000098e0       ?update@VectorFlowField@@QAEXXZ 0040a8e0 f   VectorFlowField.obj
 0001:00009b60       ?draw@VectorFlowField@@QAEXXZ 0040ab60 f   VectorFlowField.obj
 0001:00009cd0       ?invokePrintFlowField@VectorFlowField@@QAEXXZ 0040acd0 f   VectorFlowField.obj
 0001:00009d50       ?checkRespawn@VectorFlowField@@QAEXXZ 0040ad50 f   VectorFlowField.obj
 0001:00009f80       ??4?$shared_ptr@UObj@?$ChannelT@M@cinder@@@tr1@std@@QAEAAV012@ABV012@@Z 0040af80 f i VectorFlowField.obj
 0001:00009ff0       ??0?$shared_ptr@UObj@?$ChannelT@M@cinder@@@tr1@std@@QAE@ABV012@@Z 0040aff0 f i VectorFlowField.obj
 0001:00009ff0       ??0?$shared_ptr@UObj@Texture@gl@cinder@@@tr1@std@@QAE@ABV012@@Z 0040aff0 f i CloudParticle.obj
 0001:0000a060       ?reserve@?$vector@PAVCloudController@@V?$allocator@PAVCloudController@@@std@@@std@@QAEXI@Z 0040b060 f i VectorFlowField.obj
 0001:0000a0e0       ?allocate@?$allocator@PAVCloudController@@@std@@QAEPAPAVCloudController@@I@Z 0040b0e0 f i VectorFlowField.obj
 0001:0000a140       ??0VectorSet@@QAE@H@Z      0040b140 f   VectorSet.obj
 0001:0000a4a0       ?addParticle@VectorSet@@QAEXHHHV?$Vec2@M@cinder@@@Z 0040b4a0 f   VectorSet.obj
 0001:0000a5b0       ?printFlowLookUpTable@VectorSet@@QAEXXZ 0040b5b0 f   VectorSet.obj
 0001:0000a780       ?flowLookUp@VectorSet@@QAE?AV?$Vec2@M@cinder@@V23@@Z 0040b780 f   VectorSet.obj
 0001:0000aa30       ??1?$list@PAVDirVector@@V?$allocator@PAVDirVector@@@std@@@std@@QAE@XZ 0040ba30 f i VectorSet.obj
 0001:0000aa70       ?_Buynode@?$_List_val@PAVDirVector@@V?$allocator@PAVDirVector@@@std@@@std@@QAEPAU_Node@?$_List_nod@PAVDirVector@@V?$allocator@PAVDirVector@@@std@@@2@PAU342@0ABQAVDirVector@@@Z 0040ba70 f i VectorSet.obj
 0001:0000aad0       ?what@ResourceLoadExc@app@cinder@@UBEPBDXZ 0040bad0 f i cinder:App.obj
 0001:0000aad0       ?what@GlslProgCompileExc@gl@cinder@@UBEPBDXZ 0040bad0 f i WaterModule.obj
 0001:0000aad0       ?what@FboExceptionInvalidSpecification@gl@cinder@@UBEPBDXZ 0040bad0 f i cinder:Fbo.obj
 0001:0000aad0       ?getFilePath@DataTarget@cinder@@QBEABVpath@filesystem3@boost@@XZ 0040bad0 f i cinder:DataTarget.obj
 0001:0000aad0       ?getFilePath@DataSource@cinder@@QAEABVpath@filesystem3@boost@@XZ 0040bad0 f i cinder:DataSource.obj
 0001:0000aae0       ?setup@WaterModule@@QAEXXZ 0040bae0 f   WaterModule.obj
 0001:0000b270       ??1failure@ios_base@std@@UAE@XZ 0040c270 f i CloudController.obj
 0001:0000b270       ??1VboFailedUnmapExc@gl@cinder@@UAE@XZ 0040c270 f i cinder:VBO.obj
 0001:0000b270       ??1GlslProgCompileExc@gl@cinder@@UAE@XZ 0040c270 f i WaterModule.obj
 0001:0000b270       ??1runtime_error@std@@UAE@XZ 0040c270 f i CloudController.obj
 0001:0000b280       ?drawFullScreenRect@WaterModule@@AAEXXZ 0040c280 f   WaterModule.obj
 0001:0000b3c0       ?draw@WaterModule@@QAEXM@Z 0040c3c0 f   WaterModule.obj
 0001:0000b7e0       ?set@?$RectT@M@cinder@@QAEXMMMM@Z 0040c7e0 f i cinder:Rect.obj
 0001:0000b800       ??0?$RectT@M@cinder@@QAE@ABV?$AreaT@H@1@@Z 0040c800 f i cinder:Rect.obj
 0001:0000b840       ?_Get_deleter@_Ref_count_base@tr1@std@@UBEPAXABVtype_info@@@Z 0040c840 f i cinder:App.obj
 0001:0000b850       ??0locale@std@@QAE@XZ      0040c850 f i cinder:App.obj
 0001:0000b890       ?privateDraw__@App@app@cinder@@UAEXXZ 0040c890 f   cinder:App.obj
 0001:0000b8a0       ?privateShutdown__@App@app@cinder@@UAEXXZ 0040c8a0 f   cinder:App.obj
 0001:0000b8b0       ?setWindowSize@Settings@App@app@cinder@@QAEXHH@Z 0040c8b0 f   cinder:App.obj
 0001:0000b8d0       ?setFrameRate@Settings@App@app@cinder@@QAEXM@Z 0040c8d0 f   cinder:App.obj
 0001:0000b8e0       ??1?$basic_ostream@DU?$char_traits@D@std@@@std@@UAE@XZ 0040c8e0 f i cinder:App.obj
 0001:0000b8f0       ??1?$basic_ios@DU?$char_traits@D@std@@@std@@UAE@XZ 0040c8f0 f i cinder:App.obj
 0001:0000b900       ??_D?$basic_ostream@DU?$char_traits@D@std@@@std@@QAEXXZ 0040c900 f i cinder:App.obj
 0001:0000b920       ??_E?$basic_ios@DU?$char_traits@D@std@@@std@@UAEPAXI@Z 0040c920 f i cinder:App.obj
 0001:0000b920       ??_G?$basic_ios@DU?$char_traits@D@std@@@std@@UAEPAXI@Z 0040c920 f i cinder:App.obj
 0001:0000b920       ??_Gios_base@std@@UAEPAXI@Z 0040c920 f i cinder:App.obj
 0001:0000b920       ??_Eios_base@std@@UAEPAXI@Z 0040c920 f i cinder:App.obj
 0001:0000b950       ?_Tidy@?$basic_stringbuf@DU?$char_traits@D@std@@V?$allocator@D@2@@std@@IAEXXZ 0040c950 f i cinder:App.obj
 0001:0000b9b0       ?_Init@?$basic_streambuf@DU?$char_traits@D@std@@@std@@IAEXXZ 0040c9b0 f i cinder:App.obj
 0001:0000ba10       ?_Destroy@?$_Ref_count@VTimeline@cinder@@@tr1@std@@EAEXXZ 0040ca10 f i cinder:App.obj
 0001:0000ba10       ?_Destroy@?$_Ref_count@VRenderer@app@cinder@@@tr1@std@@EAEXXZ 0040ca10 f i cinder:App.obj
 0001:0000ba20       ?_Destroy@?$_Ref_count@V?$basic_dostream@DU?$char_traits@D@std@@@msw@cinder@@@tr1@std@@EAEXXZ 0040ca20 f i cinder:App.obj
 0001:0000ba40       ??0?$ctype@D@std@@QAE@ABV_Locinfo@1@I@Z 0040ca40 f i cinder:App.obj
 0001:0000ba90       ?do_tolower@?$ctype@D@std@@MBEDD@Z 0040ca90 f i cinder:App.obj
 0001:0000bab0       ?do_tolower@?$ctype@D@std@@MBEPBDPADPBD@Z 0040cab0 f i cinder:App.obj
 0001:0000bae0       ?do_toupper@?$ctype@D@std@@MBEDD@Z 0040cae0 f i cinder:App.obj
 0001:0000bb00       ?do_toupper@?$ctype@D@std@@MBEPBDPADPBD@Z 0040cb00 f i cinder:App.obj
 0001:0000bb30       ?do_widen@?$ctype@D@std@@MBEDD@Z 0040cb30 f i cinder:App.obj
 0001:0000bb40       ?do_widen@?$ctype@D@std@@MBEPBDPBD0PAD@Z 0040cb40 f i cinder:App.obj
 0001:0000bb70       ?do_narrow@?$ctype@D@std@@MBEDDD@Z 0040cb70 f i cinder:App.obj
 0001:0000bb80       ?do_narrow@?$ctype@D@std@@MBEPBDPBD0DPAD@Z 0040cb80 f i cinder:App.obj
 0001:0000bbb0       ??_G?$ctype@D@std@@MAEPAXI@Z 0040cbb0 f i cinder:App.obj
 0001:0000bbb0       ??_E?$ctype@D@std@@MAEPAXI@Z 0040cbb0 f i cinder:App.obj
 0001:0000bc00       ?_Init@ios_base@std@@IAEXXZ 0040cc00 f i cinder:App.obj
 0001:0000bc90       ??_EResizeEvent@app@cinder@@UAEPAXI@Z 0040cc90 f i cinder:App.obj
 0001:0000bc90       ??_GResizeEvent@app@cinder@@UAEPAXI@Z 0040cc90 f i cinder:App.obj
 0001:0000bc90       ??_EMouseEvent@app@cinder@@UAEPAXI@Z 0040cc90 f i  CIL library: CIL module
 0001:0000bc90       ??_EEvent@app@cinder@@UAEPAXI@Z 0040cc90 f i  CIL library: CIL module
 0001:0000bc90       ??_GKeyEvent@app@cinder@@UAEPAXI@Z 0040cc90 f i cinder:App.obj
 0001:0000bc90       ??_EKeyEvent@app@cinder@@UAEPAXI@Z 0040cc90 f i cinder:App.obj
 0001:0000bc90       ??_GMouseEvent@app@cinder@@UAEPAXI@Z 0040cc90 f i godComplexApp.obj
 0001:0000bc90       ??_GEvent@app@cinder@@UAEPAXI@Z 0040cc90 f i CloudParticle.obj
 0001:0000bcc0       ??1?$basic_streambuf@DU?$char_traits@D@std@@@std@@UAE@XZ 0040ccc0 f i cinder:App.obj
 0001:0000bd40       ?_Lock@?$basic_streambuf@DU?$char_traits@D@std@@@std@@UAEXXZ 0040cd40 f i cinder:App.obj
 0001:0000bd50       ?_Unlock@?$basic_streambuf@DU?$char_traits@D@std@@@std@@UAEXXZ 0040cd50 f i cinder:App.obj
 0001:0000bd60       ?pbackfail@?$basic_streambuf@DU?$char_traits@D@std@@@std@@MAEHH@Z 0040cd60 f i cinder:App.obj
 0001:0000bd60       ?overflow@?$basic_streambuf@DU?$char_traits@D@std@@@std@@MAEHH@Z 0040cd60 f i cinder:App.obj
 0001:0000bd70       ?showmanyc@?$basic_streambuf@DU?$char_traits@D@std@@@std@@MAE_JXZ 0040cd70 f i cinder:App.obj
 0001:0000bd80       ?underflow@?$basic_streambuf@DU?$char_traits@D@std@@@std@@MAEHXZ 0040cd80 f i cinder:App.obj
 0001:0000bd90       ?setbuf@?$basic_streambuf@DU?$char_traits@D@std@@@std@@MAEPAV12@PAD_J@Z 0040cd90 f i cinder:App.obj
 0001:0000bda0       ?imbue@?$basic_streambuf@DU?$char_traits@D@std@@@std@@MAEXABVlocale@2@@Z 0040cda0 f i cinder:App.obj
 0001:0000bda0       ?setBorderless@App@app@cinder@@UAEX_N@Z 0040cda0 f i cinder:App.obj
 0001:0000bda0       ?start@Timeline@cinder@@MAEX_N@Z 0040cda0 f i cinder:Timeline.obj
 0001:0000bda0       ?setWindowHeight@AppImplMsw@app@cinder@@UAEXH@Z 0040cda0 f i cinder:AppImplMsw.obj
 0001:0000bda0       ?setAlwaysOnTop@App@app@cinder@@UAEX_N@Z 0040cda0 f i cinder:App.obj
 0001:0000bda0       ?setWindowPos@App@app@cinder@@UAEXABV?$Vec2@H@3@@Z 0040cda0 f i cinder:App.obj
 0001:0000bda0       ?setWindowWidth@AppImplMsw@app@cinder@@UAEXH@Z 0040cda0 f i cinder:AppImplMsw.obj
 0001:0000bda0       ?prepareSettings@AppBasic@app@cinder@@UAEXPAVSettings@123@@Z 0040cda0 f i cinder:AppBasic.obj
 0001:0000bda0       ?complete@Timeline@cinder@@MAEX_N@Z 0040cda0 f i cinder:Timeline.obj
 0001:0000bdb0       ?_Gnavail@?$basic_streambuf@DU?$char_traits@D@std@@@std@@IBE_JXZ 0040cdb0 f i cinder:App.obj
 0001:0000bdd0       ?uflow@?$basic_streambuf@DU?$char_traits@D@std@@@std@@MAEHXZ 0040cdd0 f i cinder:App.obj
 0001:0000be00       ?xsgetn@?$basic_streambuf@DU?$char_traits@D@std@@@std@@MAE_JPAD_J@Z 0040ce00 f i cinder:App.obj
 0001:0000bed0       ?xsputn@?$basic_streambuf@DU?$char_traits@D@std@@@std@@MAE_JPBD_J@Z 0040ced0 f i cinder:App.obj
 0001:0000bfa0       ?seekoff@?$basic_streambuf@DU?$char_traits@D@std@@@std@@MAE?AV?$fpos@H@2@_JHH@Z 0040cfa0 f i cinder:App.obj
 0001:0000bfd0       ?seekpos@?$basic_streambuf@DU?$char_traits@D@std@@@std@@MAE?AV?$fpos@H@2@V32@H@Z 0040cfd0 f i cinder:App.obj
 0001:0000c000       ??1?$basic_stringbuf@DU?$char_traits@D@std@@V?$allocator@D@2@@std@@UAE@XZ 0040d000 f i cinder:App.obj
 0001:0000c020       ?pbackfail@?$basic_stringbuf@DU?$char_traits@D@std@@V?$allocator@D@2@@std@@MAEHH@Z 0040d020 f i cinder:App.obj
 0001:0000c070       ?underflow@?$basic_stringbuf@DU?$char_traits@D@std@@V?$allocator@D@2@@std@@MAEHXZ 0040d070 f i cinder:App.obj
 0001:0000c0e0       ?seekoff@?$basic_stringbuf@DU?$char_traits@D@std@@V?$allocator@D@2@@std@@MAE?AV?$fpos@H@2@_JHH@Z 0040d0e0 f i cinder:App.obj
 0001:0000c2a0       ?seekpos@?$basic_stringbuf@DU?$char_traits@D@std@@V?$allocator@D@2@@std@@MAE?AV?$fpos@H@2@V32@H@Z 0040d2a0 f i cinder:App.obj
 0001:0000c3c0       ??_G?$basic_ostream@DU?$char_traits@D@std@@@std@@UAEPAXI@Z 0040d3c0 f i cinder:App.obj
 0001:0000c3c0       ??_E?$basic_ostream@DU?$char_traits@D@std@@@std@@UAEPAXI@Z 0040d3c0 f i cinder:App.obj
 0001:0000c400       ??_G?$basic_streambuf@DU?$char_traits@D@std@@@std@@UAEPAXI@Z 0040d400 f i cinder:App.obj
 0001:0000c400       ??_E?$basic_streambuf@DU?$char_traits@D@std@@@std@@UAEPAXI@Z 0040d400 f i cinder:App.obj
 0001:0000c430       ??_G?$basic_stringbuf@DU?$char_traits@D@std@@V?$allocator@D@2@@std@@UAEPAXI@Z 0040d430 f i cinder:App.obj
 0001:0000c430       ??_E?$basic_stringbuf@DU?$char_traits@D@std@@V?$allocator@D@2@@std@@UAEPAXI@Z 0040d430 f i cinder:App.obj
 0001:0000c460       ?allocate@?$allocator@_W@std@@QAEPA_WI@Z 0040d460 f i cinder:App.obj
 0001:0000c4c0       ?erase@?$basic_string@_WU?$char_traits@_W@std@@V?$allocator@_W@2@@std@@QAEAAV12@II@Z 0040d4c0 f i cinder:App.obj
 0001:0000c550       ??0?$basic_streambuf@DU?$char_traits@D@std@@@std@@IAE@XZ 0040d550 f i cinder:App.obj
 0001:0000c640       ?allocate@?$allocator@Vpath@filesystem3@boost@@@std@@QAEPAVpath@filesystem3@boost@@I@Z 0040d640 f i cinder:App.obj
 0001:0000c640       ?allocate@?$allocator@V?$basic_string@DU?$char_traits@D@std@@V?$allocator@D@2@@std@@@std@@QAEPAV?$basic_string@DU?$char_traits@D@std@@V?$allocator@D@2@@2@I@Z 0040d640 f i cinder:App.obj
 0001:0000c6a0       ?_Init@?$basic_stringbuf@DU?$char_traits@D@std@@V?$allocator@D@2@@std@@IAEXPBDIH@Z 0040d6a0 f i cinder:App.obj
 0001:0000c750       ?_Copy@?$basic_string@_WU?$char_traits@_W@std@@V?$allocator@_W@2@@std@@QAEXII@Z 0040d750 f i cinder:App.obj
 0001:0000c8d0       ??$_Do_enable@VTimeline@cinder@@VTimelineItem@2@@tr1@std@@YAXPAVTimeline@cinder@@PAV?$enable_shared_from_this@VTimelineItem@cinder@@@01@PAV_Ref_count_base@01@@Z 0040d8d0 f i cinder:App.obj
 0001:0000c930       ?_Getcat@?$ctype@D@std@@SAIPAPBVfacet@locale@2@PBV42@@Z 0040d930 f i cinder:App.obj
 0001:0000ca10       ?privateSetup__@App@app@cinder@@UAEXXZ 0040da10 f   cinder:App.obj
 0001:0000ca40       ?privateUpdate__@App@app@cinder@@UAEXXZ 0040da40 f   cinder:App.obj
 0001:0000cac0       ??0ResourceLoadExc@app@cinder@@QAE@HABV?$basic_string@DU?$char_traits@D@std@@V?$allocator@D@2@@std@@@Z 0040dac0 f   cinder:App.obj
 0001:0000cb00       ?overflow@?$basic_stringbuf@DU?$char_traits@D@std@@V?$allocator@D@2@@std@@MAEHH@Z 0040db00 f i cinder:App.obj
 0001:0000ccb0       ?_Grow@?$basic_string@_WU?$char_traits@_W@std@@V?$allocator@_W@2@@std@@QAE_NI_N@Z 0040dcb0 f i cinder:App.obj
 0001:0000cd70       ??$use_facet@V?$ctype@D@std@@@std@@YAABV?$ctype@D@0@ABVlocale@0@@Z 0040dd70 f i cinder:App.obj
 0001:0000ceb0       ??$?0V?$basic_string@DU?$char_traits@D@std@@V?$allocator@D@2@@std@@@path@filesystem3@boost@@QAE@ABV?$basic_string@DU?$char_traits@D@std@@V?$allocator@D@2@@std@@PAX@Z 0040deb0 f i cinder:App.obj
 0001:0000cf40       ?assign@?$basic_string@_WU?$char_traits@_W@std@@V?$allocator@_W@2@@std@@QAEAAV12@ABV12@II@Z 0040df40 f i cinder:App.obj
 0001:0000d040       ?widen@?$basic_ios@DU?$char_traits@D@std@@@std@@QBEDD@Z 0040e040 f i cinder:App.obj
 0001:0000d0f0       ??$_Resetp@V?$basic_dostream@DU?$char_traits@D@std@@@msw@cinder@@@?$shared_ptr@V?$basic_dostream@DU?$char_traits@D@std@@@msw@cinder@@@tr1@std@@AAEXPAV?$basic_dostream@DU?$char_traits@D@std@@@msw@cinder@@@Z 0040e0f0 f i cinder:App.obj
 0001:0000d190       ??$_Resetp@VRenderer@app@cinder@@@?$shared_ptr@VRenderer@app@cinder@@@tr1@std@@AAEXPAVRenderer@app@cinder@@@Z 0040e190 f i cinder:App.obj
 0001:0000d230       ?privateMouseDown__@App@app@cinder@@QAEXABVMouseEvent@23@@Z 0040e230 f   cinder:App.obj
 0001:0000d370       ?privateMouseUp__@App@app@cinder@@QAEXABVMouseEvent@23@@Z 0040e370 f   cinder:App.obj
 0001:0000d4b0       ?privateMouseWheel__@App@app@cinder@@QAEXABVMouseEvent@23@@Z 0040e4b0 f   cinder:App.obj
 0001:0000d5f0       ?privateMouseMove__@App@app@cinder@@QAEXABVMouseEvent@23@@Z 0040e5f0 f   cinder:App.obj
 0001:0000d730       ?privateMouseDrag__@App@app@cinder@@QAEXABVMouseEvent@23@@Z 0040e730 f   cinder:App.obj
 0001:0000d870       ?privateKeyDown__@App@app@cinder@@QAEXABVKeyEvent@23@@Z 0040e870 f   cinder:App.obj
 0001:0000d990       ?privateKeyUp__@App@app@cinder@@QAEXABVKeyEvent@23@@Z 0040e990 f   cinder:App.obj
 0001:0000dab0       ?privateResize__@App@app@cinder@@UAEXABVResizeEvent@23@@Z 0040eab0 f   cinder:App.obj
 0001:0000dbb0       ??0Settings@App@app@cinder@@IAE@XZ 0040ebb0 f   cinder:App.obj
 0001:0000dc00       ??1Settings@AppBasic@app@cinder@@UAE@XZ 0040ec00 f i cinder:AppBasic.obj
 0001:0000dc00       ??1Settings@App@app@cinder@@MAE@XZ 0040ec00 f i cinder:App.obj
 0001:0000dc30       ??_GSettings@App@app@cinder@@MAEPAXI@Z 0040ec30 f i cinder:App.obj
 0001:0000dc30       ??_GSettings@AppBasic@app@cinder@@UAEPAXI@Z 0040ec30 f i cinder:AppBasic.obj
 0001:0000dc30       ??_ESettings@App@app@cinder@@MAEPAXI@Z 0040ec30 f i cinder:App.obj
 0001:0000dc30       ??_ESettings@AppBasic@app@cinder@@UAEPAXI@Z 0040ec30 f i cinder:AppBasic.obj
 0001:0000dc80       ??0?$basic_string@_WU?$char_traits@_W@std@@V?$allocator@_W@2@@std@@QAE@ABV01@@Z 0040ec80 f i cinder:App.obj
 0001:0000dcb0       ??$_Resetp@VTimeline@cinder@@@?$shared_ptr@VTimelineItem@cinder@@@tr1@std@@AAEXPAVTimeline@cinder@@@Z 0040ecb0 f i cinder:Timeline.obj
 0001:0000dcb0       ??$_Resetp@VTimeline@cinder@@@?$shared_ptr@VTimeline@cinder@@@tr1@std@@AAEXPAVTimeline@cinder@@@Z 0040ecb0 f i cinder:App.obj
 0001:0000dd50       ??0?$basic_string@DU?$char_traits@D@std@@V?$allocator@D@2@@std@@QAE@ABV01@@Z 0040ed50 f i cinder:App.obj
 0001:0000dd80       ??0?$basic_ostream@DU?$char_traits@D@std@@@std@@QAE@PAV?$basic_streambuf@DU?$char_traits@D@std@@@1@_N@Z 0040ed80 f i cinder:App.obj
 0001:0000de50       ?create@Timeline@cinder@@SA?AV?$shared_ptr@VTimeline@cinder@@@tr1@std@@XZ 0040ee50 f i cinder:App.obj
 0001:0000dee0       ?executeLaunch@App@app@cinder@@KAXPAV123@PAVRenderer@23@PBDHQBQAD@Z 0040eee0 f   cinder:App.obj
 0001:0000dfa0       ??0?$basic_dostream@DU?$char_traits@D@std@@@msw@cinder@@QAE@XZ 0040efa0 f i cinder:App.obj
 0001:0000e090       ??_D?$basic_dostream@DU?$char_traits@D@std@@@msw@cinder@@QAEXXZ 0040f090 f i cinder:App.obj
 0001:0000e120       ??_E?$basic_dostream@DU?$char_traits@D@std@@@msw@cinder@@UAEPAXI@Z 0040f120 f i cinder:App.obj
 0001:0000e120       ??_G?$basic_dostream@DU?$char_traits@D@std@@@msw@cinder@@UAEPAXI@Z 0040f120 f i cinder:App.obj
 0001:0000e150       ?loadResource@App@app@cinder@@SA?AV?$shared_ptr@VDataSource@cinder@@@tr1@std@@HABV?$basic_string@DU?$char_traits@D@std@@V?$allocator@D@2@@6@@Z 0040f150 f   cinder:App.obj
 0001:0000e240       ?console@App@app@cinder@@QAEAAV?$basic_ostream@DU?$char_traits@D@std@@@std@@XZ 0040f240 f   cinder:App.obj
 0001:0000e300       ?str@?$basic_stringbuf@DU?$char_traits@D@std@@V?$allocator@D@2@@std@@QBE?AV?$basic_string@DU?$char_traits@D@std@@V?$allocator@D@2@@2@XZ 0040f300 f i cinder:App.obj
 0001:0000e430       ??$_Destroy_range@V?$allocator@V?$basic_string@DU?$char_traits@D@std@@V?$allocator@D@2@@std@@@std@@@std@@YAXPAV?$basic_string@DU?$char_traits@D@std@@V?$allocator@D@2@@0@0AAV?$allocator@V?$basic_string@DU?$char_traits@D@std@@V?$allocator@D@2@@std@@@0@U_Nonscalar_ptr_iterator_tag@0@@Z 0040f430 f i cinder:App.obj
 0001:0000e470       ??$_Uninit_copy@V?$_Vector_const_iterator@V?$_Vector_val@Vpath@filesystem3@boost@@V?$allocator@Vpath@filesystem3@boost@@@std@@@std@@@std@@PAVpath@filesystem3@boost@@V?$allocator@Vpath@filesystem3@boost@@@2@@std@@YAPAVpath@filesystem3@boost@@V?$_Vector_const_iterator@V?$_Vector_val@Vpath@filesystem3@boost@@V?$allocator@Vpath@filesystem3@boost@@@std@@@std@@@0@0PAV123@AAV?$allocator@Vpath@filesystem3@boost@@@0@U_Nonscalar_ptr_iterator_tag@0@@Z 0040f470 f i cinder:App.obj
 0001:0000e530       ??$_Uninit_move@PAVpath@filesystem3@boost@@PAV123@V?$allocator@Vpath@filesystem3@boost@@@std@@V123@@std@@YAPAVpath@filesystem3@boost@@PAV123@00AAV?$allocator@Vpath@filesystem3@boost@@@0@0U_Nonscalar_ptr_iterator_tag@0@@Z 0040f530 f i cinder:App.obj
 0001:0000e5f0       ?string@path@filesystem3@boost@@QBE?BV?$basic_string@DU?$char_traits@D@std@@V?$allocator@D@2@@std@@ABV?$codecvt@_WDH@5@@Z 0040f5f0 f i cinder:App.obj
 0001:0000e680       ?sync@?$basic_debugbuf@DU?$char_traits@D@std@@@msw@cinder@@MAEHXZ 0040f680 f i cinder:App.obj
 0001:0000e740       ?string@path@filesystem3@boost@@QBE?BV?$basic_string@DU?$char_traits@D@std@@V?$allocator@D@2@@std@@XZ 0040f740 f i cinder:App.obj
 0001:0000e770       ??_E?$basic_debugbuf@DU?$char_traits@D@std@@@msw@cinder@@UAEPAXI@Z 0040f770 f i cinder:App.obj
 0001:0000e770       ??_G?$basic_debugbuf@DU?$char_traits@D@std@@@msw@cinder@@UAEPAXI@Z 0040f770 f i cinder:App.obj
 0001:0000e7f0       ?reserve@?$vector@Vpath@filesystem3@boost@@V?$allocator@Vpath@filesystem3@boost@@@std@@@std@@QAEXI@Z 0040f7f0 f i cinder:App.obj
 0001:0000e910       ??0?$vector@Vpath@filesystem3@boost@@V?$allocator@Vpath@filesystem3@boost@@@std@@@std@@QAE@ABV01@@Z 0040f910 f i cinder:App.obj
 0001:0000e9f0       ??1?$vector@V?$basic_string@DU?$char_traits@D@std@@V?$allocator@D@2@@std@@V?$allocator@V?$basic_string@DU?$char_traits@D@std@@V?$allocator@D@2@@std@@@2@@std@@QAE@XZ 0040f9f0 f i cinder:App.obj
 0001:0000ea40       ?_Reserve@?$vector@Vpath@filesystem3@boost@@V?$allocator@Vpath@filesystem3@boost@@@std@@@std@@IAEXI@Z 0040fa40 f i cinder:App.obj
 0001:0000eac0       ??1App@app@cinder@@UAE@XZ  0040fac0 f   cinder:App.obj
 0001:0000ee40       ?mouseDrag@App@app@cinder@@UAEXVMouseEvent@23@@Z 0040fe40 f i cinder:App.obj
 0001:0000ee40       ?mouseUp@App@app@cinder@@UAEXVMouseEvent@23@@Z 0040fe40 f i cinder:App.obj
 0001:0000ee40       ?mouseMove@App@app@cinder@@UAEXVMouseEvent@23@@Z 0040fe40 f i godComplexApp.obj
 0001:0000ee40       ?mouseDown@App@app@cinder@@UAEXVMouseEvent@23@@Z 0040fe40 f i cinder:App.obj
 0001:0000ee40       ?mouseWheel@App@app@cinder@@UAEXVMouseEvent@23@@Z 0040fe40 f i godComplexApp.obj
 0001:0000ee50       ?getWindowPos@App@app@cinder@@UBE?AV?$Vec2@H@3@XZ 0040fe50 f i cinder:App.obj
 0001:0000ee70       ??R?$_Function_impl1@_NVFileDropEvent@app@cinder@@@tr1@std@@QBE_NVFileDropEvent@app@cinder@@@Z 0040fe70 f i cinder:App.obj
 0001:0000ef30       ??_EFileDropEvent@app@cinder@@UAEPAXI@Z 0040ff30 f i cinder:App.obj
 0001:0000ef30       ??_GFileDropEvent@app@cinder@@UAEPAXI@Z 0040ff30 f i cinder:App.obj
 0001:0000ef90       ??0App@app@cinder@@QAE@XZ  0040ff90 f   cinder:App.obj
 0001:0000f0c0       ??_GApp@app@cinder@@UAEPAXI@Z 004100c0 f i cinder:App.obj
 0001:0000f0c0       ??_EApp@app@cinder@@UAEPAXI@Z 004100c0 f i cinder:App.obj
 0001:0000f0f0       ?privateFileDrop__@App@app@cinder@@QAEXABVFileDropEvent@23@@Z 004100f0 f   cinder:App.obj
 0001:0000f1f0       ??0Exception@cinder@@QAE@ABV01@@Z 004101f0 f i cinder:App.obj
 0001:0000f210       ?compare@?$char_traits@D@std@@SAHPBD0I@Z 00410210 f i cinder:gl.obj
 0001:0000f290       ?clear@gl@cinder@@YAXABV?$ColorAT@M@2@_N@Z 00410290 f   cinder:gl.obj
 0001:0000f2f0       ?setMatrices@gl@cinder@@YAXABVCamera@2@@Z 004102f0 f   cinder:gl.obj
 0001:0000f330       ?pushMatrices@gl@cinder@@YAXXZ 00410330 f   cinder:gl.obj
 0001:0000f360       ?popMatrices@gl@cinder@@YAXXZ 00410360 f   cinder:gl.obj
 0001:0000f390       ?setMatricesWindow@gl@cinder@@YAXHH_N@Z 00410390 f   cinder:gl.obj
 0001:0000f410       ?setViewport@gl@cinder@@YAXABV?$AreaT@H@2@@Z 00410410 f   cinder:gl.obj
 0001:0000f440       ?translate@gl@cinder@@YAXABV?$Vec2@M@2@@Z 00410440 f   cinder:gl.obj
 0001:0000f470       ?translate@gl@cinder@@YAXABV?$Vec3@M@2@@Z 00410470 f   cinder:gl.obj
 0001:0000f4a0       ?scale@gl@cinder@@YAXABV?$Vec3@M@2@@Z 004104a0 f   cinder:gl.obj
 0001:0000f4d0       ?rotate@gl@cinder@@YAXABV?$Vec3@M@2@@Z 004104d0 f   cinder:gl.obj
 0001:0000f540       ?enableAlphaBlending@gl@cinder@@YAX_N@Z 00410540 f   cinder:gl.obj
 0001:0000f570       ?disableAlphaBlending@gl@cinder@@YAXXZ 00410570 f   cinder:gl.obj
 0001:0000f580       ?enableWireframe@gl@cinder@@YAXXZ 00410580 f   cinder:gl.obj
 0001:0000f5a0       ?disableWireframe@gl@cinder@@YAXXZ 004105a0 f   cinder:gl.obj
 0001:0000f5c0       ?enableDepthRead@gl@cinder@@YAX_N@Z 004105c0 f   cinder:gl.obj
 0001:0000f5e0       ?enableDepthWrite@gl@cinder@@YAX_N@Z 004105e0 f   cinder:gl.obj
 0001:0000f600       ??1SaveTextureBindState@gl@cinder@@QAE@XZ 00410600 f   cinder:gl.obj
 0001:0000f610       ??1BoolState@gl@cinder@@QAE@XZ 00410610 f   cinder:gl.obj
 0001:0000f630       ??1ClientBoolState@gl@cinder@@QAE@XZ 00410630 f   cinder:gl.obj
 0001:0000f650       ??0SaveFramebufferBinding@gl@cinder@@QAE@XZ 00410650 f   cinder:gl.obj
 0001:0000f670       ??1SaveFramebufferBinding@gl@cinder@@QAE@XZ 00410670 f   cinder:gl.obj
 0001:0000f680       ??E?$_Tree_unchecked_const_iterator@V?$_Tree_val@V?$_Tmap_traits@V?$basic_string@DU?$char_traits@D@std@@V?$allocator@D@2@@std@@PBU_GUID@@U?$less@V?$basic_string@DU?$char_traits@D@std@@V?$allocator@D@2@@std@@@2@V?$allocator@U?$pair@$$CBV?$basic_string@DU?$char_traits@D@std@@V?$allocator@D@2@@std@@PBU_GUID@@@std@@@2@$0A@@std@@@std@@U_Iterator_base0@2@@std@@QAEAAV01@XZ 00410680 f i cinder:ImageTargetFileWic.obj
 0001:0000f680       ??E?$_Tree_unchecked_const_iterator@V?$_Tree_val@V?$_Tmap_traits@V?$basic_string@DU?$char_traits@D@std@@V?$allocator@D@2@@std@@_NU?$less@V?$basic_string@DU?$char_traits@D@std@@V?$allocator@D@2@@std@@@2@V?$allocator@U?$pair@$$CBV?$basic_string@DU?$char_traits@D@std@@V?$allocator@D@2@@std@@_N@std@@@2@$0A@@std@@@std@@U_Iterator_base0@2@@std@@QAEAAV01@XZ 00410680 f i cinder:gl.obj
 0001:0000f680       ??E?$_Tree_unchecked_const_iterator@V?$_Tree_val@V?$_Tmap_traits@V?$basic_string@DU?$char_traits@D@std@@V?$allocator@D@2@@std@@HU?$less@V?$basic_string@DU?$char_traits@D@std@@V?$allocator@D@2@@std@@@2@V?$allocator@U?$pair@$$CBV?$basic_string@DU?$char_traits@D@std@@V?$allocator@D@2@@std@@H@std@@@2@$0A@@std@@@std@@U_Iterator_base0@2@@std@@QAEAAV01@XZ 00410680 f i cinder:GlslProg.obj
 0001:0000f6d0       ??F?$_Tree_unchecked_const_iterator@V?$_Tree_val@V?$_Tmap_traits@V?$basic_string@DU?$char_traits@D@std@@V?$allocator@D@2@@std@@_NU?$less@V?$basic_string@DU?$char_traits@D@std@@V?$allocator@D@2@@std@@@2@V?$allocator@U?$pair@$$CBV?$basic_string@DU?$char_traits@D@std@@V?$allocator@D@2@@std@@_N@std@@@2@$0A@@std@@@std@@U_Iterator_base0@2@@std@@QAEAAV01@XZ 004106d0 f i cinder:gl.obj
 0001:0000f6d0       ??F?$_Tree_unchecked_const_iterator@V?$_Tree_val@V?$_Tmap_traits@V?$basic_string@DU?$char_traits@D@std@@V?$allocator@D@2@@std@@PBU_GUID@@U?$less@V?$basic_string@DU?$char_traits@D@std@@V?$allocator@D@2@@std@@@2@V?$allocator@U?$pair@$$CBV?$basic_string@DU?$char_traits@D@std@@V?$allocator@D@2@@std@@PBU_GUID@@@std@@@2@$0A@@std@@@std@@U_Iterator_base0@2@@std@@QAEAAV01@XZ 004106d0 f i cinder:ImageTargetFileWic.obj
 0001:0000f6d0       ??F?$_Tree_unchecked_const_iterator@V?$_Tree_val@V?$_Tmap_traits@V?$basic_string@DU?$char_traits@D@std@@V?$allocator@D@2@@std@@HU?$less@V?$basic_string@DU?$char_traits@D@std@@V?$allocator@D@2@@std@@@2@V?$allocator@U?$pair@$$CBV?$basic_string@DU?$char_traits@D@std@@V?$allocator@D@2@@std@@H@std@@@2@$0A@@std@@@std@@U_Iterator_base0@2@@std@@QAEAAV01@XZ 004106d0 f i cinder:GlslProg.obj
 0001:0000f730       ?setMatricesWindowPersp@gl@cinder@@YAXHHMMM_N@Z 00410730 f   cinder:gl.obj
 0001:0000f7f0       ?drawSolidCircle@gl@cinder@@YAXABV?$Vec2@M@2@MH@Z 004107f0 f   cinder:gl.obj
 0001:0000f910       ?drawSolidRect@gl@cinder@@YAXABV?$RectT@M@2@_N@Z 00410910 f   cinder:gl.obj
 0001:0000fa70       ??1ResourceLoadExc@app@cinder@@UAE@XZ 00410a70 f i cinder:App.obj
 0001:0000fa70       ??1FboExceptionInvalidSpecification@gl@cinder@@UAE@XZ 00410a70 f i cinder:Fbo.obj
 0001:0000fa70       ??1ImageIoExceptionIllegalChannelOrder@cinder@@UAE@XZ 00410a70 f i cinder:ImageIo.obj
 0001:0000fa70       ??1ImageIoExceptionIllegalColorModel@cinder@@UAE@XZ 00410a70 f i cinder:ImageIo.obj
 0001:0000fa70       ??1ExceptionUnknownTarget@gl@cinder@@UAE@XZ 00410a70 f i cinder:gl.obj
 0001:0000fa70       ??1ImageIoExceptionIllegalDataType@cinder@@UAE@XZ 00410a70 f i cinder:ImageIo.obj
 0001:0000fa70       ??1StreamExc@cinder@@UAE@XZ 00410a70 f i cinder:DataSource.obj
 0001:0000fa70       ??1ImageIoExceptionFailedLoad@cinder@@UAE@XZ 00410a70 f i cinder:ImageIo.obj
 0001:0000fa80       ?compare@?$basic_string@DU?$char_traits@D@std@@V?$allocator@D@2@@std@@QBEHIIPBDI@Z 00410a80 f i cinder:gl.obj
 0001:0000faf0       ?drawVector@gl@cinder@@YAXABV?$Vec3@M@2@0MM@Z 00410af0 f   cinder:gl.obj
 0001:00010280       ??0SaveTextureBindState@gl@cinder@@QAE@H@Z 00411280 f   cinder:gl.obj
 0001:00010340       ??0Exception@gl@cinder@@QAE@ABV012@@Z 00411340 f i cinder:gl.obj
 0001:00010360       ??0ExceptionUnknownTarget@gl@cinder@@QAE@ABV012@@Z 00411360 f i cinder:gl.obj
 0001:00010380       ?draw@gl@cinder@@YAXABVVboMesh@12@@Z 00411380 f   cinder:gl.obj
 0001:00010400       ?draw@gl@cinder@@YAXABVTexture@12@ABV?$AreaT@H@2@ABV?$RectT@M@2@@Z 00411400 f   cinder:gl.obj
 0001:000105b0       ??R?$less@V?$basic_string@DU?$char_traits@D@std@@V?$allocator@D@2@@std@@@std@@QBE_NABV?$basic_string@DU?$char_traits@D@std@@V?$allocator@D@2@@1@0@Z 004115b0 f i cinder:gl.obj
 0001:000105e0       ?draw@gl@cinder@@YAXABVTexture@12@ABV?$RectT@M@2@@Z 004115e0 f   cinder:gl.obj
 0001:00010620       ??1Url@cinder@@QAE@XZ      00411620 f i cinder:DataSource.obj
 0001:00010620       ??1?$pair@$$CBV?$basic_string@DU?$char_traits@D@std@@V?$allocator@D@2@@std@@H@std@@QAE@XZ 00411620 f i cinder:GlslProg.obj
 0001:00010620       ??1?$pair@$$CBV?$basic_string@DU?$char_traits@D@std@@V?$allocator@D@2@@std@@_N@std@@QAE@XZ 00411620 f i cinder:gl.obj
 0001:00010620       ??1?$basic_string@DU?$char_traits@D@std@@V?$allocator@D@2@@std@@QAE@XZ 00411620 f i CloudController.obj
 0001:00010620       ??1?$pair@$$CBV?$basic_string@DU?$char_traits@D@std@@V?$allocator@D@2@@std@@PBU_GUID@@@std@@QAE@XZ 00411620 f i cinder:ImageTargetFileWic.obj
 0001:00010650       ?_Insert@?$_Tree@V?$_Tmap_traits@V?$basic_string@DU?$char_traits@D@std@@V?$allocator@D@2@@std@@PBU_GUID@@U?$less@V?$basic_string@DU?$char_traits@D@std@@V?$allocator@D@2@@std@@@2@V?$allocator@U?$pair@$$CBV?$basic_string@DU?$char_traits@D@std@@V?$allocator@D@2@@std@@PBU_GUID@@@std@@@2@$0A@@std@@@std@@QAE?AV?$_Tree_iterator@V?$_Tree_val@V?$_Tmap_traits@V?$basic_string@DU?$char_traits@D@std@@V?$allocator@D@2@@std@@PBU_GUID@@U?$less@V?$basic_string@DU?$char_traits@D@std@@V?$allocator@D@2@@std@@@2@V?$allocator@U?$pair@$$CBV?$basic_string@DU?$char_traits@D@std@@V?$allocator@D@2@@std@@PBU_GUID@@@std@@@2@$0A@@std@@@std@@@2@V?$_Tree_const_iterator@V?$_Tree_val@V?$_Tmap_traits@V?$basic_string@DU?$char_traits@D@std@@V?$allocator@D@2@@std@@PBU_GUID@@U?$less@V?$basic_string@DU?$char_traits@D@std@@V?$allocator@D@2@@std@@@2@V?$allocator@U?$pair@$$CBV?$basic_string@DU?$char_traits@D@std@@V?$allocator@D@2@@std@@PBU_GUID@@@std@@@2@$0A@@std@@@std@@@2@PAU_Node@?$_Tree_nod@V?$_Tmap_traits@V?$basic_string@DU?$char_traits@D@std@@V?$allocator@D@2@@std@@PBU_GUID@@U?$less@V?$basic_string@DU?$char_traits@D@std@@V?$allocator@D@2@@std@@@2@V?$allocator@U?$pair@$$CBV?$basic_string@DU?$char_traits@D@std@@V?$allocator@D@2@@std@@PBU_GUID@@@std@@@2@$0A@@std@@@2@@Z 00411650 f i cinder:ImageTargetFileWic.obj
 0001:00010650       ?_Insert@?$_Tree@V?$_Tmap_traits@V?$basic_string@DU?$char_traits@D@std@@V?$allocator@D@2@@std@@_NU?$less@V?$basic_string@DU?$char_traits@D@std@@V?$allocator@D@2@@std@@@2@V?$allocator@U?$pair@$$CBV?$basic_string@DU?$char_traits@D@std@@V?$allocator@D@2@@std@@_N@std@@@2@$0A@@std@@@std@@QAE?AV?$_Tree_iterator@V?$_Tree_val@V?$_Tmap_traits@V?$basic_string@DU?$char_traits@D@std@@V?$allocator@D@2@@std@@_NU?$less@V?$basic_string@DU?$char_traits@D@std@@V?$allocator@D@2@@std@@@2@V?$allocator@U?$pair@$$CBV?$basic_string@DU?$char_traits@D@std@@V?$allocator@D@2@@std@@_N@std@@@2@$0A@@std@@@std@@@2@V?$_Tree_const_iterator@V?$_Tree_val@V?$_Tmap_traits@V?$basic_string@DU?$char_traits@D@std@@V?$allocator@D@2@@std@@_NU?$less@V?$basic_string@DU?$char_traits@D@std@@V?$allocator@D@2@@std@@@2@V?$allocator@U?$pair@$$CBV?$basic_string@DU?$char_traits@D@std@@V?$allocator@D@2@@std@@_N@std@@@2@$0A@@std@@@std@@@2@PAU_Node@?$_Tree_nod@V?$_Tmap_traits@V?$basic_string@DU?$char_traits@D@std@@V?$allocator@D@2@@std@@_NU?$less@V?$basic_string@DU?$char_traits@D@std@@V?$allocator@D@2@@std@@@2@V?$allocator@U?$pair@$$CBV?$basic_string@DU?$char_traits@D@std@@V?$allocator@D@2@@std@@_N@std@@@2@$0A@@std@@@2@@Z 00411650 f i cinder:gl.obj
 0001:00010650       ?_Insert@?$_Tree@V?$_Tmap_traits@V?$basic_string@DU?$char_traits@D@std@@V?$allocator@D@2@@std@@HU?$less@V?$basic_string@DU?$char_traits@D@std@@V?$allocator@D@2@@std@@@2@V?$allocator@U?$pair@$$CBV?$basic_string@DU?$char_traits@D@std@@V?$allocator@D@2@@std@@H@std@@@2@$0A@@std@@@std@@QAE?AV?$_Tree_iterator@V?$_Tree_val@V?$_Tmap_traits@V?$basic_string@DU?$char_traits@D@std@@V?$allocator@D@2@@std@@HU?$less@V?$basic_string@DU?$char_traits@D@std@@V?$allocator@D@2@@std@@@2@V?$allocator@U?$pair@$$CBV?$basic_string@DU?$char_traits@D@std@@V?$allocator@D@2@@std@@H@std@@@2@$0A@@std@@@std@@@2@V?$_Tree_const_iterator@V?$_Tree_val@V?$_Tmap_traits@V?$basic_string@DU?$char_traits@D@std@@V?$allocator@D@2@@std@@HU?$less@V?$basic_string@DU?$char_traits@D@std@@V?$allocator@D@2@@std@@@2@V?$allocator@U?$pair@$$CBV?$basic_string@DU?$char_traits@D@std@@V?$allocator@D@2@@std@@H@std@@@2@$0A@@std@@@std@@@2@PAU_Node@?$_Tree_nod@V?$_Tmap_traits@V?$basic_string@DU?$char_traits@D@std@@V?$allocator@D@2@@std@@HU?$less@V?$basic_string@DU?$char_traits@D@std@@V?$allocator@D@2@@std@@@2@V?$allocator@U?$pair@$$CBV?$basic_string@DU?$char_traits@D@std@@V?$allocator@D@2@@std@@H@std@@@2@$0A@@std@@@2@@Z 00411650 f i cinder:GlslProg.obj
 0001:00010810       ??$_Buynode@U?$pair@$$CBV?$basic_string@DU?$char_traits@D@std@@V?$allocator@D@2@@std@@_N@std@@@?$_Tree_val@V?$_Tmap_traits@V?$basic_string@DU?$char_traits@D@std@@V?$allocator@D@2@@std@@_NU?$less@V?$basic_string@DU?$char_traits@D@std@@V?$allocator@D@2@@std@@@2@V?$allocator@U?$pair@$$CBV?$basic_string@DU?$char_traits@D@std@@V?$allocator@D@2@@std@@_N@std@@@2@$0A@@std@@@std@@QAEPAU_Node@?$_Tree_nod@V?$_Tmap_traits@V?$basic_string@DU?$char_traits@D@std@@V?$allocator@D@2@@std@@_NU?$less@V?$basic_string@DU?$char_traits@D@std@@V?$allocator@D@2@@std@@@2@V?$allocator@U?$pair@$$CBV?$basic_string@DU?$char_traits@D@std@@V?$allocator@D@2@@std@@_N@std@@@2@$0A@@std@@@1@$$QAU?$pair@$$CBV?$basic_string@DU?$char_traits@D@std@@V?$allocator@D@2@@std@@_N@1@@Z 00411810 f i cinder:gl.obj
 0001:000108f0       ??A?$map@V?$basic_string@DU?$char_traits@D@std@@V?$allocator@D@2@@std@@_NU?$less@V?$basic_string@DU?$char_traits@D@std@@V?$allocator@D@2@@std@@@2@V?$allocator@U?$pair@$$CBV?$basic_string@DU?$char_traits@D@std@@V?$allocator@D@2@@std@@_N@std@@@2@@std@@QAEAA_NABV?$basic_string@DU?$char_traits@D@std@@V?$allocator@D@2@@1@@Z 004118f0 f i cinder:gl.obj
 0001:000109d0       ?isExtensionAvailable@gl@cinder@@YA_NABV?$basic_string@DU?$char_traits@D@std@@V?$allocator@D@2@@std@@@Z 004119d0 f   cinder:gl.obj
 0001:00010bb0       ?seed@?$mersenne_twister_engine@I$0CA@$0CHA@$0BIN@$0BP@$0JJAILANP@$0L@$0PPPPPPPP@$06$0JNCMFGIA@$0P@$0OPMGAAAA@$0BC@$0GMAHIJGF@@random@boost@@QAEXABI@Z 00411bb0 f i cinder:Rand.obj
 0001:00010c10       ?set@?$AreaT@H@cinder@@QAEXHHHH@Z 00411c10 f i cinder:Area.obj
 0001:00010c50       ?clipBy@?$AreaT@H@cinder@@QAEXABV12@@Z 00411c50 f i cinder:Area.obj
 0001:00010cb0       ?getClipBy@?$AreaT@H@cinder@@QBE?AV12@ABV12@@Z 00411cb0 f i cinder:Area.obj
 0001:00010ce0       ??_Elogic_error@std@@UAEPAXI@Z 00411ce0 f i cinder:Area.obj
 0001:00010ce0       ??_Glogic_error@std@@UAEPAXI@Z 00411ce0 f i cinder:Area.obj
 0001:00010ce0       ??_Gfailure@ios_base@std@@UAEPAXI@Z 00411ce0 f i CloudController.obj
 0001:00010ce0       ??_Efailure@ios_base@std@@UAEPAXI@Z 00411ce0 f i  CIL library: CIL module
 0001:00010ce0       ??_GVboFailedUnmapExc@gl@cinder@@UAEPAXI@Z 00411ce0 f i cinder:VBO.obj
 0001:00010ce0       ??_GGlslProgCompileExc@gl@cinder@@UAEPAXI@Z 00411ce0 f i cinder:GlslProg.obj
 0001:00010ce0       ??_EGlslProgCompileExc@gl@cinder@@UAEPAXI@Z 00411ce0 f i cinder:GlslProg.obj
 0001:00010ce0       ??_Gsystem_error@std@@UAEPAXI@Z 00411ce0 f i CloudController.obj
 0001:00010ce0       ??_Esystem_error@std@@UAEPAXI@Z 00411ce0 f i  CIL library: CIL module
 0001:00010ce0       ??_GVboExc@gl@cinder@@UAEPAXI@Z 00411ce0 f i cinder:VBO.obj
 0001:00010ce0       ??_EVboFailedUnmapExc@gl@cinder@@UAEPAXI@Z 00411ce0 f i cinder:VBO.obj
 0001:00010ce0       ??_Gruntime_error@std@@UAEPAXI@Z 00411ce0 f i CloudController.obj
 0001:00010ce0       ??_EVboExc@gl@cinder@@UAEPAXI@Z 00411ce0 f i cinder:VBO.obj
 0001:00010ce0       ??_Eruntime_error@std@@UAEPAXI@Z 00411ce0 f i  CIL library: CIL module
 0001:00010d10       ??0logic_error@std@@QAE@ABV01@@Z 00411d10 f i cinder:Area.obj
 0001:00010d30       ?getSeconds@Timer@cinder@@QBENXZ 00411d30 f   cinder:Timer.obj
 0001:00010d70       ??0Timer@cinder@@QAE@_N@Z  00411d70 f   cinder:Timer.obj
 0001:00010dd0       ?hasAlpha@ImageIo@cinder@@UBE_NXZ 00411dd0 f i cinder:Surface.obj
 0001:00010de0       ??1ImageSource@cinder@@UAE@XZ 00411de0 f i cinder:Surface.obj
 0001:00010df0       ??_GImageSource@cinder@@UAEPAXI@Z 00411df0 f i cinder:Surface.obj
 0001:00010df0       ??_EImageSource@cinder@@UAEPAXI@Z 00411df0 f i cinder:Surface.obj
 0001:00010e20       ??1ImageTarget@cinder@@UAE@XZ 00411e20 f i cinder:Surface.obj
 0001:00010e30       ??_EImageTarget@cinder@@UAEPAXI@Z 00411e30 f i cinder:Surface.obj
 0001:00010e30       ??_G?$ImageTargetChannel@M@cinder@@UAEPAXI@Z 00411e30 f i cinder:Channel.obj
 0001:00010e30       ??_GImageTarget@cinder@@UAEPAXI@Z 00411e30 f i cinder:Surface.obj
 0001:00010e30       ??_E?$ImageTargetChannel@M@cinder@@UAEPAXI@Z 00411e30 f i cinder:Channel.obj
 0001:00010e60       ?_Delete_this@?$_Ref_count_del@MU?$checked_array_deleter@M@boost@@@tr1@std@@EAEXXZ 00411e60 f i cinder:Texture.obj
 0001:00010e60       ?_Delete_this@?$_Ref_count@UObj@GlslProg@gl@cinder@@@tr1@std@@EAEXXZ 00411e60 f i cinder:GlslProg.obj
 0001:00010e60       ?_Delete_this@?$_Ref_count@UObj@Fbo@gl@cinder@@@tr1@std@@EAEXXZ 00411e60 f i cinder:Fbo.obj
 0001:00010e60       ?_Delete_this@?$_Ref_count_del@UtagTOUCHINPUT@@U?$checked_array_deleter@UtagTOUCHINPUT@@@boost@@@tr1@std@@EAEXXZ 00411e60 f i cinder:AppImplMswBasic.obj
 0001:00010e60       ?_Delete_this@?$_Ref_count@UInst@ImageIoRegistrar@cinder@@@tr1@std@@EAEXXZ 00411e60 f i cinder:ImageIo.obj
 0001:00010e60       ?_Delete_this@?$_Ref_count@UObj@Vbo@gl@cinder@@@tr1@std@@EAEXXZ 00411e60 f i cinder:VBO.obj
 0001:00010e60       ?_Delete_this@?$_Ref_count_del@UIWICBitmapDecoder@@P6AXPAX@Z@tr1@std@@EAEXXZ 00411e60 f i cinder:ImageSourceFileWic.obj
 0001:00010e60       ?_Delete_this@?$_Ref_count@VRenderer@app@cinder@@@tr1@std@@EAEXXZ 00411e60 f i cinder:App.obj
 0001:00010e60       ?_Delete_this@?$_Ref_count@VDisplay@cinder@@@tr1@std@@EAEXXZ 00411e60 f i cinder:Display.obj
 0001:00010e60       ?_Delete_this@?$_Ref_count@V?$ImageTargetGLTexture@M@gl@cinder@@@tr1@std@@EAEXXZ 00411e60 f i cinder:Texture.obj
 0001:00010e60       ?_Delete_this@?$_Ref_count@V?$basic_dostream@DU?$char_traits@D@std@@@msw@cinder@@@tr1@std@@EAEXXZ 00411e60 f i cinder:App.obj
 0001:00010e60       ?_Delete_this@?$_Ref_count@UObj@Buffer@cinder@@@tr1@std@@EAEXXZ 00411e60 f i cinder:Buffer.obj
 0001:00010e60       ?_Delete_this@?$_Ref_count@V?$ImageTargetGLTexture@G@gl@cinder@@@tr1@std@@EAEXXZ 00411e60 f i cinder:Texture.obj
 0001:00010e60       ?_Delete_this@?$_Ref_count_del@UIWICBitmapFrameEncode@@P6AXPAX@Z@tr1@std@@EAEXXZ 00411e60 f i cinder:ImageTargetFileWic.obj
 0001:00010e60       ?_Delete_this@?$_Ref_count_del@VComOStream@msw@cinder@@P6AXPAX@Z@tr1@std@@EAEXXZ 00411e60 f i cinder:ImageTargetFileWic.obj
 0001:00010e60       ?_Delete_this@?$_Ref_count@UObj@Texture@gl@cinder@@@tr1@std@@EAEXXZ 00411e60 f i cinder:Texture.obj
 0001:00010e60       ?_Delete_this@?$_Ref_count@VImageTargetFileWic@cinder@@@tr1@std@@EAEXXZ 00411e60 f i cinder:ImageTargetFileWic.obj
 0001:00010e60       ?_Delete_this@?$_Ref_count@VTimeline@cinder@@@tr1@std@@EAEXXZ 00411e60 f i cinder:App.obj
 0001:00010e60       ?_Delete_this@?$_Ref_count@V?$ImageTargetChannel@M@cinder@@@tr1@std@@EAEXXZ 00411e60 f i cinder:Channel.obj
 0001:00010e60       ?_Delete_this@?$_Ref_count@UObj@?$ChannelT@E@cinder@@@tr1@std@@EAEXXZ 00411e60 f i cinder:Channel.obj
 0001:00010e60       ?_Delete_this@?$_Ref_count_del@UIWICImagingFactory@@P6AXPAX@Z@tr1@std@@EAEXXZ 00411e60 f i cinder:ImageSourceFileWic.obj
 0001:00010e60       ?_Delete_this@?$_Ref_count_del@DU?$checked_array_deleter@D@boost@@@tr1@std@@EAEXXZ 00411e60 f i cinder:GlslProg.obj
 0001:00010e60       ?_Delete_this@?$_Ref_count@UObj@?$SurfaceT@M@cinder@@@tr1@std@@EAEXXZ 00411e60 f i cinder:Surface.obj
 0001:00010e60       ?_Delete_this@?$_Ref_count@UObj@?$SurfaceT@E@cinder@@@tr1@std@@EAEXXZ 00411e60 f i cinder:Surface.obj
 0001:00010e60       ?_Delete_this@?$_Ref_count@UObj@?$ChannelT@M@cinder@@@tr1@std@@EAEXXZ 00411e60 f i cinder:Channel.obj
 0001:00010e60       ?_Delete_this@?$_Ref_count@VIStreamMem@cinder@@@tr1@std@@EAEXXZ 00411e60 f i cinder:Stream.obj
 0001:00010e60       ?_Delete_this@?$_Ref_count@VImageSourceFileWic@cinder@@@tr1@std@@EAEXXZ 00411e60 f i cinder:ImageSourceFileWic.obj
 0001:00010e60       ?_Delete_this@?$_Ref_count_del@UIWICStream@@P6AXPAX@Z@tr1@std@@EAEXXZ 00411e60 f i cinder:ImageSourceFileWic.obj
 0001:00010e60       ?_Delete_this@?$_Ref_count_del@UIWICBitmapFrameDecode@@P6AXPAX@Z@tr1@std@@EAEXXZ 00411e60 f i cinder:ImageSourceFileWic.obj
 0001:00010e60       ?_Delete_this@?$_Ref_count@V?$map@V?$basic_string@DU?$char_traits@D@std@@V?$allocator@D@2@@std@@PBU_GUID@@U?$less@V?$basic_string@DU?$char_traits@D@std@@V?$allocator@D@2@@std@@@2@V?$allocator@U?$pair@$$CBV?$basic_string@DU?$char_traits@D@std@@V?$allocator@D@2@@std@@PBU_GUID@@@std@@@2@@std@@@tr1@std@@EAEXXZ 00411e60 f i cinder:ImageTargetFileWic.obj
 0001:00010e60       ?_Delete_this@?$_Ref_count@UObj@VboMesh@gl@cinder@@@tr1@std@@EAEXXZ 00411e60 f i cinder:VBO.obj
 0001:00010e60       ?_Delete_this@?$_Ref_count_del@UIWICBitmapEncoder@@P6AXPAX@Z@tr1@std@@EAEXXZ 00411e60 f i cinder:ImageTargetFileWic.obj
 0001:00010e60       ?_Delete_this@?$_Ref_count@UObj@Renderbuffer@gl@cinder@@@tr1@std@@EAEXXZ 00411e60 f i cinder:Fbo.obj
 0001:00010e60       ?_Delete_this@?$_Ref_count_del@EP6AXPAE@Z@tr1@std@@EAEXXZ 00411e60 f i cinder:Texture.obj
 0001:00010e60       ?_Delete_this@?$_Ref_count@V?$ImageTargetGLTexture@E@gl@cinder@@@tr1@std@@EAEXXZ 00411e60 f i cinder:Texture.obj
 0001:00010e60       ?_Delete_this@?$_Ref_count@VDataSourceBuffer@cinder@@@tr1@std@@EAEXXZ 00411e60 f i cinder:DataSource.obj
 0001:00010e60       ?_Delete_this@?$_Ref_count_del@UIWICFormatConverter@@P6AXPAX@Z@tr1@std@@EAEXXZ 00411e60 f i cinder:ImageSourceFileWic.obj
 0001:00010e70       ??0SurfaceChannelOrder@cinder@@QAE@H@Z 00411e70 f   cinder:Surface.obj
 0001:00010f70       ??_GObj@?$SurfaceT@E@cinder@@QAEPAXI@Z 00411f70 f i cinder:Surface.obj
 0001:00010f70       ??_GObj@?$SurfaceT@M@cinder@@QAEPAXI@Z 00411f70 f i cinder:Surface.obj
 0001:00011000       ?_Destroy@?$_Ref_count@UObj@?$SurfaceT@E@cinder@@@tr1@std@@EAEXXZ 00412000 f i cinder:Surface.obj
 0001:00011000       ?_Destroy@?$_Ref_count@UObj@?$SurfaceT@M@cinder@@@tr1@std@@EAEXXZ 00412000 f i cinder:Surface.obj
 0001:00011090       ??$_Resetp@UObj@?$SurfaceT@E@cinder@@@?$shared_ptr@UObj@?$SurfaceT@E@cinder@@@tr1@std@@AAEXPAUObj@?$SurfaceT@E@cinder@@@Z 00412090 f i cinder:Surface.obj
 0001:00011130       ??$_Resetp@UObj@?$SurfaceT@M@cinder@@@?$shared_ptr@UObj@?$SurfaceT@M@cinder@@@tr1@std@@AAEXPAUObj@?$SurfaceT@M@cinder@@@Z 00412130 f i cinder:Surface.obj
 0001:000111d0       ?initChannels@Obj@?$SurfaceT@E@cinder@@QAEXXZ 004121d0 f i cinder:Surface.obj
 0001:000113c0       ?initChannels@Obj@?$SurfaceT@M@cinder@@QAEXXZ 004123c0 f i cinder:Surface.obj
 0001:000115b0       ??0Obj@?$SurfaceT@E@cinder@@QAE@HHVSurfaceChannelOrder@2@PAE_NH@Z 004125b0 f i cinder:Surface.obj
 0001:00011670       ??0Obj@?$SurfaceT@M@cinder@@QAE@HHVSurfaceChannelOrder@2@PAM_NH@Z 00412670 f i cinder:Surface.obj
 0001:00011730       ??0?$SurfaceT@E@cinder@@QAE@HH_NVSurfaceChannelOrder@1@@Z 00412730 f i cinder:Surface.obj
 0001:000118a0       ??0?$SurfaceT@M@cinder@@QAE@HH_NVSurfaceChannelOrder@1@@Z 004128a0 f i cinder:Surface.obj
 0001:00011a30       ??0ImageIo@cinder@@IAE@XZ  00412a30 f   cinder:ImageIo.obj
 0001:00011a50       ?channelOrderHasAlpha@ImageIo@cinder@@SA_NW4ChannelOrder@12@@Z 00412a50 f   cinder:ImageIo.obj
 0001:00011a70       ?dataTypeBytes@ImageIo@cinder@@SAEW4DataType@12@@Z 00412a70 f   cinder:ImageIo.obj
 0001:00011aa0       ?isPremultiplied@ImageSource@cinder@@QBE_NXZ 00412aa0 f   cinder:ImageIo.obj
 0001:00011ab0       ??_EImageIoExceptionIllegalColorModel@cinder@@UAEPAXI@Z 00412ab0 f i cinder:ImageIo.obj
 0001:00011ab0       ??_GExceptionUnknownTarget@gl@cinder@@UAEPAXI@Z 00412ab0 f i cinder:gl.obj
 0001:00011ab0       ??_EException@cinder@@UAEPAXI@Z 00412ab0 f i cinder:App.obj
 0001:00011ab0       ??_EFboExceptionInvalidSpecification@gl@cinder@@UAEPAXI@Z 00412ab0 f i cinder:Fbo.obj
 0001:00011ab0       ??_GFboException@gl@cinder@@UAEPAXI@Z 00412ab0 f i cinder:Fbo.obj
 0001:00011ab0       ??_GException@cinder@@UAEPAXI@Z 00412ab0 f i cinder:App.obj
 0001:00011ab0       ??_GImageIoExceptionIllegalChannelOrder@cinder@@UAEPAXI@Z 00412ab0 f i cinder:ImageIo.obj
 0001:00011ab0       ??_GFboExceptionInvalidSpecification@gl@cinder@@UAEPAXI@Z 00412ab0 f i cinder:Fbo.obj
 0001:00011ab0       ??_EExceptionUnknownTarget@gl@cinder@@UAEPAXI@Z 00412ab0 f i cinder:gl.obj
 0001:00011ab0       ??_EResourceLoadExc@app@cinder@@UAEPAXI@Z 00412ab0 f i cinder:App.obj
 0001:00011ab0       ??_GImageIoExceptionFailedLoad@cinder@@UAEPAXI@Z 00412ab0 f i cinder:ImageIo.obj
 0001:00011ab0       ??_EStreamExc@cinder@@UAEPAXI@Z 00412ab0 f i cinder:DataSource.obj
 0001:00011ab0       ??_EException@gl@cinder@@UAEPAXI@Z 00412ab0 f i cinder:gl.obj
 0001:00011ab0       ??_EImageIoException@cinder@@UAEPAXI@Z 00412ab0 f i cinder:ImageIo.obj
 0001:00011ab0       ??_GImageIoExceptionIllegalColorModel@cinder@@UAEPAXI@Z 00412ab0 f i cinder:ImageIo.obj
 0001:00011ab0       ??_GException@gl@cinder@@UAEPAXI@Z 00412ab0 f i cinder:gl.obj
 0001:00011ab0       ??_EImageIoExceptionFailedLoad@cinder@@UAEPAXI@Z 00412ab0 f i cinder:ImageIo.obj
 0001:00011ab0       ??_EImageIoExceptionIllegalChannelOrder@cinder@@UAEPAXI@Z 00412ab0 f i cinder:ImageIo.obj
 0001:00011ab0       ??_EFboException@gl@cinder@@UAEPAXI@Z 00412ab0 f i cinder:Fbo.obj
 0001:00011ab0       ??_GImageIoExceptionIllegalDataType@cinder@@UAEPAXI@Z 00412ab0 f i cinder:ImageIo.obj
 0001:00011ab0       ??_GStreamExc@cinder@@UAEPAXI@Z 00412ab0 f i cinder:DataSource.obj
 0001:00011ab0       ??_GImageIoException@cinder@@UAEPAXI@Z 00412ab0 f i cinder:ImageIo.obj
 0001:00011ab0       ??_EImageIoExceptionIllegalDataType@cinder@@UAEPAXI@Z 00412ab0 f i cinder:ImageIo.obj
 0001:00011ab0       ??_GResourceLoadExc@app@cinder@@UAEPAXI@Z 00412ab0 f i cinder:App.obj
 0001:00011ae0       ?_Min@?$_Tree_val@V?$_Tmap_traits@V?$basic_string@DU?$char_traits@D@std@@V?$allocator@D@2@@std@@V?$multimap@HU?$pair@P6A?AV?$shared_ptr@VImageTarget@cinder@@@tr1@std@@V?$shared_ptr@VDataTarget@cinder@@@23@V?$shared_ptr@VImageSource@cinder@@@23@VOptions@ImageTarget@cinder@@ABV?$basic_string@DU?$char_traits@D@std@@V?$allocator@D@2@@3@@ZV93@@std@@U?$less@H@2@V?$allocator@U?$pair@$$CBHU?$pair@P6A?AV?$shared_ptr@VImageTarget@cinder@@@tr1@std@@V?$shared_ptr@VDataTarget@cinder@@@23@V?$shared_ptr@VImageSource@cinder@@@23@VOptions@ImageTarget@cinder@@ABV?$basic_string@DU?$char_traits@D@std@@V?$allocator@D@2@@3@@ZV93@@std@@@std@@@2@@2@U?$less@V?$basic_string@DU?$char_traits@D@std@@V?$allocator@D@2@@std@@@2@V?$allocator@U?$pair@$$CBV?$basic_string@DU?$char_traits@D@std@@V?$allocator@D@2@@std@@V?$multimap@HU?$pair@P6A?AV?$shared_ptr@VImageTarget@cinder@@@tr1@std@@V?$shared_ptr@VDataTarget@cinder@@@23@V?$shared_ptr@VImageSource@cinder@@@23@VOptions@ImageTarget@cinder@@ABV?$basic_string@DU?$char_traits@D@std@@V?$allocator@D@2@@3@@ZV93@@std@@U?$less@H@2@V?$allocator@U?$pair@$$CBHU?$pair@P6A?AV?$shared_ptr@VImageTarget@cinder@@@tr1@std@@V?$shared_ptr@VDataTarget@cinder@@@23@V?$shared_ptr@VImageSource@cinder@@@23@VOptions@ImageTarget@cinder@@ABV?$basic_string@DU?$char_traits@D@std@@V?$allocator@D@2@@3@@ZV93@@std@@@std@@@2@@2@@std@@@2@$0A@@std@@@std@@SAPAU_Node@?$_Tree_nod@V?$_Tmap_traits@V?$basic_string@DU?$char_traits@D@std@@V?$allocator@D@2@@std@@V?$multimap@HU?$pair@P6A?AV?$shared_ptr@VImageTarget@cinder@@@tr1@std@@V?$shared_ptr@VDataTarget@cinder@@@23@V?$shared_ptr@VImageSource@cinder@@@23@VOptions@ImageTarget@cinder@@ABV?$basic_string@DU?$char_traits@D@std@@V?$allocator@D@2@@3@@ZV93@@std@@U?$less@H@2@V?$allocator@U?$pair@$$CBHU?$pair@P6A?AV?$shared_ptr@VImageTarget@cinder@@@tr1@std@@V?$shared_ptr@VDataTarget@cinder@@@23@V?$shared_ptr@VImageSource@cinder@@@23@VOptions@ImageTarget@cinder@@ABV?$basic_string@DU?$char_traits@D@std@@V?$allocator@D@2@@3@@ZV93@@std@@@std@@@2@@2@U?$less@V?$basic_string@DU?$char_traits@D@std@@V?$allocator@D@2@@std@@@2@V?$allocator@U?$pair@$$CBV?$basic_string@DU?$char_traits@D@std@@V?$allocator@D@2@@std@@V?$multimap@HU?$pair@P6A?AV?$shared_ptr@VImageTarget@cinder@@@tr1@std@@V?$shared_ptr@VDataTarget@cinder@@@23@V?$shared_ptr@VImageSource@cinder@@@23@VOptions@ImageTarget@cinder@@ABV?$basic_string@DU?$char_traits@D@std@@V?$allocator@D@2@@3@@ZV93@@std@@U?$less@H@2@V?$allocator@U?$pair@$$CBHU?$pair@P6A?AV?$shared_ptr@VImageTarget@cinder@@@tr1@std@@V?$shared_ptr@VDataTarget@cinder@@@23@V?$shared_ptr@VImageSource@cinder@@@23@VOptions@ImageTarget@cinder@@ABV?$basic_string@DU?$char_traits@D@std@@V?$allocator@D@2@@3@@ZV93@@std@@@std@@@2@@2@@std@@@2@$0A@@std@@@2@PAU342@@Z 00412ae0 f i cinder:ImageIo.obj
 0001:00011ae0       ?_Min@?$_Tree_val@V?$_Tmap_traits@V?$basic_string@DU?$char_traits@D@std@@V?$allocator@D@2@@std@@V?$multimap@HP6A?AV?$shared_ptr@VImageSource@cinder@@@tr1@std@@V?$shared_ptr@VDataSource@cinder@@@23@VOptions@ImageSource@cinder@@@ZU?$less@H@3@V?$allocator@U?$pair@$$CBHP6A?AV?$shared_ptr@VImageSource@cinder@@@tr1@std@@V?$shared_ptr@VDataSource@cinder@@@23@VOptions@ImageSource@cinder@@@Z@std@@@3@@2@U?$less@V?$basic_string@DU?$char_traits@D@std@@V?$allocator@D@2@@std@@@2@V?$allocator@U?$pair@$$CBV?$basic_string@DU?$char_traits@D@std@@V?$allocator@D@2@@std@@V?$multimap@HP6A?AV?$shared_ptr@VImageSource@cinder@@@tr1@std@@V?$shared_ptr@VDataSource@cinder@@@23@VOptions@ImageSource@cinder@@@ZU?$less@H@3@V?$allocator@U?$pair@$$CBHP6A?AV?$shared_ptr@VImageSource@cinder@@@tr1@std@@V?$shared_ptr@VDataSource@cinder@@@23@VOptions@ImageSource@cinder@@@Z@std@@@3@@2@@std@@@2@$0A@@std@@@std@@SAPAU_Node@?$_Tree_nod@V?$_Tmap_traits@V?$basic_string@DU?$char_traits@D@std@@V?$allocator@D@2@@std@@V?$multimap@HP6A?AV?$shared_ptr@VImageSource@cinder@@@tr1@std@@V?$shared_ptr@VDataSource@cinder@@@23@VOptions@ImageSource@cinder@@@ZU?$less@H@3@V?$allocator@U?$pair@$$CBHP6A?AV?$shared_ptr@VImageSource@cinder@@@tr1@std@@V?$shared_ptr@VDataSource@cinder@@@23@VOptions@ImageSource@cinder@@@Z@std@@@3@@2@U?$less@V?$basic_string@DU?$char_traits@D@std@@V?$allocator@D@2@@std@@@2@V?$allocator@U?$pair@$$CBV?$basic_string@DU?$char_traits@D@std@@V?$allocator@D@2@@std@@V?$multimap@HP6A?AV?$shared_ptr@VImageSource@cinder@@@tr1@std@@V?$shared_ptr@VDataSource@cinder@@@23@VOptions@ImageSource@cinder@@@ZU?$less@H@3@V?$allocator@U?$pair@$$CBHP6A?AV?$shared_ptr@VImageSource@cinder@@@tr1@std@@V?$shared_ptr@VDataSource@cinder@@@23@VOptions@ImageSource@cinder@@@Z@std@@@3@@2@@std@@@2@$0A@@std@@@2@PAU342@@Z 00412ae0 f i cinder:ImageIo.obj
 0001:00011b00       ?_Min@?$_Tree_val@V?$_Tmap_traits@HP6A?AV?$shared_ptr@VImageSource@cinder@@@tr1@std@@V?$shared_ptr@VDataSource@cinder@@@23@VOptions@ImageSource@cinder@@@ZU?$less@H@3@V?$allocator@U?$pair@$$CBHP6A?AV?$shared_ptr@VImageSource@cinder@@@tr1@std@@V?$shared_ptr@VDataSource@cinder@@@23@VOptions@ImageSource@cinder@@@Z@std@@@3@$0A@@std@@@std@@SAPAU_Node@?$_Tree_nod@V?$_Tmap_traits@HP6A?AV?$shared_ptr@VImageSource@cinder@@@tr1@std@@V?$shared_ptr@VDataSource@cinder@@@23@VOptions@ImageSource@cinder@@@ZU?$less@H@3@V?$allocator@U?$pair@$$CBHP6A?AV?$shared_ptr@VImageSource@cinder@@@tr1@std@@V?$shared_ptr@VDataSource@cinder@@@23@VOptions@ImageSource@cinder@@@Z@std@@@3@$0A@@std@@@2@PAU342@@Z 00412b00 f i cinder:ImageIo.obj
 0001:00011b00       ?_Min@?$_Tree_val@V?$_Tmap_traits@HHU?$less@H@std@@V?$allocator@U?$pair@$$CBHH@std@@@2@$0A@@std@@@std@@SAPAU_Node@?$_Tree_nod@V?$_Tmap_traits@HHU?$less@H@std@@V?$allocator@U?$pair@$$CBHH@std@@@2@$0A@@std@@@2@PAU342@@Z 00412b00 f i cinder:ObjLoader.obj
 0001:00011b00       ?_Min@?$_Tree_val@V?$_Tmap_traits@HP6A?AV?$shared_ptr@VImageSource@cinder@@@tr1@std@@V?$shared_ptr@VDataSource@cinder@@@23@VOptions@ImageSource@cinder@@@ZU?$less@H@3@V?$allocator@U?$pair@$$CBHP6A?AV?$shared_ptr@VImageSource@cinder@@@tr1@std@@V?$shared_ptr@VDataSource@cinder@@@23@VOptions@ImageSource@cinder@@@Z@std@@@3@$00@std@@@std@@SAPAU_Node@?$_Tree_nod@V?$_Tmap_traits@HP6A?AV?$shared_ptr@VImageSource@cinder@@@tr1@std@@V?$shared_ptr@VDataSource@cinder@@@23@VOptions@ImageSource@cinder@@@ZU?$less@H@3@V?$allocator@U?$pair@$$CBHP6A?AV?$shared_ptr@VImageSource@cinder@@@tr1@std@@V?$shared_ptr@VDataSource@cinder@@@23@VOptions@ImageSource@cinder@@@Z@std@@@3@$00@std@@@2@PAU342@@Z 00412b00 f i cinder:ImageIo.obj
 0001:00011b20       ?_Rrotate@?$_Tree@V?$_Tmap_traits@HP6A?AV?$shared_ptr@VImageSource@cinder@@@tr1@std@@V?$shared_ptr@VDataSource@cinder@@@23@VOptions@ImageSource@cinder@@@ZU?$less@H@3@V?$allocator@U?$pair@$$CBHP6A?AV?$shared_ptr@VImageSource@cinder@@@tr1@std@@V?$shared_ptr@VDataSource@cinder@@@23@VOptions@ImageSource@cinder@@@Z@std@@@3@$00@std@@@std@@IAEXPAU_Node@?$_Tree_nod@V?$_Tmap_traits@HP6A?AV?$shared_ptr@VImageSource@cinder@@@tr1@std@@V?$shared_ptr@VDataSource@cinder@@@23@VOptions@ImageSource@cinder@@@ZU?$less@H@3@V?$allocator@U?$pair@$$CBHP6A?AV?$shared_ptr@VImageSource@cinder@@@tr1@std@@V?$shared_ptr@VDataSource@cinder@@@23@VOptions@ImageSource@cinder@@@Z@std@@@3@$00@std@@@2@@Z 00412b20 f i cinder:ImageIo.obj
 0001:00011b20       ?_Rrotate@?$_Tree@V?$_Tmap_traits@HHU?$less@H@std@@V?$allocator@U?$pair@$$CBHH@std@@@2@$0A@@std@@@std@@IAEXPAU_Node@?$_Tree_nod@V?$_Tmap_traits@HHU?$less@H@std@@V?$allocator@U?$pair@$$CBHH@std@@@2@$0A@@std@@@2@@Z 00412b20 f i cinder:ObjLoader.obj
 0001:00011b20       ?_Rrotate@?$_Tree@V?$_Tmap_traits@HP6A?AV?$shared_ptr@VImageSource@cinder@@@tr1@std@@V?$shared_ptr@VDataSource@cinder@@@23@VOptions@ImageSource@cinder@@@ZU?$less@H@3@V?$allocator@U?$pair@$$CBHP6A?AV?$shared_ptr@VImageSource@cinder@@@tr1@std@@V?$shared_ptr@VDataSource@cinder@@@23@VOptions@ImageSource@cinder@@@Z@std@@@3@$0A@@std@@@std@@IAEXPAU_Node@?$_Tree_nod@V?$_Tmap_traits@HP6A?AV?$shared_ptr@VImageSource@cinder@@@tr1@std@@V?$shared_ptr@VDataSource@cinder@@@23@VOptions@ImageSource@cinder@@@ZU?$less@H@3@V?$allocator@U?$pair@$$CBHP6A?AV?$shared_ptr@VImageSource@cinder@@@tr1@std@@V?$shared_ptr@VDataSource@cinder@@@23@VOptions@ImageSource@cinder@@@Z@std@@@3@$0A@@std@@@2@@Z 00412b20 f i cinder:ImageIo.obj
 0001:00011b80       ?_Lrotate@?$_Tree@V?$_Tmap_traits@V?$basic_string@DU?$char_traits@D@std@@V?$allocator@D@2@@std@@V?$multimap@HU?$pair@P6A?AV?$shared_ptr@VImageTarget@cinder@@@tr1@std@@V?$shared_ptr@VDataTarget@cinder@@@23@V?$shared_ptr@VImageSource@cinder@@@23@VOptions@ImageTarget@cinder@@ABV?$basic_string@DU?$char_traits@D@std@@V?$allocator@D@2@@3@@ZV93@@std@@U?$less@H@2@V?$allocator@U?$pair@$$CBHU?$pair@P6A?AV?$shared_ptr@VImageTarget@cinder@@@tr1@std@@V?$shared_ptr@VDataTarget@cinder@@@23@V?$shared_ptr@VImageSource@cinder@@@23@VOptions@ImageTarget@cinder@@ABV?$basic_string@DU?$char_traits@D@std@@V?$allocator@D@2@@3@@ZV93@@std@@@std@@@2@@2@U?$less@V?$basic_string@DU?$char_traits@D@std@@V?$allocator@D@2@@std@@@2@V?$allocator@U?$pair@$$CBV?$basic_string@DU?$char_traits@D@std@@V?$allocator@D@2@@std@@V?$multimap@HU?$pair@P6A?AV?$shared_ptr@VImageTarget@cinder@@@tr1@std@@V?$shared_ptr@VDataTarget@cinder@@@23@V?$shared_ptr@VImageSource@cinder@@@23@VOptions@ImageTarget@cinder@@ABV?$basic_string@DU?$char_traits@D@std@@V?$allocator@D@2@@3@@ZV93@@std@@U?$less@H@2@V?$allocator@U?$pair@$$CBHU?$pair@P6A?AV?$shared_ptr@VImageTarget@cinder@@@tr1@std@@V?$shared_ptr@VDataTarget@cinder@@@23@V?$shared_ptr@VImageSource@cinder@@@23@VOptions@ImageTarget@cinder@@ABV?$basic_string@DU?$char_traits@D@std@@V?$allocator@D@2@@3@@ZV93@@std@@@std@@@2@@2@@std@@@2@$0A@@std@@@std@@IAEXPAU_Node@?$_Tree_nod@V?$_Tmap_traits@V?$basic_string@DU?$char_traits@D@std@@V?$allocator@D@2@@std@@V?$multimap@HU?$pair@P6A?AV?$shared_ptr@VImageTarget@cinder@@@tr1@std@@V?$shared_ptr@VDataTarget@cinder@@@23@V?$shared_ptr@VImageSource@cinder@@@23@VOptions@ImageTarget@cinder@@ABV?$basic_string@DU?$char_traits@D@std@@V?$allocator@D@2@@3@@ZV93@@std@@U?$less@H@2@V?$allocator@U?$pair@$$CBHU?$pair@P6A?AV?$shared_ptr@VImageTarget@cinder@@@tr1@std@@V?$shared_ptr@VDataTarget@cinder@@@23@V?$shared_ptr@VImageSource@cinder@@@23@VOptions@ImageTarget@cinder@@ABV?$basic_string@DU?$char_traits@D@std@@V?$allocator@D@2@@3@@ZV93@@std@@@std@@@2@@2@U?$less@V?$basic_string@DU?$char_traits@D@std@@V?$allocator@D@2@@std@@@2@V?$allocator@U?$pair@$$CBV?$basic_string@DU?$char_traits@D@std@@V?$allocator@D@2@@std@@V?$multimap@HU?$pair@P6A?AV?$shared_ptr@VImageTarget@cinder@@@tr1@std@@V?$shared_ptr@VDataTarget@cinder@@@23@V?$shared_ptr@VImageSource@cinder@@@23@VOptions@ImageTarget@cinder@@ABV?$basic_string@DU?$char_traits@D@std@@V?$allocator@D@2@@3@@ZV93@@std@@U?$less@H@2@V?$allocator@U?$pair@$$CBHU?$pair@P6A?AV?$shared_ptr@VImageTarget@cinder@@@tr1@std@@V?$shared_ptr@VDataTarget@cinder@@@23@V?$shared_ptr@VImageSource@cinder@@@23@VOptions@ImageTarget@cinder@@ABV?$basic_string@DU?$char_traits@D@std@@V?$allocator@D@2@@3@@ZV93@@std@@@std@@@2@@2@@std@@@2@$0A@@std@@@2@@Z 00412b80 f i cinder:ImageIo.obj
 0001:00011b80       ?_Lrotate@?$_Tree@V?$_Tmap_traits@V?$basic_string@DU?$char_traits@D@std@@V?$allocator@D@2@@std@@V?$multimap@HP6A?AV?$shared_ptr@VImageSource@cinder@@@tr1@std@@V?$shared_ptr@VDataSource@cinder@@@23@VOptions@ImageSource@cinder@@@ZU?$less@H@3@V?$allocator@U?$pair@$$CBHP6A?AV?$shared_ptr@VImageSource@cinder@@@tr1@std@@V?$shared_ptr@VDataSource@cinder@@@23@VOptions@ImageSource@cinder@@@Z@std@@@3@@2@U?$less@V?$basic_string@DU?$char_traits@D@std@@V?$allocator@D@2@@std@@@2@V?$allocator@U?$pair@$$CBV?$basic_string@DU?$char_traits@D@std@@V?$allocator@D@2@@std@@V?$multimap@HP6A?AV?$shared_ptr@VImageSource@cinder@@@tr1@std@@V?$shared_ptr@VDataSource@cinder@@@23@VOptions@ImageSource@cinder@@@ZU?$less@H@3@V?$allocator@U?$pair@$$CBHP6A?AV?$shared_ptr@VImageSource@cinder@@@tr1@std@@V?$shared_ptr@VDataSource@cinder@@@23@VOptions@ImageSource@cinder@@@Z@std@@@3@@2@@std@@@2@$0A@@std@@@std@@IAEXPAU_Node@?$_Tree_nod@V?$_Tmap_traits@V?$basic_string@DU?$char_traits@D@std@@V?$allocator@D@2@@std@@V?$multimap@HP6A?AV?$shared_ptr@VImageSource@cinder@@@tr1@std@@V?$shared_ptr@VDataSource@cinder@@@23@VOptions@ImageSource@cinder@@@ZU?$less@H@3@V?$allocator@U?$pair@$$CBHP6A?AV?$shared_ptr@VImageSource@cinder@@@tr1@std@@V?$shared_ptr@VDataSource@cinder@@@23@VOptions@ImageSource@cinder@@@Z@std@@@3@@2@U?$less@V?$basic_string@DU?$char_traits@D@std@@V?$allocator@D@2@@std@@@2@V?$allocator@U?$pair@$$CBV?$basic_string@DU?$char_traits@D@std@@V?$allocator@D@2@@std@@V?$multimap@HP6A?AV?$shared_ptr@VImageSource@cinder@@@tr1@std@@V?$shared_ptr@VDataSource@cinder@@@23@VOptions@ImageSource@cinder@@@ZU?$less@H@3@V?$allocator@U?$pair@$$CBHP6A?AV?$shared_ptr@VImageSource@cinder@@@tr1@std@@V?$shared_ptr@VDataSource@cinder@@@23@VOptions@ImageSource@cinder@@@Z@std@@@3@@2@@std@@@2@$0A@@std@@@2@@Z 00412b80 f i cinder:ImageIo.obj
 0001:00011be0       ?_Rrotate@?$_Tree@V?$_Tmap_traits@V?$basic_string@DU?$char_traits@D@std@@V?$allocator@D@2@@std@@V?$multimap@HP6A?AV?$shared_ptr@VImageSource@cinder@@@tr1@std@@V?$shared_ptr@VDataSource@cinder@@@23@VOptions@ImageSource@cinder@@@ZU?$less@H@3@V?$allocator@U?$pair@$$CBHP6A?AV?$shared_ptr@VImageSource@cinder@@@tr1@std@@V?$shared_ptr@VDataSource@cinder@@@23@VOptions@ImageSource@cinder@@@Z@std@@@3@@2@U?$less@V?$basic_string@DU?$char_traits@D@std@@V?$allocator@D@2@@std@@@2@V?$allocator@U?$pair@$$CBV?$basic_string@DU?$char_traits@D@std@@V?$allocator@D@2@@std@@V?$multimap@HP6A?AV?$shared_ptr@VImageSource@cinder@@@tr1@std@@V?$shared_ptr@VDataSource@cinder@@@23@VOptions@ImageSource@cinder@@@ZU?$less@H@3@V?$allocator@U?$pair@$$CBHP6A?AV?$shared_ptr@VImageSource@cinder@@@tr1@std@@V?$shared_ptr@VDataSource@cinder@@@23@VOptions@ImageSource@cinder@@@Z@std@@@3@@2@@std@@@2@$0A@@std@@@std@@IAEXPAU_Node@?$_Tree_nod@V?$_Tmap_traits@V?$basic_string@DU?$char_traits@D@std@@V?$allocator@D@2@@std@@V?$multimap@HP6A?AV?$shared_ptr@VImageSource@cinder@@@tr1@std@@V?$shared_ptr@VDataSource@cinder@@@23@VOptions@ImageSource@cinder@@@ZU?$less@H@3@V?$allocator@U?$pair@$$CBHP6A?AV?$shared_ptr@VImageSource@cinder@@@tr1@std@@V?$shared_ptr@VDataSource@cinder@@@23@VOptions@ImageSource@cinder@@@Z@std@@@3@@2@U?$less@V?$basic_string@DU?$char_traits@D@std@@V?$allocator@D@2@@std@@@2@V?$allocator@U?$pair@$$CBV?$basic_string@DU?$char_traits@D@std@@V?$allocator@D@2@@std@@V?$multimap@HP6A?AV?$shared_ptr@VImageSource@cinder@@@tr1@std@@V?$shared_ptr@VDataSource@cinder@@@23@VOptions@ImageSource@cinder@@@ZU?$less@H@3@V?$allocator@U?$pair@$$CBHP6A?AV?$shared_ptr@VImageSource@cinder@@@tr1@std@@V?$shared_ptr@VDataSource@cinder@@@23@VOptions@ImageSource@cinder@@@Z@std@@@3@@2@@std@@@2@$0A@@std@@@2@@Z 00412be0 f i cinder:ImageIo.obj
 0001:00011be0       ?_Rrotate@?$_Tree@V?$_Tmap_traits@V?$basic_string@DU?$char_traits@D@std@@V?$allocator@D@2@@std@@V?$multimap@HU?$pair@P6A?AV?$shared_ptr@VImageTarget@cinder@@@tr1@std@@V?$shared_ptr@VDataTarget@cinder@@@23@V?$shared_ptr@VImageSource@cinder@@@23@VOptions@ImageTarget@cinder@@ABV?$basic_string@DU?$char_traits@D@std@@V?$allocator@D@2@@3@@ZV93@@std@@U?$less@H@2@V?$allocator@U?$pair@$$CBHU?$pair@P6A?AV?$shared_ptr@VImageTarget@cinder@@@tr1@std@@V?$shared_ptr@VDataTarget@cinder@@@23@V?$shared_ptr@VImageSource@cinder@@@23@VOptions@ImageTarget@cinder@@ABV?$basic_string@DU?$char_traits@D@std@@V?$allocator@D@2@@3@@ZV93@@std@@@std@@@2@@2@U?$less@V?$basic_string@DU?$char_traits@D@std@@V?$allocator@D@2@@std@@@2@V?$allocator@U?$pair@$$CBV?$basic_string@DU?$char_traits@D@std@@V?$allocator@D@2@@std@@V?$multimap@HU?$pair@P6A?AV?$shared_ptr@VImageTarget@cinder@@@tr1@std@@V?$shared_ptr@VDataTarget@cinder@@@23@V?$shared_ptr@VImageSource@cinder@@@23@VOptions@ImageTarget@cinder@@ABV?$basic_string@DU?$char_traits@D@std@@V?$allocator@D@2@@3@@ZV93@@std@@U?$less@H@2@V?$allocator@U?$pair@$$CBHU?$pair@P6A?AV?$shared_ptr@VImageTarget@cinder@@@tr1@std@@V?$shared_ptr@VDataTarget@cinder@@@23@V?$shared_ptr@VImageSource@cinder@@@23@VOptions@ImageTarget@cinder@@ABV?$basic_string@DU?$char_traits@D@std@@V?$allocator@D@2@@3@@ZV93@@std@@@std@@@2@@2@@std@@@2@$0A@@std@@@std@@IAEXPAU_Node@?$_Tree_nod@V?$_Tmap_traits@V?$basic_string@DU?$char_traits@D@std@@V?$allocator@D@2@@std@@V?$multimap@HU?$pair@P6A?AV?$shared_ptr@VImageTarget@cinder@@@tr1@std@@V?$shared_ptr@VDataTarget@cinder@@@23@V?$shared_ptr@VImageSource@cinder@@@23@VOptions@ImageTarget@cinder@@ABV?$basic_string@DU?$char_traits@D@std@@V?$allocator@D@2@@3@@ZV93@@std@@U?$less@H@2@V?$allocator@U?$pair@$$CBHU?$pair@P6A?AV?$shared_ptr@VImageTarget@cinder@@@tr1@std@@V?$shared_ptr@VDataTarget@cinder@@@23@V?$shared_ptr@VImageSource@cinder@@@23@VOptions@ImageTarget@cinder@@ABV?$basic_string@DU?$char_traits@D@std@@V?$allocator@D@2@@3@@ZV93@@std@@@std@@@2@@2@U?$less@V?$basic_string@DU?$char_traits@D@std@@V?$allocator@D@2@@std@@@2@V?$allocator@U?$pair@$$CBV?$basic_string@DU?$char_traits@D@std@@V?$allocator@D@2@@std@@V?$multimap@HU?$pair@P6A?AV?$shared_ptr@VImageTarget@cinder@@@tr1@std@@V?$shared_ptr@VDataTarget@cinder@@@23@V?$shared_ptr@VImageSource@cinder@@@23@VOptions@ImageTarget@cinder@@ABV?$basic_string@DU?$char_traits@D@std@@V?$allocator@D@2@@3@@ZV93@@std@@U?$less@H@2@V?$allocator@U?$pair@$$CBHU?$pair@P6A?AV?$shared_ptr@VImageTarget@cinder@@@tr1@std@@V?$shared_ptr@VDataTarget@cinder@@@23@V?$shared_ptr@VImageSource@cinder@@@23@VOptions@ImageTarget@cinder@@ABV?$basic_string@DU?$char_traits@D@std@@V?$allocator@D@2@@3@@ZV93@@std@@@std@@@2@@2@@std@@@2@$0A@@std@@@2@@Z 00412be0 f i cinder:ImageIo.obj
 0001:00011c40       ?_Max@?$_Tree_val@V?$_Tmap_traits@V?$basic_string@DU?$char_traits@D@std@@V?$allocator@D@2@@std@@V?$multimap@HP6A?AV?$shared_ptr@VImageSource@cinder@@@tr1@std@@V?$shared_ptr@VDataSource@cinder@@@23@VOptions@ImageSource@cinder@@@ZU?$less@H@3@V?$allocator@U?$pair@$$CBHP6A?AV?$shared_ptr@VImageSource@cinder@@@tr1@std@@V?$shared_ptr@VDataSource@cinder@@@23@VOptions@ImageSource@cinder@@@Z@std@@@3@@2@U?$less@V?$basic_string@DU?$char_traits@D@std@@V?$allocator@D@2@@std@@@2@V?$allocator@U?$pair@$$CBV?$basic_string@DU?$char_traits@D@std@@V?$allocator@D@2@@std@@V?$multimap@HP6A?AV?$shared_ptr@VImageSource@cinder@@@tr1@std@@V?$shared_ptr@VDataSource@cinder@@@23@VOptions@ImageSource@cinder@@@ZU?$less@H@3@V?$allocator@U?$pair@$$CBHP6A?AV?$shared_ptr@VImageSource@cinder@@@tr1@std@@V?$shared_ptr@VDataSource@cinder@@@23@VOptions@ImageSource@cinder@@@Z@std@@@3@@2@@std@@@2@$0A@@std@@@std@@SAPAU_Node@?$_Tree_nod@V?$_Tmap_traits@V?$basic_string@DU?$char_traits@D@std@@V?$allocator@D@2@@std@@V?$multimap@HP6A?AV?$shared_ptr@VImageSource@cinder@@@tr1@std@@V?$shared_ptr@VDataSource@cinder@@@23@VOptions@ImageSource@cinder@@@ZU?$less@H@3@V?$allocator@U?$pair@$$CBHP6A?AV?$shared_ptr@VImageSource@cinder@@@tr1@std@@V?$shared_ptr@VDataSource@cinder@@@23@VOptions@ImageSource@cinder@@@Z@std@@@3@@2@U?$less@V?$basic_string@DU?$char_traits@D@std@@V?$allocator@D@2@@std@@@2@V?$allocator@U?$pair@$$CBV?$basic_string@DU?$char_traits@D@std@@V?$allocator@D@2@@std@@V?$multimap@HP6A?AV?$shared_ptr@VImageSource@cinder@@@tr1@std@@V?$shared_ptr@VDataSource@cinder@@@23@VOptions@ImageSource@cinder@@@ZU?$less@H@3@V?$allocator@U?$pair@$$CBHP6A?AV?$shared_ptr@VImageSource@cinder@@@tr1@std@@V?$shared_ptr@VDataSource@cinder@@@23@VOptions@ImageSource@cinder@@@Z@std@@@3@@2@@std@@@2@$0A@@std@@@2@PAU342@@Z 00412c40 f i cinder:ImageIo.obj
 0001:00011c40       ?_Max@?$_Tree_val@V?$_Tmap_traits@V?$basic_string@DU?$char_traits@D@std@@V?$allocator@D@2@@std@@V?$multimap@HU?$pair@P6A?AV?$shared_ptr@VImageTarget@cinder@@@tr1@std@@V?$shared_ptr@VDataTarget@cinder@@@23@V?$shared_ptr@VImageSource@cinder@@@23@VOptions@ImageTarget@cinder@@ABV?$basic_string@DU?$char_traits@D@std@@V?$allocator@D@2@@3@@ZV93@@std@@U?$less@H@2@V?$allocator@U?$pair@$$CBHU?$pair@P6A?AV?$shared_ptr@VImageTarget@cinder@@@tr1@std@@V?$shared_ptr@VDataTarget@cinder@@@23@V?$shared_ptr@VImageSource@cinder@@@23@VOptions@ImageTarget@cinder@@ABV?$basic_string@DU?$char_traits@D@std@@V?$allocator@D@2@@3@@ZV93@@std@@@std@@@2@@2@U?$less@V?$basic_string@DU?$char_traits@D@std@@V?$allocator@D@2@@std@@@2@V?$allocator@U?$pair@$$CBV?$basic_string@DU?$char_traits@D@std@@V?$allocator@D@2@@std@@V?$multimap@HU?$pair@P6A?AV?$shared_ptr@VImageTarget@cinder@@@tr1@std@@V?$shared_ptr@VDataTarget@cinder@@@23@V?$shared_ptr@VImageSource@cinder@@@23@VOptions@ImageTarget@cinder@@ABV?$basic_string@DU?$char_traits@D@std@@V?$allocator@D@2@@3@@ZV93@@std@@U?$less@H@2@V?$allocator@U?$pair@$$CBHU?$pair@P6A?AV?$shared_ptr@VImageTarget@cinder@@@tr1@std@@V?$shared_ptr@VDataTarget@cinder@@@23@V?$shared_ptr@VImageSource@cinder@@@23@VOptions@ImageTarget@cinder@@ABV?$basic_string@DU?$char_traits@D@std@@V?$allocator@D@2@@3@@ZV93@@std@@@std@@@2@@2@@std@@@2@$0A@@std@@@std@@SAPAU_Node@?$_Tree_nod@V?$_Tmap_traits@V?$basic_string@DU?$char_traits@D@std@@V?$allocator@D@2@@std@@V?$multimap@HU?$pair@P6A?AV?$shared_ptr@VImageTarget@cinder@@@tr1@std@@V?$shared_ptr@VDataTarget@cinder@@@23@V?$shared_ptr@VImageSource@cinder@@@23@VOptions@ImageTarget@cinder@@ABV?$basic_string@DU?$char_traits@D@std@@V?$allocator@D@2@@3@@ZV93@@std@@U?$less@H@2@V?$allocator@U?$pair@$$CBHU?$pair@P6A?AV?$shared_ptr@VImageTarget@cinder@@@tr1@std@@V?$shared_ptr@VDataTarget@cinder@@@23@V?$shared_ptr@VImageSource@cinder@@@23@VOptions@ImageTarget@cinder@@ABV?$basic_string@DU?$char_traits@D@std@@V?$allocator@D@2@@3@@ZV93@@std@@@std@@@2@@2@U?$less@V?$basic_string@DU?$char_traits@D@std@@V?$allocator@D@2@@std@@@2@V?$allocator@U?$pair@$$CBV?$basic_string@DU?$char_traits@D@std@@V?$allocator@D@2@@std@@V?$multimap@HU?$pair@P6A?AV?$shared_ptr@VImageTarget@cinder@@@tr1@std@@V?$shared_ptr@VDataTarget@cinder@@@23@V?$shared_ptr@VImageSource@cinder@@@23@VOptions@ImageTarget@cinder@@ABV?$basic_string@DU?$char_traits@D@std@@V?$allocator@D@2@@3@@ZV93@@std@@U?$less@H@2@V?$allocator@U?$pair@$$CBHU?$pair@P6A?AV?$shared_ptr@VImageTarget@cinder@@@tr1@std@@V?$shared_ptr@VDataTarget@cinder@@@23@V?$shared_ptr@VImageSource@cinder@@@23@VOptions@ImageTarget@cinder@@ABV?$basic_string@DU?$char_traits@D@std@@V?$allocator@D@2@@3@@ZV93@@std@@@std@@@2@@2@@std@@@2@$0A@@std@@@2@PAU342@@Z 00412c40 f i cinder:ImageIo.obj
 0001:00011c60       ?_Rrotate@?$_Tree@V?$_Tmap_traits@HU?$pair@P6A?AV?$shared_ptr@VImageTarget@cinder@@@tr1@std@@V?$shared_ptr@VDataTarget@cinder@@@23@V?$shared_ptr@VImageSource@cinder@@@23@VOptions@ImageTarget@cinder@@ABV?$basic_string@DU?$char_traits@D@std@@V?$allocator@D@2@@3@@ZV93@@std@@U?$less@H@2@V?$allocator@U?$pair@$$CBHU?$pair@P6A?AV?$shared_ptr@VImageTarget@cinder@@@tr1@std@@V?$shared_ptr@VDataTarget@cinder@@@23@V?$shared_ptr@VImageSource@cinder@@@23@VOptions@ImageTarget@cinder@@ABV?$basic_string@DU?$char_traits@D@std@@V?$allocator@D@2@@3@@ZV93@@std@@@std@@@2@$00@std@@@std@@IAEXPAU_Node@?$_Tree_nod@V?$_Tmap_traits@HU?$pair@P6A?AV?$shared_ptr@VImageTarget@cinder@@@tr1@std@@V?$shared_ptr@VDataTarget@cinder@@@23@V?$shared_ptr@VImageSource@cinder@@@23@VOptions@ImageTarget@cinder@@ABV?$basic_string@DU?$char_traits@D@std@@V?$allocator@D@2@@3@@ZV93@@std@@U?$less@H@2@V?$allocator@U?$pair@$$CBHU?$pair@P6A?AV?$shared_ptr@VImageTarget@cinder@@@tr1@std@@V?$shared_ptr@VDataTarget@cinder@@@23@V?$shared_ptr@VImageSource@cinder@@@23@VOptions@ImageTarget@cinder@@ABV?$basic_string@DU?$char_traits@D@std@@V?$allocator@D@2@@3@@ZV93@@std@@@std@@@2@$00@std@@@2@@Z 00412c60 f i cinder:ImageIo.obj
 0001:00011cc0       ?_Max@?$_Tree_val@V?$_Tmap_traits@HU?$pair@P6A?AV?$shared_ptr@VImageTarget@cinder@@@tr1@std@@V?$shared_ptr@VDataTarget@cinder@@@23@V?$shared_ptr@VImageSource@cinder@@@23@VOptions@ImageTarget@cinder@@ABV?$basic_string@DU?$char_traits@D@std@@V?$allocator@D@2@@3@@ZV93@@std@@U?$less@H@2@V?$allocator@U?$pair@$$CBHU?$pair@P6A?AV?$shared_ptr@VImageTarget@cinder@@@tr1@std@@V?$shared_ptr@VDataTarget@cinder@@@23@V?$shared_ptr@VImageSource@cinder@@@23@VOptions@ImageTarget@cinder@@ABV?$basic_string@DU?$char_traits@D@std@@V?$allocator@D@2@@3@@ZV93@@std@@@std@@@2@$00@std@@@std@@SAPAU_Node@?$_Tree_nod@V?$_Tmap_traits@HU?$pair@P6A?AV?$shared_ptr@VImageTarget@cinder@@@tr1@std@@V?$shared_ptr@VDataTarget@cinder@@@23@V?$shared_ptr@VImageSource@cinder@@@23@VOptions@ImageTarget@cinder@@ABV?$basic_string@DU?$char_traits@D@std@@V?$allocator@D@2@@3@@ZV93@@std@@U?$less@H@2@V?$allocator@U?$pair@$$CBHU?$pair@P6A?AV?$shared_ptr@VImageTarget@cinder@@@tr1@std@@V?$shared_ptr@VDataTarget@cinder@@@23@V?$shared_ptr@VImageSource@cinder@@@23@VOptions@ImageTarget@cinder@@ABV?$basic_string@DU?$char_traits@D@std@@V?$allocator@D@2@@3@@ZV93@@std@@@std@@@2@$00@std@@@2@PAU342@@Z 00412cc0 f i cinder:ImageIo.obj
 0001:00011ce0       ?_Min@?$_Tree_val@V?$_Tmap_traits@HU?$pair@P6A?AV?$shared_ptr@VImageTarget@cinder@@@tr1@std@@V?$shared_ptr@VDataTarget@cinder@@@23@V?$shared_ptr@VImageSource@cinder@@@23@VOptions@ImageTarget@cinder@@ABV?$basic_string@DU?$char_traits@D@std@@V?$allocator@D@2@@3@@ZV93@@std@@U?$less@H@2@V?$allocator@U?$pair@$$CBHU?$pair@P6A?AV?$shared_ptr@VImageTarget@cinder@@@tr1@std@@V?$shared_ptr@VDataTarget@cinder@@@23@V?$shared_ptr@VImageSource@cinder@@@23@VOptions@ImageTarget@cinder@@ABV?$basic_string@DU?$char_traits@D@std@@V?$allocator@D@2@@3@@ZV93@@std@@@std@@@2@$00@std@@@std@@SAPAU_Node@?$_Tree_nod@V?$_Tmap_traits@HU?$pair@P6A?AV?$shared_ptr@VImageTarget@cinder@@@tr1@std@@V?$shared_ptr@VDataTarget@cinder@@@23@V?$shared_ptr@VImageSource@cinder@@@23@VOptions@ImageTarget@cinder@@ABV?$basic_string@DU?$char_traits@D@std@@V?$allocator@D@2@@3@@ZV93@@std@@U?$less@H@2@V?$allocator@U?$pair@$$CBHU?$pair@P6A?AV?$shared_ptr@VImageTarget@cinder@@@tr1@std@@V?$shared_ptr@VDataTarget@cinder@@@23@V?$shared_ptr@VImageSource@cinder@@@23@VOptions@ImageTarget@cinder@@ABV?$basic_string@DU?$char_traits@D@std@@V?$allocator@D@2@@3@@ZV93@@std@@@std@@@2@$00@std@@@2@PAU342@@Z 00412ce0 f i cinder:ImageIo.obj
 0001:00011d00       ??E?$_Tree_unchecked_const_iterator@V?$_Tree_val@V?$_Tmap_traits@HU?$pair@P6A?AV?$shared_ptr@VImageTarget@cinder@@@tr1@std@@V?$shared_ptr@VDataTarget@cinder@@@23@V?$shared_ptr@VImageSource@cinder@@@23@VOptions@ImageTarget@cinder@@ABV?$basic_string@DU?$char_traits@D@std@@V?$allocator@D@2@@3@@ZV93@@std@@U?$less@H@2@V?$allocator@U?$pair@$$CBHU?$pair@P6A?AV?$shared_ptr@VImageTarget@cinder@@@tr1@std@@V?$shared_ptr@VDataTarget@cinder@@@23@V?$shared_ptr@VImageSource@cinder@@@23@VOptions@ImageTarget@cinder@@ABV?$basic_string@DU?$char_traits@D@std@@V?$allocator@D@2@@3@@ZV93@@std@@@std@@@2@$00@std@@@std@@U_Iterator_base0@2@@std@@QAEAAV01@XZ 00412d00 f i cinder:ImageIo.obj
 0001:00011d50       ??F?$_Tree_unchecked_const_iterator@V?$_Tree_val@V?$_Tmap_traits@V?$basic_string@DU?$char_traits@D@std@@V?$allocator@D@2@@std@@V?$multimap@HU?$pair@P6A?AV?$shared_ptr@VImageTarget@cinder@@@tr1@std@@V?$shared_ptr@VDataTarget@cinder@@@23@V?$shared_ptr@VImageSource@cinder@@@23@VOptions@ImageTarget@cinder@@ABV?$basic_string@DU?$char_traits@D@std@@V?$allocator@D@2@@3@@ZV93@@std@@U?$less@H@2@V?$allocator@U?$pair@$$CBHU?$pair@P6A?AV?$shared_ptr@VImageTarget@cinder@@@tr1@std@@V?$shared_ptr@VDataTarget@cinder@@@23@V?$shared_ptr@VImageSource@cinder@@@23@VOptions@ImageTarget@cinder@@ABV?$basic_string@DU?$char_traits@D@std@@V?$allocator@D@2@@3@@ZV93@@std@@@std@@@2@@2@U?$less@V?$basic_string@DU?$char_traits@D@std@@V?$allocator@D@2@@std@@@2@V?$allocator@U?$pair@$$CBV?$basic_string@DU?$char_traits@D@std@@V?$allocator@D@2@@std@@V?$multimap@HU?$pair@P6A?AV?$shared_ptr@VImageTarget@cinder@@@tr1@std@@V?$shared_ptr@VDataTarget@cinder@@@23@V?$shared_ptr@VImageSource@cinder@@@23@VOptions@ImageTarget@cinder@@ABV?$basic_string@DU?$char_traits@D@std@@V?$allocator@D@2@@3@@ZV93@@std@@U?$less@H@2@V?$allocator@U?$pair@$$CBHU?$pair@P6A?AV?$shared_ptr@VImageTarget@cinder@@@tr1@std@@V?$shared_ptr@VDataTarget@cinder@@@23@V?$shared_ptr@VImageSource@cinder@@@23@VOptions@ImageTarget@cinder@@ABV?$basic_string@DU?$char_traits@D@std@@V?$allocator@D@2@@3@@ZV93@@std@@@std@@@2@@2@@std@@@2@$0A@@std@@@std@@U_Iterator_base0@2@@std@@QAEAAV01@XZ 00412d50 f i cinder:ImageIo.obj
 0001:00011db0       ??0ImageIoException@cinder@@QAE@ABV01@@Z 00412db0 f i cinder:ImageIo.obj
 0001:00011dd0       ?channelOrderNumChannels@ImageIo@cinder@@SACW4ChannelOrder@12@@Z 00412dd0 f   cinder:ImageIo.obj
 0001:00011e50       ??E?$_Tree_unchecked_const_iterator@V?$_Tree_val@V?$_Tmap_traits@V?$basic_string@DU?$char_traits@D@std@@V?$allocator@D@2@@std@@V?$multimap@HU?$pair@P6A?AV?$shared_ptr@VImageTarget@cinder@@@tr1@std@@V?$shared_ptr@VDataTarget@cinder@@@23@V?$shared_ptr@VImageSource@cinder@@@23@VOptions@ImageTarget@cinder@@ABV?$basic_string@DU?$char_traits@D@std@@V?$allocator@D@2@@3@@ZV93@@std@@U?$less@H@2@V?$allocator@U?$pair@$$CBHU?$pair@P6A?AV?$shared_ptr@VImageTarget@cinder@@@tr1@std@@V?$shared_ptr@VDataTarget@cinder@@@23@V?$shared_ptr@VImageSource@cinder@@@23@VOptions@ImageTarget@cinder@@ABV?$basic_string@DU?$char_traits@D@std@@V?$allocator@D@2@@3@@ZV93@@std@@@std@@@2@@2@U?$less@V?$basic_string@DU?$char_traits@D@std@@V?$allocator@D@2@@std@@@2@V?$allocator@U?$pair@$$CBV?$basic_string@DU?$char_traits@D@std@@V?$allocator@D@2@@std@@V?$multimap@HU?$pair@P6A?AV?$shared_ptr@VImageTarget@cinder@@@tr1@std@@V?$shared_ptr@VDataTarget@cinder@@@23@V?$shared_ptr@VImageSource@cinder@@@23@VOptions@ImageTarget@cinder@@ABV?$basic_string@DU?$char_traits@D@std@@V?$allocator@D@2@@3@@ZV93@@std@@U?$less@H@2@V?$allocator@U?$pair@$$CBHU?$pair@P6A?AV?$shared_ptr@VImageTarget@cinder@@@tr1@std@@V?$shared_ptr@VDataTarget@cinder@@@23@V?$shared_ptr@VImageSource@cinder@@@23@VOptions@ImageTarget@cinder@@ABV?$basic_string@DU?$char_traits@D@std@@V?$allocator@D@2@@3@@ZV93@@std@@@std@@@2@@2@@std@@@2@$0A@@std@@@std@@U_Iterator_base0@2@@std@@QAEAAV01@XZ 00412e50 f i cinder:ImageIo.obj
 0001:00011e50       ??E?$_Tree_unchecked_const_iterator@V?$_Tree_val@V?$_Tmap_traits@V?$basic_string@DU?$char_traits@D@std@@V?$allocator@D@2@@std@@V?$multimap@HP6A?AV?$shared_ptr@VImageSource@cinder@@@tr1@std@@V?$shared_ptr@VDataSource@cinder@@@23@VOptions@ImageSource@cinder@@@ZU?$less@H@3@V?$allocator@U?$pair@$$CBHP6A?AV?$shared_ptr@VImageSource@cinder@@@tr1@std@@V?$shared_ptr@VDataSource@cinder@@@23@VOptions@ImageSource@cinder@@@Z@std@@@3@@2@U?$less@V?$basic_string@DU?$char_traits@D@std@@V?$allocator@D@2@@std@@@2@V?$allocator@U?$pair@$$CBV?$basic_string@DU?$char_traits@D@std@@V?$allocator@D@2@@std@@V?$multimap@HP6A?AV?$shared_ptr@VImageSource@cinder@@@tr1@std@@V?$shared_ptr@VDataSource@cinder@@@23@VOptions@ImageSource@cinder@@@ZU?$less@H@3@V?$allocator@U?$pair@$$CBHP6A?AV?$shared_ptr@VImageSource@cinder@@@tr1@std@@V?$shared_ptr@VDataSource@cinder@@@23@VOptions@ImageSource@cinder@@@Z@std@@@3@@2@@std@@@2@$0A@@std@@@std@@U_Iterator_base0@2@@std@@QAEAAV01@XZ 00412e50 f i cinder:ImageIo.obj
 0001:00011ea0       ?_Lrotate@?$_Tree@V?$_Tmap_traits@HU?$pair@P6A?AV?$shared_ptr@VImageTarget@cinder@@@tr1@std@@V?$shared_ptr@VDataTarget@cinder@@@23@V?$shared_ptr@VImageSource@cinder@@@23@VOptions@ImageTarget@cinder@@ABV?$basic_string@DU?$char_traits@D@std@@V?$allocator@D@2@@3@@ZV93@@std@@U?$less@H@2@V?$allocator@U?$pair@$$CBHU?$pair@P6A?AV?$shared_ptr@VImageTarget@cinder@@@tr1@std@@V?$shared_ptr@VDataTarget@cinder@@@23@V?$shared_ptr@VImageSource@cinder@@@23@VOptions@ImageTarget@cinder@@ABV?$basic_string@DU?$char_traits@D@std@@V?$allocator@D@2@@3@@ZV93@@std@@@std@@@2@$00@std@@@std@@IAEXPAU_Node@?$_Tree_nod@V?$_Tmap_traits@HU?$pair@P6A?AV?$shared_ptr@VImageTarget@cinder@@@tr1@std@@V?$shared_ptr@VDataTarget@cinder@@@23@V?$shared_ptr@VImageSource@cinder@@@23@VOptions@ImageTarget@cinder@@ABV?$basic_string@DU?$char_traits@D@std@@V?$allocator@D@2@@3@@ZV93@@std@@U?$less@H@2@V?$allocator@U?$pair@$$CBHU?$pair@P6A?AV?$shared_ptr@VImageTarget@cinder@@@tr1@std@@V?$shared_ptr@VDataTarget@cinder@@@23@V?$shared_ptr@VImageSource@cinder@@@23@VOptions@ImageTarget@cinder@@ABV?$basic_string@DU?$char_traits@D@std@@V?$allocator@D@2@@3@@ZV93@@std@@@std@@@2@$00@std@@@2@@Z 00412ea0 f i cinder:ImageIo.obj
 0001:00011f00       ?translateRgbColorModelToOffsets@ImageIo@cinder@@SAXW4ChannelOrder@12@PAC1111@Z 00412f00 f   cinder:ImageIo.obj
 0001:000120c0       ??0ImageIoExceptionIllegalChannelOrder@cinder@@QAE@ABV01@@Z 004130c0 f i cinder:ImageIo.obj
 0001:000120e0       ??$_Transform@PADV?$_String_iterator@DU?$char_traits@D@std@@V?$allocator@D@2@@std@@P6AHH@Z@std@@YA?AV?$_String_iterator@DU?$char_traits@D@std@@V?$allocator@D@2@@0@PAD0V10@P6AHH@Z@Z 004130e0 f i cinder:ImageIo.obj
 0001:00012120       ??$rowFuncSourceRgb@EE$0A@$00@ImageSource@cinder@@IAEXV?$shared_ptr@VImageTarget@cinder@@@tr1@std@@HPBX@Z 00413120 f i cinder:ImageIo.obj
 0001:00012210       ??$rowFuncSourceRgb@EE$0A@$0A@@ImageSource@cinder@@IAEXV?$shared_ptr@VImageTarget@cinder@@@tr1@std@@HPBX@Z 00413210 f i cinder:ImageIo.obj
 0001:000122f0       ??$rowFuncSourceGray@EE$0A@$00@ImageSource@cinder@@IAEXV?$shared_ptr@VImageTarget@cinder@@@tr1@std@@HPBX@Z 004132f0 f i cinder:ImageIo.obj
 0001:000123d0       ??$rowFuncSourceGray@EE$0A@$0A@@ImageSource@cinder@@IAEXV?$shared_ptr@VImageTarget@cinder@@@tr1@std@@HPBX@Z 004133d0 f i cinder:ImageIo.obj
 0001:000124a0       ??$rowFuncSourceRgb@EE$00$00@ImageSource@cinder@@IAEXV?$shared_ptr@VImageTarget@cinder@@@tr1@std@@HPBX@Z 004134a0 f i cinder:ImageIo.obj
 0001:00012590       ??$rowFuncSourceRgb@EE$00$0A@@ImageSource@cinder@@IAEXV?$shared_ptr@VImageTarget@cinder@@@tr1@std@@HPBX@Z 00413590 f i cinder:ImageIo.obj
 0001:00012670       ??$rowFuncSourceGray@EE$00$00@ImageSource@cinder@@IAEXV?$shared_ptr@VImageTarget@cinder@@@tr1@std@@HPBX@Z 00413670 f i cinder:ImageIo.obj
 0001:00012730       ??$rowFuncSourceGray@EE$00$0A@@ImageSource@cinder@@IAEXV?$shared_ptr@VImageTarget@cinder@@@tr1@std@@HPBX@Z 00413730 f i cinder:ImageIo.obj
 0001:000127e0       ??$rowFuncSourceRgb@EG$0A@$00@ImageSource@cinder@@IAEXV?$shared_ptr@VImageTarget@cinder@@@tr1@std@@HPBX@Z 004137e0 f i cinder:ImageIo.obj
 0001:000128e0       ??$rowFuncSourceRgb@EG$0A@$0A@@ImageSource@cinder@@IAEXV?$shared_ptr@VImageTarget@cinder@@@tr1@std@@HPBX@Z 004138e0 f i cinder:ImageIo.obj
 0001:000129d0       ??$rowFuncSourceGray@EG$0A@$00@ImageSource@cinder@@IAEXV?$shared_ptr@VImageTarget@cinder@@@tr1@std@@HPBX@Z 004139d0 f i cinder:ImageIo.obj
 0001:00012ac0       ??$rowFuncSourceGray@EG$0A@$0A@@ImageSource@cinder@@IAEXV?$shared_ptr@VImageTarget@cinder@@@tr1@std@@HPBX@Z 00413ac0 f i cinder:ImageIo.obj
 0001:00012b90       ??$rowFuncSourceRgb@EG$00$00@ImageSource@cinder@@IAEXV?$shared_ptr@VImageTarget@cinder@@@tr1@std@@HPBX@Z 00413b90 f i cinder:ImageIo.obj
 0001:00012c90       ??$rowFuncSourceRgb@EG$00$0A@@ImageSource@cinder@@IAEXV?$shared_ptr@VImageTarget@cinder@@@tr1@std@@HPBX@Z 00413c90 f i cinder:ImageIo.obj
 0001:00012d80       ??$rowFuncSourceGray@EG$00$00@ImageSource@cinder@@IAEXV?$shared_ptr@VImageTarget@cinder@@@tr1@std@@HPBX@Z 00413d80 f i cinder:ImageIo.obj
 0001:00012e60       ??$rowFuncSourceGray@EG$00$0A@@ImageSource@cinder@@IAEXV?$shared_ptr@VImageTarget@cinder@@@tr1@std@@HPBX@Z 00413e60 f i cinder:ImageIo.obj
 0001:00012f20       ??$rowFuncSourceRgb@EM$0A@$00@ImageSource@cinder@@IAEXV?$shared_ptr@VImageTarget@cinder@@@tr1@std@@HPBX@Z 00413f20 f i cinder:ImageIo.obj
 0001:00013280       ??$rowFuncSourceRgb@EM$0A@$0A@@ImageSource@cinder@@IAEXV?$shared_ptr@VImageTarget@cinder@@@tr1@std@@HPBX@Z 00414280 f i cinder:ImageIo.obj
 0001:00013540       ??$rowFuncSourceGray@EM$0A@$00@ImageSource@cinder@@IAEXV?$shared_ptr@VImageTarget@cinder@@@tr1@std@@HPBX@Z 00414540 f i cinder:ImageIo.obj
 0001:000137b0       ??$rowFuncSourceGray@EM$0A@$0A@@ImageSource@cinder@@IAEXV?$shared_ptr@VImageTarget@cinder@@@tr1@std@@HPBX@Z 004147b0 f i cinder:ImageIo.obj
 0001:00013990       ??$rowFuncSourceRgb@EM$00$00@ImageSource@cinder@@IAEXV?$shared_ptr@VImageTarget@cinder@@@tr1@std@@HPBX@Z 00414990 f i cinder:ImageIo.obj
 0001:00013c80       ??$rowFuncSourceRgb@EM$00$0A@@ImageSource@cinder@@IAEXV?$shared_ptr@VImageTarget@cinder@@@tr1@std@@HPBX@Z 00414c80 f i cinder:ImageIo.obj
 0001:00013ee0       ??$rowFuncSourceGray@EM$00$00@ImageSource@cinder@@IAEXV?$shared_ptr@VImageTarget@cinder@@@tr1@std@@HPBX@Z 00414ee0 f i cinder:ImageIo.obj
 0001:000140e0       ??$rowFuncSourceGray@EM$00$0A@@ImageSource@cinder@@IAEXV?$shared_ptr@VImageTarget@cinder@@@tr1@std@@HPBX@Z 004150e0 f i cinder:ImageIo.obj
 0001:00014250       ??$rowFuncSourceRgb@GE$0A@$00@ImageSource@cinder@@IAEXV?$shared_ptr@VImageTarget@cinder@@@tr1@std@@HPBX@Z 00415250 f i cinder:ImageIo.obj
 0001:00014380       ??$rowFuncSourceRgb@GE$0A@$0A@@ImageSource@cinder@@IAEXV?$shared_ptr@VImageTarget@cinder@@@tr1@std@@HPBX@Z 00415380 f i cinder:ImageIo.obj
 0001:00014490       ??$rowFuncSourceGray@GE$0A@$00@ImageSource@cinder@@IAEXV?$shared_ptr@VImageTarget@cinder@@@tr1@std@@HPBX@Z 00415490 f i cinder:ImageIo.obj
 0001:00014590       ??$rowFuncSourceGray@GE$0A@$0A@@ImageSource@cinder@@IAEXV?$shared_ptr@VImageTarget@cinder@@@tr1@std@@HPBX@Z 00415590 f i cinder:ImageIo.obj
 0001:00014670       ??$rowFuncSourceRgb@GE$00$00@ImageSource@cinder@@IAEXV?$shared_ptr@VImageTarget@cinder@@@tr1@std@@HPBX@Z 00415670 f i cinder:ImageIo.obj
 0001:00014790       ??$rowFuncSourceRgb@GE$00$0A@@ImageSource@cinder@@IAEXV?$shared_ptr@VImageTarget@cinder@@@tr1@std@@HPBX@Z 00415790 f i cinder:ImageIo.obj
 0001:00014890       ??$rowFuncSourceGray@GE$00$00@ImageSource@cinder@@IAEXV?$shared_ptr@VImageTarget@cinder@@@tr1@std@@HPBX@Z 00415890 f i cinder:ImageIo.obj
 0001:00014980       ??$rowFuncSourceGray@GE$00$0A@@ImageSource@cinder@@IAEXV?$shared_ptr@VImageTarget@cinder@@@tr1@std@@HPBX@Z 00415980 f i cinder:ImageIo.obj
 0001:00014a50       ??$rowFuncSourceRgb@GG$0A@$00@ImageSource@cinder@@IAEXV?$shared_ptr@VImageTarget@cinder@@@tr1@std@@HPBX@Z 00415a50 f i cinder:ImageIo.obj
 0001:00014b40       ??$rowFuncSourceRgb@GG$0A@$0A@@ImageSource@cinder@@IAEXV?$shared_ptr@VImageTarget@cinder@@@tr1@std@@HPBX@Z 00415b40 f i cinder:ImageIo.obj
 0001:00014c20       ??$rowFuncSourceGray@GG$0A@$00@ImageSource@cinder@@IAEXV?$shared_ptr@VImageTarget@cinder@@@tr1@std@@HPBX@Z 00415c20 f i cinder:ImageIo.obj
 0001:00014d00       ??$rowFuncSourceGray@GG$0A@$0A@@ImageSource@cinder@@IAEXV?$shared_ptr@VImageTarget@cinder@@@tr1@std@@HPBX@Z 00415d00 f i cinder:ImageIo.obj
 0001:00014dd0       ??$rowFuncSourceRgb@GG$00$00@ImageSource@cinder@@IAEXV?$shared_ptr@VImageTarget@cinder@@@tr1@std@@HPBX@Z 00415dd0 f i cinder:ImageIo.obj
 0001:00014ed0       ??$rowFuncSourceRgb@GG$00$0A@@ImageSource@cinder@@IAEXV?$shared_ptr@VImageTarget@cinder@@@tr1@std@@HPBX@Z 00415ed0 f i cinder:ImageIo.obj
 0001:00014fc0       ??$rowFuncSourceGray@GG$00$00@ImageSource@cinder@@IAEXV?$shared_ptr@VImageTarget@cinder@@@tr1@std@@HPBX@Z 00415fc0 f i cinder:ImageIo.obj
 0001:00015080       ??$rowFuncSourceGray@GG$00$0A@@ImageSource@cinder@@IAEXV?$shared_ptr@VImageTarget@cinder@@@tr1@std@@HPBX@Z 00416080 f i cinder:ImageIo.obj
 0001:00015130       ??$rowFuncSourceRgb@GM$0A@$00@ImageSource@cinder@@IAEXV?$shared_ptr@VImageTarget@cinder@@@tr1@std@@HPBX@Z 00416130 f i cinder:ImageIo.obj
 0001:00015490       ??$rowFuncSourceRgb@GM$0A@$0A@@ImageSource@cinder@@IAEXV?$shared_ptr@VImageTarget@cinder@@@tr1@std@@HPBX@Z 00416490 f i cinder:ImageIo.obj
 0001:00015750       ??$rowFuncSourceGray@GM$0A@$00@ImageSource@cinder@@IAEXV?$shared_ptr@VImageTarget@cinder@@@tr1@std@@HPBX@Z 00416750 f i cinder:ImageIo.obj
 0001:000159d0       ??$rowFuncSourceGray@GM$0A@$0A@@ImageSource@cinder@@IAEXV?$shared_ptr@VImageTarget@cinder@@@tr1@std@@HPBX@Z 004169d0 f i cinder:ImageIo.obj
 0001:00015bc0       ??$rowFuncSourceRgb@GM$00$00@ImageSource@cinder@@IAEXV?$shared_ptr@VImageTarget@cinder@@@tr1@std@@HPBX@Z 00416bc0 f i cinder:ImageIo.obj
 0001:00015ed0       ??$rowFuncSourceRgb@GM$00$0A@@ImageSource@cinder@@IAEXV?$shared_ptr@VImageTarget@cinder@@@tr1@std@@HPBX@Z 00416ed0 f i cinder:ImageIo.obj
 0001:00016150       ??$rowFuncSourceGray@GM$00$00@ImageSource@cinder@@IAEXV?$shared_ptr@VImageTarget@cinder@@@tr1@std@@HPBX@Z 00417150 f i cinder:ImageIo.obj
 0001:00016360       ??$rowFuncSourceGray@GM$00$0A@@ImageSource@cinder@@IAEXV?$shared_ptr@VImageTarget@cinder@@@tr1@std@@HPBX@Z 00417360 f i cinder:ImageIo.obj
 0001:000164d0       ??$rowFuncSourceRgb@ME$0A@$00@ImageSource@cinder@@IAEXV?$shared_ptr@VImageTarget@cinder@@@tr1@std@@HPBX@Z 004174d0 f i cinder:ImageIo.obj
 0001:00016640       ??$rowFuncSourceRgb@ME$0A@$0A@@ImageSource@cinder@@IAEXV?$shared_ptr@VImageTarget@cinder@@@tr1@std@@HPBX@Z 00417640 f i cinder:ImageIo.obj
 0001:00016780       ??$rowFuncSourceGray@ME$0A@$00@ImageSource@cinder@@IAEXV?$shared_ptr@VImageTarget@cinder@@@tr1@std@@HPBX@Z 00417780 f i cinder:ImageIo.obj
 0001:00016890       ??$rowFuncSourceGray@ME$0A@$0A@@ImageSource@cinder@@IAEXV?$shared_ptr@VImageTarget@cinder@@@tr1@std@@HPBX@Z 00417890 f i cinder:ImageIo.obj
 0001:00016980       ??$rowFuncSourceRgb@ME$00$00@ImageSource@cinder@@IAEXV?$shared_ptr@VImageTarget@cinder@@@tr1@std@@HPBX@Z 00417980 f i cinder:ImageIo.obj
 0001:00016ad0       ??$rowFuncSourceRgb@ME$00$0A@@ImageSource@cinder@@IAEXV?$shared_ptr@VImageTarget@cinder@@@tr1@std@@HPBX@Z 00417ad0 f i cinder:ImageIo.obj
 0001:00016be0       ??$rowFuncSourceGray@ME$00$00@ImageSource@cinder@@IAEXV?$shared_ptr@VImageTarget@cinder@@@tr1@std@@HPBX@Z 00417be0 f i cinder:ImageIo.obj
 0001:00016ce0       ??$rowFuncSourceGray@ME$00$0A@@ImageSource@cinder@@IAEXV?$shared_ptr@VImageTarget@cinder@@@tr1@std@@HPBX@Z 00417ce0 f i cinder:ImageIo.obj
 0001:00016dc0       ??$rowFuncSourceRgb@MG$0A@$00@ImageSource@cinder@@IAEXV?$shared_ptr@VImageTarget@cinder@@@tr1@std@@HPBX@Z 00417dc0 f i cinder:ImageIo.obj
 0001:00016f30       ??$rowFuncSourceRgb@MG$0A@$0A@@ImageSource@cinder@@IAEXV?$shared_ptr@VImageTarget@cinder@@@tr1@std@@HPBX@Z 00417f30 f i cinder:ImageIo.obj
 0001:00017070       ??$rowFuncSourceGray@MG$0A@$00@ImageSource@cinder@@IAEXV?$shared_ptr@VImageTarget@cinder@@@tr1@std@@HPBX@Z 00418070 f i cinder:ImageIo.obj
 0001:00017190       ??$rowFuncSourceGray@MG$0A@$0A@@ImageSource@cinder@@IAEXV?$shared_ptr@VImageTarget@cinder@@@tr1@std@@HPBX@Z 00418190 f i cinder:ImageIo.obj
 0001:00017280       ??$rowFuncSourceRgb@MG$00$00@ImageSource@cinder@@IAEXV?$shared_ptr@VImageTarget@cinder@@@tr1@std@@HPBX@Z 00418280 f i cinder:ImageIo.obj
 0001:000173d0       ??$rowFuncSourceRgb@MG$00$0A@@ImageSource@cinder@@IAEXV?$shared_ptr@VImageTarget@cinder@@@tr1@std@@HPBX@Z 004183d0 f i cinder:ImageIo.obj
 0001:000174f0       ??$rowFuncSourceGray@MG$00$00@ImageSource@cinder@@IAEXV?$shared_ptr@VImageTarget@cinder@@@tr1@std@@HPBX@Z 004184f0 f i cinder:ImageIo.obj
 0001:00017600       ??$rowFuncSourceGray@MG$00$0A@@ImageSource@cinder@@IAEXV?$shared_ptr@VImageTarget@cinder@@@tr1@std@@HPBX@Z 00418600 f i cinder:ImageIo.obj
 0001:000176e0       ??$rowFuncSourceRgb@MM$0A@$00@ImageSource@cinder@@IAEXV?$shared_ptr@VImageTarget@cinder@@@tr1@std@@HPBX@Z 004186e0 f i cinder:ImageIo.obj
 0001:00017940       ??$rowFuncSourceRgb@MM$0A@$0A@@ImageSource@cinder@@IAEXV?$shared_ptr@VImageTarget@cinder@@@tr1@std@@HPBX@Z 00418940 f i cinder:ImageIo.obj
 0001:00017b40       ??$rowFuncSourceGray@MM$0A@$00@ImageSource@cinder@@IAEXV?$shared_ptr@VImageTarget@cinder@@@tr1@std@@HPBX@Z 00418b40 f i cinder:ImageIo.obj
 0001:00017d50       ??$rowFuncSourceGray@MM$0A@$0A@@ImageSource@cinder@@IAEXV?$shared_ptr@VImageTarget@cinder@@@tr1@std@@HPBX@Z 00418d50 f i cinder:ImageIo.obj
 0001:00017f00       ??$rowFuncSourceRgb@MM$00$00@ImageSource@cinder@@IAEXV?$shared_ptr@VImageTarget@cinder@@@tr1@std@@HPBX@Z 00418f00 f i cinder:ImageIo.obj
 0001:00018150       ??$rowFuncSourceRgb@MM$00$0A@@ImageSource@cinder@@IAEXV?$shared_ptr@VImageTarget@cinder@@@tr1@std@@HPBX@Z 00419150 f i cinder:ImageIo.obj
 0001:00018350       ??$rowFuncSourceGray@MM$00$00@ImageSource@cinder@@IAEXV?$shared_ptr@VImageTarget@cinder@@@tr1@std@@HPBX@Z 00419350 f i cinder:ImageIo.obj
 0001:00018510       ??$rowFuncSourceGray@MM$00$0A@@ImageSource@cinder@@IAEXV?$shared_ptr@VImageTarget@cinder@@@tr1@std@@HPBX@Z 00419510 f i cinder:ImageIo.obj
 0001:00018670       ?setupRowFuncRgbSource@ImageSource@cinder@@IAEXV?$shared_ptr@VImageTarget@cinder@@@tr1@std@@@Z 00419670 f   cinder:ImageIo.obj
 0001:00018780       ?setupRowFuncGraySource@ImageSource@cinder@@IAEXV?$shared_ptr@VImageTarget@cinder@@@tr1@std@@@Z 00419780 f   cinder:ImageIo.obj
 0001:000188a0       ?_Lbound@?$_Tree@V?$_Tmap_traits@V?$basic_string@DU?$char_traits@D@std@@V?$allocator@D@2@@std@@V?$multimap@HU?$pair@P6A?AV?$shared_ptr@VImageTarget@cinder@@@tr1@std@@V?$shared_ptr@VDataTarget@cinder@@@23@V?$shared_ptr@VImageSource@cinder@@@23@VOptions@ImageTarget@cinder@@ABV?$basic_string@DU?$char_traits@D@std@@V?$allocator@D@2@@3@@ZV93@@std@@U?$less@H@2@V?$allocator@U?$pair@$$CBHU?$pair@P6A?AV?$shared_ptr@VImageTarget@cinder@@@tr1@std@@V?$shared_ptr@VDataTarget@cinder@@@23@V?$shared_ptr@VImageSource@cinder@@@23@VOptions@ImageTarget@cinder@@ABV?$basic_string@DU?$char_traits@D@std@@V?$allocator@D@2@@3@@ZV93@@std@@@std@@@2@@2@U?$less@V?$basic_string@DU?$char_traits@D@std@@V?$allocator@D@2@@std@@@2@V?$allocator@U?$pair@$$CBV?$basic_string@DU?$char_traits@D@std@@V?$allocator@D@2@@std@@V?$multimap@HU?$pair@P6A?AV?$shared_ptr@VImageTarget@cinder@@@tr1@std@@V?$shared_ptr@VDataTarget@cinder@@@23@V?$shared_ptr@VImageSource@cinder@@@23@VOptions@ImageTarget@cinder@@ABV?$basic_string@DU?$char_traits@D@std@@V?$allocator@D@2@@3@@ZV93@@std@@U?$less@H@2@V?$allocator@U?$pair@$$CBHU?$pair@P6A?AV?$shared_ptr@VImageTarget@cinder@@@tr1@std@@V?$shared_ptr@VDataTarget@cinder@@@23@V?$shared_ptr@VImageSource@cinder@@@23@VOptions@ImageTarget@cinder@@ABV?$basic_string@DU?$char_traits@D@std@@V?$allocator@D@2@@3@@ZV93@@std@@@std@@@2@@2@@std@@@2@$0A@@std@@@std@@IAEPAU_Node@?$_Tree_nod@V?$_Tmap_traits@V?$basic_string@DU?$char_traits@D@std@@V?$allocator@D@2@@std@@V?$multimap@HU?$pair@P6A?AV?$shared_ptr@VImageTarget@cinder@@@tr1@std@@V?$shared_ptr@VDataTarget@cinder@@@23@V?$shared_ptr@VImageSource@cinder@@@23@VOptions@ImageTarget@cinder@@ABV?$basic_string@DU?$char_traits@D@std@@V?$allocator@D@2@@3@@ZV93@@std@@U?$less@H@2@V?$allocator@U?$pair@$$CBHU?$pair@P6A?AV?$shared_ptr@VImageTarget@cinder@@@tr1@std@@V?$shared_ptr@VDataTarget@cinder@@@23@V?$shared_ptr@VImageSource@cinder@@@23@VOptions@ImageTarget@cinder@@ABV?$basic_string@DU?$char_traits@D@std@@V?$allocator@D@2@@3@@ZV93@@std@@@std@@@2@@2@U?$less@V?$basic_string@DU?$char_traits@D@std@@V?$allocator@D@2@@std@@@2@V?$allocator@U?$pair@$$CBV?$basic_string@DU?$char_traits@D@std@@V?$allocator@D@2@@std@@V?$multimap@HU?$pair@P6A?AV?$shared_ptr@VImageTarget@cinder@@@tr1@std@@V?$shared_ptr@VDataTarget@cinder@@@23@V?$shared_ptr@VImageSource@cinder@@@23@VOptions@ImageTarget@cinder@@ABV?$basic_string@DU?$char_traits@D@std@@V?$allocator@D@2@@3@@ZV93@@std@@U?$less@H@2@V?$allocator@U?$pair@$$CBHU?$pair@P6A?AV?$shared_ptr@VImageTarget@cinder@@@tr1@std@@V?$shared_ptr@VDataTarget@cinder@@@23@V?$shared_ptr@VImageSource@cinder@@@23@VOptions@ImageTarget@cinder@@ABV?$basic_string@DU?$char_traits@D@std@@V?$allocator@D@2@@3@@ZV93@@std@@@std@@@2@@2@@std@@@2@$0A@@std@@@2@ABV?$basic_string@DU?$char_traits@D@std@@V?$allocator@D@2@@2@@Z 004198a0 f i cinder:ImageIo.obj
 0001:000188a0       ?_Lbound@?$_Tree@V?$_Tmap_traits@V?$basic_string@DU?$char_traits@D@std@@V?$allocator@D@2@@std@@V?$multimap@HP6A?AV?$shared_ptr@VImageSource@cinder@@@tr1@std@@V?$shared_ptr@VDataSource@cinder@@@23@VOptions@ImageSource@cinder@@@ZU?$less@H@3@V?$allocator@U?$pair@$$CBHP6A?AV?$shared_ptr@VImageSource@cinder@@@tr1@std@@V?$shared_ptr@VDataSource@cinder@@@23@VOptions@ImageSource@cinder@@@Z@std@@@3@@2@U?$less@V?$basic_string@DU?$char_traits@D@std@@V?$allocator@D@2@@std@@@2@V?$allocator@U?$pair@$$CBV?$basic_string@DU?$char_traits@D@std@@V?$allocator@D@2@@std@@V?$multimap@HP6A?AV?$shared_ptr@VImageSource@cinder@@@tr1@std@@V?$shared_ptr@VDataSource@cinder@@@23@VOptions@ImageSource@cinder@@@ZU?$less@H@3@V?$allocator@U?$pair@$$CBHP6A?AV?$shared_ptr@VImageSource@cinder@@@tr1@std@@V?$shared_ptr@VDataSource@cinder@@@23@VOptions@ImageSource@cinder@@@Z@std@@@3@@2@@std@@@2@$0A@@std@@@std@@IAEPAU_Node@?$_Tree_nod@V?$_Tmap_traits@V?$basic_string@DU?$char_traits@D@std@@V?$allocator@D@2@@std@@V?$multimap@HP6A?AV?$shared_ptr@VImageSource@cinder@@@tr1@std@@V?$shared_ptr@VDataSource@cinder@@@23@VOptions@ImageSource@cinder@@@ZU?$less@H@3@V?$allocator@U?$pair@$$CBHP6A?AV?$shared_ptr@VImageSource@cinder@@@tr1@std@@V?$shared_ptr@VDataSource@cinder@@@23@VOptions@ImageSource@cinder@@@Z@std@@@3@@2@U?$less@V?$basic_string@DU?$char_traits@D@std@@V?$allocator@D@2@@std@@@2@V?$allocator@U?$pair@$$CBV?$basic_string@DU?$char_traits@D@std@@V?$allocator@D@2@@std@@V?$multimap@HP6A?AV?$shared_ptr@VImageSource@cinder@@@tr1@std@@V?$shared_ptr@VDataSource@cinder@@@23@VOptions@ImageSource@cinder@@@ZU?$less@H@3@V?$allocator@U?$pair@$$CBHP6A?AV?$shared_ptr@VImageSource@cinder@@@tr1@std@@V?$shared_ptr@VDataSource@cinder@@@23@VOptions@ImageSource@cinder@@@Z@std@@@3@@2@@std@@@2@$0A@@std@@@2@ABV?$basic_string@DU?$char_traits@D@std@@V?$allocator@D@2@@2@@Z 004198a0 f i cinder:ImageIo.obj
 0001:00018930       ?erase@?$_Tree@V?$_Tmap_traits@HP6A?AV?$shared_ptr@VImageSource@cinder@@@tr1@std@@V?$shared_ptr@VDataSource@cinder@@@23@VOptions@ImageSource@cinder@@@ZU?$less@H@3@V?$allocator@U?$pair@$$CBHP6A?AV?$shared_ptr@VImageSource@cinder@@@tr1@std@@V?$shared_ptr@VDataSource@cinder@@@23@VOptions@ImageSource@cinder@@@Z@std@@@3@$00@std@@@std@@QAE?AV?$_Tree_iterator@V?$_Tree_val@V?$_Tmap_traits@HP6A?AV?$shared_ptr@VImageSource@cinder@@@tr1@std@@V?$shared_ptr@VDataSource@cinder@@@23@VOptions@ImageSource@cinder@@@ZU?$less@H@3@V?$allocator@U?$pair@$$CBHP6A?AV?$shared_ptr@VImageSource@cinder@@@tr1@std@@V?$shared_ptr@VDataSource@cinder@@@23@VOptions@ImageSource@cinder@@@Z@std@@@3@$00@std@@@std@@@2@V?$_Tree_const_iterator@V?$_Tree_val@V?$_Tmap_traits@HP6A?AV?$shared_ptr@VImageSource@cinder@@@tr1@std@@V?$shared_ptr@VDataSource@cinder@@@23@VOptions@ImageSource@cinder@@@ZU?$less@H@3@V?$allocator@U?$pair@$$CBHP6A?AV?$shared_ptr@VImageSource@cinder@@@tr1@std@@V?$shared_ptr@VDataSource@cinder@@@23@VOptions@ImageSource@cinder@@@Z@std@@@3@$00@std@@@std@@@2@@Z 00419930 f i cinder:ImageIo.obj
 0001:00018930       ?erase@?$_Tree@V?$_Tmap_traits@HHU?$less@H@std@@V?$allocator@U?$pair@$$CBHH@std@@@2@$0A@@std@@@std@@QAE?AV?$_Tree_iterator@V?$_Tree_val@V?$_Tmap_traits@HHU?$less@H@std@@V?$allocator@U?$pair@$$CBHH@std@@@2@$0A@@std@@@std@@@2@V?$_Tree_const_iterator@V?$_Tree_val@V?$_Tmap_traits@HHU?$less@H@std@@V?$allocator@U?$pair@$$CBHH@std@@@2@$0A@@std@@@std@@@2@@Z 00419930 f i cinder:ObjLoader.obj
 0001:00018930       ?erase@?$_Tree@V?$_Tmap_traits@HP6A?AV?$shared_ptr@VImageSource@cinder@@@tr1@std@@V?$shared_ptr@VDataSource@cinder@@@23@VOptions@ImageSource@cinder@@@ZU?$less@H@3@V?$allocator@U?$pair@$$CBHP6A?AV?$shared_ptr@VImageSource@cinder@@@tr1@std@@V?$shared_ptr@VDataSource@cinder@@@23@VOptions@ImageSource@cinder@@@Z@std@@@3@$0A@@std@@@std@@QAE?AV?$_Tree_iterator@V?$_Tree_val@V?$_Tmap_traits@HP6A?AV?$shared_ptr@VImageSource@cinder@@@tr1@std@@V?$shared_ptr@VDataSource@cinder@@@23@VOptions@ImageSource@cinder@@@ZU?$less@H@3@V?$allocator@U?$pair@$$CBHP6A?AV?$shared_ptr@VImageSource@cinder@@@tr1@std@@V?$shared_ptr@VDataSource@cinder@@@23@VOptions@ImageSource@cinder@@@Z@std@@@3@$0A@@std@@@std@@@2@V?$_Tree_const_iterator@V?$_Tree_val@V?$_Tmap_traits@HP6A?AV?$shared_ptr@VImageSource@cinder@@@tr1@std@@V?$shared_ptr@VDataSource@cinder@@@23@VOptions@ImageSource@cinder@@@ZU?$less@H@3@V?$allocator@U?$pair@$$CBHP6A?AV?$shared_ptr@VImageSource@cinder@@@tr1@std@@V?$shared_ptr@VDataSource@cinder@@@23@VOptions@ImageSource@cinder@@@Z@std@@@3@$0A@@std@@@std@@@2@@Z 00419930 f i cinder:ImageIo.obj
 0001:00018b80       ??1?$pair@P6A?AV?$shared_ptr@VImageTarget@cinder@@@tr1@std@@V?$shared_ptr@VDataTarget@cinder@@@23@V?$shared_ptr@VImageSource@cinder@@@23@VOptions@ImageTarget@cinder@@ABV?$basic_string@DU?$char_traits@D@std@@V?$allocator@D@2@@3@@ZV93@@std@@QAE@XZ 00419b80 f i cinder:ImageIo.obj
 0001:00018bb0       ?clear@?$_Tree@V?$_Tmap_traits@HP6A?AV?$shared_ptr@VImageSource@cinder@@@tr1@std@@V?$shared_ptr@VDataSource@cinder@@@23@VOptions@ImageSource@cinder@@@ZU?$less@H@3@V?$allocator@U?$pair@$$CBHP6A?AV?$shared_ptr@VImageSource@cinder@@@tr1@std@@V?$shared_ptr@VDataSource@cinder@@@23@VOptions@ImageSource@cinder@@@Z@std@@@3@$0A@@std@@@std@@QAEXXZ 00419bb0 f i cinder:ImageIo.obj
 0001:00018bb0       ?clear@?$_Tree@V?$_Tmap_traits@HP6A?AV?$shared_ptr@VImageSource@cinder@@@tr1@std@@V?$shared_ptr@VDataSource@cinder@@@23@VOptions@ImageSource@cinder@@@ZU?$less@H@3@V?$allocator@U?$pair@$$CBHP6A?AV?$shared_ptr@VImageSource@cinder@@@tr1@std@@V?$shared_ptr@VDataSource@cinder@@@23@VOptions@ImageSource@cinder@@@Z@std@@@3@$00@std@@@std@@QAEXXZ 00419bb0 f i cinder:ImageIo.obj
 0001:00018bb0       ?clear@?$_Tree@V?$_Tmap_traits@HHU?$less@H@std@@V?$allocator@U?$pair@$$CBHH@std@@@2@$0A@@std@@@std@@QAEXXZ 00419bb0 f i cinder:ObjLoader.obj
 0001:00018c00       ??$setupRowFuncForTypesAndTargetColorModel@EE$0A@@ImageSource@cinder@@IAEP801@AEXV?$shared_ptr@VImageTarget@cinder@@@tr1@std@@HPBX@Z0@Z 00419c00 f i cinder:ImageIo.obj
 0001:00018df0       ??0ImageIoExceptionIllegalColorModel@cinder@@QAE@ABV01@@Z 00419df0 f i cinder:ImageIo.obj
 0001:00018e10       ??$setupRowFuncForTypesAndTargetColorModel@EE$00@ImageSource@cinder@@IAEP801@AEXV?$shared_ptr@VImageTarget@cinder@@@tr1@std@@HPBX@Z0@Z 00419e10 f i cinder:ImageIo.obj
 0001:00019000       ??$setupRowFuncForTypesAndTargetColorModel@EG$0A@@ImageSource@cinder@@IAEP801@AEXV?$shared_ptr@VImageTarget@cinder@@@tr1@std@@HPBX@Z0@Z 0041a000 f i cinder:ImageIo.obj
 0001:000191f0       ??$setupRowFuncForTypesAndTargetColorModel@EG$00@ImageSource@cinder@@IAEP801@AEXV?$shared_ptr@VImageTarget@cinder@@@tr1@std@@HPBX@Z0@Z 0041a1f0 f i cinder:ImageIo.obj
 0001:000193e0       ??$setupRowFuncForTypesAndTargetColorModel@EM$0A@@ImageSource@cinder@@IAEP801@AEXV?$shared_ptr@VImageTarget@cinder@@@tr1@std@@HPBX@Z0@Z 0041a3e0 f i cinder:ImageIo.obj
 0001:000195d0       ??$setupRowFuncForTypesAndTargetColorModel@EM$00@ImageSource@cinder@@IAEP801@AEXV?$shared_ptr@VImageTarget@cinder@@@tr1@std@@HPBX@Z0@Z 0041a5d0 f i cinder:ImageIo.obj
 0001:000197c0       ??$setupRowFuncForTypesAndTargetColorModel@GE$0A@@ImageSource@cinder@@IAEP801@AEXV?$shared_ptr@VImageTarget@cinder@@@tr1@std@@HPBX@Z0@Z 0041a7c0 f i cinder:ImageIo.obj
 0001:000199b0       ??$setupRowFuncForTypesAndTargetColorModel@GE$00@ImageSource@cinder@@IAEP801@AEXV?$shared_ptr@VImageTarget@cinder@@@tr1@std@@HPBX@Z0@Z 0041a9b0 f i cinder:ImageIo.obj
 0001:00019ba0       ??$setupRowFuncForTypesAndTargetColorModel@GG$0A@@ImageSource@cinder@@IAEP801@AEXV?$shared_ptr@VImageTarget@cinder@@@tr1@std@@HPBX@Z0@Z 0041aba0 f i cinder:ImageIo.obj
 0001:00019d90       ??$setupRowFuncForTypesAndTargetColorModel@GG$00@ImageSource@cinder@@IAEP801@AEXV?$shared_ptr@VImageTarget@cinder@@@tr1@std@@HPBX@Z0@Z 0041ad90 f i cinder:ImageIo.obj
 0001:00019f80       ??$setupRowFuncForTypesAndTargetColorModel@GM$0A@@ImageSource@cinder@@IAEP801@AEXV?$shared_ptr@VImageTarget@cinder@@@tr1@std@@HPBX@Z0@Z 0041af80 f i cinder:ImageIo.obj
 0001:0001a170       ??$setupRowFuncForTypesAndTargetColorModel@GM$00@ImageSource@cinder@@IAEP801@AEXV?$shared_ptr@VImageTarget@cinder@@@tr1@std@@HPBX@Z0@Z 0041b170 f i cinder:ImageIo.obj
 0001:0001a360       ??$setupRowFuncForTypesAndTargetColorModel@ME$0A@@ImageSource@cinder@@IAEP801@AEXV?$shared_ptr@VImageTarget@cinder@@@tr1@std@@HPBX@Z0@Z 0041b360 f i cinder:ImageIo.obj
 0001:0001a550       ??$setupRowFuncForTypesAndTargetColorModel@ME$00@ImageSource@cinder@@IAEP801@AEXV?$shared_ptr@VImageTarget@cinder@@@tr1@std@@HPBX@Z0@Z 0041b550 f i cinder:ImageIo.obj
 0001:0001a740       ??$setupRowFuncForTypesAndTargetColorModel@MG$0A@@ImageSource@cinder@@IAEP801@AEXV?$shared_ptr@VImageTarget@cinder@@@tr1@std@@HPBX@Z0@Z 0041b740 f i cinder:ImageIo.obj
 0001:0001a930       ??$setupRowFuncForTypesAndTargetColorModel@MG$00@ImageSource@cinder@@IAEP801@AEXV?$shared_ptr@VImageTarget@cinder@@@tr1@std@@HPBX@Z0@Z 0041b930 f i cinder:ImageIo.obj
 0001:0001ab20       ??$setupRowFuncForTypesAndTargetColorModel@MM$0A@@ImageSource@cinder@@IAEP801@AEXV?$shared_ptr@VImageTarget@cinder@@@tr1@std@@HPBX@Z0@Z 0041bb20 f i cinder:ImageIo.obj
 0001:0001ad10       ??$setupRowFuncForTypesAndTargetColorModel@MM$00@ImageSource@cinder@@IAEP801@AEXV?$shared_ptr@VImageTarget@cinder@@@tr1@std@@HPBX@Z0@Z 0041bd10 f i cinder:ImageIo.obj
 0001:0001af00       ??1?$pair@HU?$pair@P6A?AV?$shared_ptr@VImageTarget@cinder@@@tr1@std@@V?$shared_ptr@VDataTarget@cinder@@@23@V?$shared_ptr@VImageSource@cinder@@@23@VOptions@ImageTarget@cinder@@ABV?$basic_string@DU?$char_traits@D@std@@V?$allocator@D@2@@3@@ZV93@@std@@@std@@QAE@XZ 0041bf00 f i cinder:ImageIo.obj
 0001:0001af30       ?erase@?$_Tree@V?$_Tmap_traits@HP6A?AV?$shared_ptr@VImageSource@cinder@@@tr1@std@@V?$shared_ptr@VDataSource@cinder@@@23@VOptions@ImageSource@cinder@@@ZU?$less@H@3@V?$allocator@U?$pair@$$CBHP6A?AV?$shared_ptr@VImageSource@cinder@@@tr1@std@@V?$shared_ptr@VDataSource@cinder@@@23@VOptions@ImageSource@cinder@@@Z@std@@@3@$00@std@@@std@@QAE?AV?$_Tree_iterator@V?$_Tree_val@V?$_Tmap_traits@HP6A?AV?$shared_ptr@VImageSource@cinder@@@tr1@std@@V?$shared_ptr@VDataSource@cinder@@@23@VOptions@ImageSource@cinder@@@ZU?$less@H@3@V?$allocator@U?$pair@$$CBHP6A?AV?$shared_ptr@VImageSource@cinder@@@tr1@std@@V?$shared_ptr@VDataSource@cinder@@@23@VOptions@ImageSource@cinder@@@Z@std@@@3@$00@std@@@std@@@2@V?$_Tree_const_iterator@V?$_Tree_val@V?$_Tmap_traits@HP6A?AV?$shared_ptr@VImageSource@cinder@@@tr1@std@@V?$shared_ptr@VDataSource@cinder@@@23@VOptions@ImageSource@cinder@@@ZU?$less@H@3@V?$allocator@U?$pair@$$CBHP6A?AV?$shared_ptr@VImageSource@cinder@@@tr1@std@@V?$shared_ptr@VDataSource@cinder@@@23@VOptions@ImageSource@cinder@@@Z@std@@@3@$00@std@@@std@@@2@0@Z 0041bf30 f i cinder:ImageIo.obj
 0001:0001af30       ?erase@?$_Tree@V?$_Tmap_traits@HP6A?AV?$shared_ptr@VImageSource@cinder@@@tr1@std@@V?$shared_ptr@VDataSource@cinder@@@23@VOptions@ImageSource@cinder@@@ZU?$less@H@3@V?$allocator@U?$pair@$$CBHP6A?AV?$shared_ptr@VImageSource@cinder@@@tr1@std@@V?$shared_ptr@VDataSource@cinder@@@23@VOptions@ImageSource@cinder@@@Z@std@@@3@$0A@@std@@@std@@QAE?AV?$_Tree_iterator@V?$_Tree_val@V?$_Tmap_traits@HP6A?AV?$shared_ptr@VImageSource@cinder@@@tr1@std@@V?$shared_ptr@VDataSource@cinder@@@23@VOptions@ImageSource@cinder@@@ZU?$less@H@3@V?$allocator@U?$pair@$$CBHP6A?AV?$shared_ptr@VImageSource@cinder@@@tr1@std@@V?$shared_ptr@VDataSource@cinder@@@23@VOptions@ImageSource@cinder@@@Z@std@@@3@$0A@@std@@@std@@@2@V?$_Tree_const_iterator@V?$_Tree_val@V?$_Tmap_traits@HP6A?AV?$shared_ptr@VImageSource@cinder@@@tr1@std@@V?$shared_ptr@VDataSource@cinder@@@23@VOptions@ImageSource@cinder@@@ZU?$less@H@3@V?$allocator@U?$pair@$$CBHP6A?AV?$shared_ptr@VImageSource@cinder@@@tr1@std@@V?$shared_ptr@VDataSource@cinder@@@23@VOptions@ImageSource@cinder@@@Z@std@@@3@$0A@@std@@@std@@@2@0@Z 0041bf30 f i cinder:ImageIo.obj
 0001:0001af30       ?erase@?$_Tree@V?$_Tmap_traits@HHU?$less@H@std@@V?$allocator@U?$pair@$$CBHH@std@@@2@$0A@@std@@@std@@QAE?AV?$_Tree_iterator@V?$_Tree_val@V?$_Tmap_traits@HHU?$less@H@std@@V?$allocator@U?$pair@$$CBHH@std@@@2@$0A@@std@@@std@@@2@V?$_Tree_const_iterator@V?$_Tree_val@V?$_Tmap_traits@HHU?$less@H@std@@V?$allocator@U?$pair@$$CBHH@std@@@2@$0A@@std@@@std@@@2@0@Z 0041bf30 f i cinder:ObjLoader.obj
 0001:0001afd0       ??$setupRowFuncForTypes@EE@ImageSource@cinder@@IAEP801@AEXV?$shared_ptr@VImageTarget@cinder@@@tr1@std@@HPBX@Z0@Z 0041bfd0 f i cinder:ImageIo.obj
 0001:0001b0d0       ??$setupRowFuncForTypes@EG@ImageSource@cinder@@IAEP801@AEXV?$shared_ptr@VImageTarget@cinder@@@tr1@std@@HPBX@Z0@Z 0041c0d0 f i cinder:ImageIo.obj
 0001:0001b1d0       ??$setupRowFuncForTypes@EM@ImageSource@cinder@@IAEP801@AEXV?$shared_ptr@VImageTarget@cinder@@@tr1@std@@HPBX@Z0@Z 0041c1d0 f i cinder:ImageIo.obj
 0001:0001b2d0       ??$setupRowFuncForTypes@GE@ImageSource@cinder@@IAEP801@AEXV?$shared_ptr@VImageTarget@cinder@@@tr1@std@@HPBX@Z0@Z 0041c2d0 f i cinder:ImageIo.obj
 0001:0001b3d0       ??$setupRowFuncForTypes@GG@ImageSource@cinder@@IAEP801@AEXV?$shared_ptr@VImageTarget@cinder@@@tr1@std@@HPBX@Z0@Z 0041c3d0 f i cinder:ImageIo.obj
 0001:0001b4d0       ??$setupRowFuncForTypes@GM@ImageSource@cinder@@IAEP801@AEXV?$shared_ptr@VImageTarget@cinder@@@tr1@std@@HPBX@Z0@Z 0041c4d0 f i cinder:ImageIo.obj
 0001:0001b5d0       ??$setupRowFuncForTypes@ME@ImageSource@cinder@@IAEP801@AEXV?$shared_ptr@VImageTarget@cinder@@@tr1@std@@HPBX@Z0@Z 0041c5d0 f i cinder:ImageIo.obj
 0001:0001b6d0       ??$setupRowFuncForTypes@MG@ImageSource@cinder@@IAEP801@AEXV?$shared_ptr@VImageTarget@cinder@@@tr1@std@@HPBX@Z0@Z 0041c6d0 f i cinder:ImageIo.obj
 0001:0001b7d0       ??$setupRowFuncForTypes@MM@ImageSource@cinder@@IAEP801@AEXV?$shared_ptr@VImageTarget@cinder@@@tr1@std@@HPBX@Z0@Z 0041c7d0 f i cinder:ImageIo.obj
 0001:0001b8d0       ?createSource@Inst@ImageIoRegistrar@cinder@@QAE?AV?$shared_ptr@VImageSource@cinder@@@tr1@std@@V?$shared_ptr@VDataSource@cinder@@@56@VOptions@ImageSource@3@V?$basic_string@DU?$char_traits@D@std@@V?$allocator@D@2@@6@@Z 0041c8d0 f   cinder:ImageIo.obj
 0001:0001bbc0       ??0ImageIoExceptionFailedLoad@cinder@@QAE@ABV01@@Z 0041cbc0 f i cinder:ImageIo.obj
 0001:0001bbe0       ??$setupRowFuncForSourceType@E@ImageSource@cinder@@IAEP801@AEXV?$shared_ptr@VImageTarget@cinder@@@tr1@std@@HPBX@Z0@Z 0041cbe0 f i cinder:ImageIo.obj
 0001:0001bcf0       ??0ImageIoExceptionIllegalDataType@cinder@@QAE@ABV01@@Z 0041ccf0 f i cinder:ImageIo.obj
 0001:0001bd10       ??$setupRowFuncForSourceType@G@ImageSource@cinder@@IAEP801@AEXV?$shared_ptr@VImageTarget@cinder@@@tr1@std@@HPBX@Z0@Z 0041cd10 f i cinder:ImageIo.obj
 0001:0001be20       ??$setupRowFuncForSourceType@M@ImageSource@cinder@@IAEP801@AEXV?$shared_ptr@VImageTarget@cinder@@@tr1@std@@HPBX@Z0@Z 0041ce20 f i cinder:ImageIo.obj
 0001:0001bf30       ?setupRowFunc@ImageSource@cinder@@IAEP812@AEXV?$shared_ptr@VImageTarget@cinder@@@tr1@std@@HPBX@Z0@Z 0041cf30 f   cinder:ImageIo.obj
 0001:0001c040       ??1?$map@HHU?$less@H@std@@V?$allocator@U?$pair@$$CBHH@std@@@2@@std@@QAE@XZ 0041d040 f i cinder:ObjLoader.obj
 0001:0001c040       ??1?$map@HP6A?AV?$shared_ptr@VImageSource@cinder@@@tr1@std@@V?$shared_ptr@VDataSource@cinder@@@23@VOptions@ImageSource@cinder@@@ZU?$less@H@3@V?$allocator@U?$pair@$$CBHP6A?AV?$shared_ptr@VImageSource@cinder@@@tr1@std@@V?$shared_ptr@VDataSource@cinder@@@23@VOptions@ImageSource@cinder@@@Z@std@@@3@@std@@QAE@XZ 0041d040 f i cinder:ImageIo.obj
 0001:0001c0a0       ??$_Uninit_move@PAV?$basic_string@DU?$char_traits@D@std@@V?$allocator@D@2@@std@@PAV12@V?$allocator@V?$basic_string@DU?$char_traits@D@std@@V?$allocator@D@2@@std@@@2@V12@@std@@YAPAV?$basic_string@DU?$char_traits@D@std@@V?$allocator@D@2@@0@PAV10@00AAV?$allocator@V?$basic_string@DU?$char_traits@D@std@@V?$allocator@D@2@@std@@@0@0U_Nonscalar_ptr_iterator_tag@0@@Z 0041d0a0 f i cinder:ImageIo.obj
 0001:0001c160       ??$make_pair@AAP6A?AV?$shared_ptr@VImageTarget@cinder@@@tr1@std@@V?$shared_ptr@VDataTarget@cinder@@@23@V?$shared_ptr@VImageSource@cinder@@@23@VOptions@ImageTarget@cinder@@ABV?$basic_string@DU?$char_traits@D@std@@V?$allocator@D@2@@3@@ZV93@@std@@YA?AU?$pair@P6A?AV?$shared_ptr@VImageTarget@cinder@@@tr1@std@@V?$shared_ptr@VDataTarget@cinder@@@23@V?$shared_ptr@VImageSource@cinder@@@23@VOptions@ImageTarget@cinder@@ABV?$basic_string@DU?$char_traits@D@std@@V?$allocator@D@2@@3@@ZV93@@0@AAP6A?AV?$shared_ptr@VImageTarget@cinder@@@tr1@0@V?$shared_ptr@VDataTarget@cinder@@@30@V?$shared_ptr@VImageSource@cinder@@@30@VOptions@ImageTarget@cinder@@ABV?$basic_string@DU?$char_traits@D@std@@V?$allocator@D@2@@0@@Z3@Z 0041d160 f i cinder:ImageIo.obj
 0001:0001c200       ?_Insert@?$_Tree@V?$_Tmap_traits@HU?$pair@P6A?AV?$shared_ptr@VImageTarget@cinder@@@tr1@std@@V?$shared_ptr@VDataTarget@cinder@@@23@V?$shared_ptr@VImageSource@cinder@@@23@VOptions@ImageTarget@cinder@@ABV?$basic_string@DU?$char_traits@D@std@@V?$allocator@D@2@@3@@ZV93@@std@@U?$less@H@2@V?$allocator@U?$pair@$$CBHU?$pair@P6A?AV?$shared_ptr@VImageTarget@cinder@@@tr1@std@@V?$shared_ptr@VDataTarget@cinder@@@23@V?$shared_ptr@VImageSource@cinder@@@23@VOptions@ImageTarget@cinder@@ABV?$basic_string@DU?$char_traits@D@std@@V?$allocator@D@2@@3@@ZV93@@std@@@std@@@2@$00@std@@@std@@IAE?AV?$_Tree_iterator@V?$_Tree_val@V?$_Tmap_traits@HU?$pair@P6A?AV?$shared_ptr@VImageTarget@cinder@@@tr1@std@@V?$shared_ptr@VDataTarget@cinder@@@23@V?$shared_ptr@VImageSource@cinder@@@23@VOptions@ImageTarget@cinder@@ABV?$basic_string@DU?$char_traits@D@std@@V?$allocator@D@2@@3@@ZV93@@std@@U?$less@H@2@V?$allocator@U?$pair@$$CBHU?$pair@P6A?AV?$shared_ptr@VImageTarget@cinder@@@tr1@std@@V?$shared_ptr@VDataTarget@cinder@@@23@V?$shared_ptr@VImageSource@cinder@@@23@VOptions@ImageTarget@cinder@@ABV?$basic_string@DU?$char_traits@D@std@@V?$allocator@D@2@@3@@ZV93@@std@@@std@@@2@$00@std@@@std@@@2@_NPAU_Node@?$_Tree_nod@V?$_Tmap_traits@HU?$pair@P6A?AV?$shared_ptr@VImageTarget@cinder@@@tr1@std@@V?$shared_ptr@VDataTarget@cinder@@@23@V?$shared_ptr@VImageSource@cinder@@@23@VOptions@ImageTarget@cinder@@ABV?$basic_string@DU?$char_traits@D@std@@V?$allocator@D@2@@3@@ZV93@@std@@U?$less@H@2@V?$allocator@U?$pair@$$CBHU?$pair@P6A?AV?$shared_ptr@VImageTarget@cinder@@@tr1@std@@V?$shared_ptr@VDataTarget@cinder@@@23@V?$shared_ptr@VImageSource@cinder@@@23@VOptions@ImageTarget@cinder@@ABV?$basic_string@DU?$char_traits@D@std@@V?$allocator@D@2@@3@@ZV93@@std@@@std@@@2@$00@std@@@2@1@Z 0041d200 f i cinder:ImageIo.obj
 0001:0001c450       ?erase@?$_Tree@V?$_Tmap_traits@HU?$pair@P6A?AV?$shared_ptr@VImageTarget@cinder@@@tr1@std@@V?$shared_ptr@VDataTarget@cinder@@@23@V?$shared_ptr@VImageSource@cinder@@@23@VOptions@ImageTarget@cinder@@ABV?$basic_string@DU?$char_traits@D@std@@V?$allocator@D@2@@3@@ZV93@@std@@U?$less@H@2@V?$allocator@U?$pair@$$CBHU?$pair@P6A?AV?$shared_ptr@VImageTarget@cinder@@@tr1@std@@V?$shared_ptr@VDataTarget@cinder@@@23@V?$shared_ptr@VImageSource@cinder@@@23@VOptions@ImageTarget@cinder@@ABV?$basic_string@DU?$char_traits@D@std@@V?$allocator@D@2@@3@@ZV93@@std@@@std@@@2@$00@std@@@std@@QAE?AV?$_Tree_iterator@V?$_Tree_val@V?$_Tmap_traits@HU?$pair@P6A?AV?$shared_ptr@VImageTarget@cinder@@@tr1@std@@V?$shared_ptr@VDataTarget@cinder@@@23@V?$shared_ptr@VImageSource@cinder@@@23@VOptions@ImageTarget@cinder@@ABV?$basic_string@DU?$char_traits@D@std@@V?$allocator@D@2@@3@@ZV93@@std@@U?$less@H@2@V?$allocator@U?$pair@$$CBHU?$pair@P6A?AV?$shared_ptr@VImageTarget@cinder@@@tr1@std@@V?$shared_ptr@VDataTarget@cinder@@@23@V?$shared_ptr@VImageSource@cinder@@@23@VOptions@ImageTarget@cinder@@ABV?$basic_string@DU?$char_traits@D@std@@V?$allocator@D@2@@3@@ZV93@@std@@@std@@@2@$00@std@@@std@@@2@V?$_Tree_const_iterator@V?$_Tree_val@V?$_Tmap_traits@HU?$pair@P6A?AV?$shared_ptr@VImageTarget@cinder@@@tr1@std@@V?$shared_ptr@VDataTarget@cinder@@@23@V?$shared_ptr@VImageSource@cinder@@@23@VOptions@ImageTarget@cinder@@ABV?$basic_string@DU?$char_traits@D@std@@V?$allocator@D@2@@3@@ZV93@@std@@U?$less@H@2@V?$allocator@U?$pair@$$CBHU?$pair@P6A?AV?$shared_ptr@VImageTarget@cinder@@@tr1@std@@V?$shared_ptr@VDataTarget@cinder@@@23@V?$shared_ptr@VImageSource@cinder@@@23@VOptions@ImageTarget@cinder@@ABV?$basic_string@DU?$char_traits@D@std@@V?$allocator@D@2@@3@@ZV93@@std@@@std@@@2@$00@std@@@std@@@2@@Z 0041d450 f i cinder:ImageIo.obj
 0001:0001c6d0       ?_Erase@?$_Tree@V?$_Tmap_traits@HU?$pair@P6A?AV?$shared_ptr@VImageTarget@cinder@@@tr1@std@@V?$shared_ptr@VDataTarget@cinder@@@23@V?$shared_ptr@VImageSource@cinder@@@23@VOptions@ImageTarget@cinder@@ABV?$basic_string@DU?$char_traits@D@std@@V?$allocator@D@2@@3@@ZV93@@std@@U?$less@H@2@V?$allocator@U?$pair@$$CBHU?$pair@P6A?AV?$shared_ptr@VImageTarget@cinder@@@tr1@std@@V?$shared_ptr@VDataTarget@cinder@@@23@V?$shared_ptr@VImageSource@cinder@@@23@VOptions@ImageTarget@cinder@@ABV?$basic_string@DU?$char_traits@D@std@@V?$allocator@D@2@@3@@ZV93@@std@@@std@@@2@$00@std@@@std@@IAEXPAU_Node@?$_Tree_nod@V?$_Tmap_traits@HU?$pair@P6A?AV?$shared_ptr@VImageTarget@cinder@@@tr1@std@@V?$shared_ptr@VDataTarget@cinder@@@23@V?$shared_ptr@VImageSource@cinder@@@23@VOptions@ImageTarget@cinder@@ABV?$basic_string@DU?$char_traits@D@std@@V?$allocator@D@2@@3@@ZV93@@std@@U?$less@H@2@V?$allocator@U?$pair@$$CBHU?$pair@P6A?AV?$shared_ptr@VImageTarget@cinder@@@tr1@std@@V?$shared_ptr@VDataTarget@cinder@@@23@V?$shared_ptr@VImageSource@cinder@@@23@VOptions@ImageTarget@cinder@@ABV?$basic_string@DU?$char_traits@D@std@@V?$allocator@D@2@@3@@ZV93@@std@@@std@@@2@$00@std@@@2@@Z 0041d6d0 f i cinder:ImageIo.obj
 0001:0001c730       ?reserve@?$vector@V?$basic_string@DU?$char_traits@D@std@@V?$allocator@D@2@@std@@V?$allocator@V?$basic_string@DU?$char_traits@D@std@@V?$allocator@D@2@@std@@@2@@std@@QAEXI@Z 0041d730 f i cinder:ImageIo.obj
 0001:0001c850       ??$make_pair@AAHU?$pair@P6A?AV?$shared_ptr@VImageTarget@cinder@@@tr1@std@@V?$shared_ptr@VDataTarget@cinder@@@23@V?$shared_ptr@VImageSource@cinder@@@23@VOptions@ImageTarget@cinder@@ABV?$basic_string@DU?$char_traits@D@std@@V?$allocator@D@2@@3@@ZV93@@std@@@std@@YA?AU?$pair@HU?$pair@P6A?AV?$shared_ptr@VImageTarget@cinder@@@tr1@std@@V?$shared_ptr@VDataTarget@cinder@@@23@V?$shared_ptr@VImageSource@cinder@@@23@VOptions@ImageTarget@cinder@@ABV?$basic_string@DU?$char_traits@D@std@@V?$allocator@D@2@@3@@ZV93@@std@@@0@AAH$$QAU?$pair@P6A?AV?$shared_ptr@VImageTarget@cinder@@@tr1@std@@V?$shared_ptr@VDataTarget@cinder@@@23@V?$shared_ptr@VImageSource@cinder@@@23@VOptions@ImageTarget@cinder@@ABV?$basic_string@DU?$char_traits@D@std@@V?$allocator@D@2@@3@@ZV93@@0@@Z 0041d850 f i cinder:ImageIo.obj
 0001:0001c890       ??$_Buynode@AAU?$pair@$$CBHU?$pair@P6A?AV?$shared_ptr@VImageTarget@cinder@@@tr1@std@@V?$shared_ptr@VDataTarget@cinder@@@23@V?$shared_ptr@VImageSource@cinder@@@23@VOptions@ImageTarget@cinder@@ABV?$basic_string@DU?$char_traits@D@std@@V?$allocator@D@2@@3@@ZV93@@std@@@std@@@?$_Tree_val@V?$_Tmap_traits@HU?$pair@P6A?AV?$shared_ptr@VImageTarget@cinder@@@tr1@std@@V?$shared_ptr@VDataTarget@cinder@@@23@V?$shared_ptr@VImageSource@cinder@@@23@VOptions@ImageTarget@cinder@@ABV?$basic_string@DU?$char_traits@D@std@@V?$allocator@D@2@@3@@ZV93@@std@@U?$less@H@2@V?$allocator@U?$pair@$$CBHU?$pair@P6A?AV?$shared_ptr@VImageTarget@cinder@@@tr1@std@@V?$shared_ptr@VDataTarget@cinder@@@23@V?$shared_ptr@VImageSource@cinder@@@23@VOptions@ImageTarget@cinder@@ABV?$basic_string@DU?$char_traits@D@std@@V?$allocator@D@2@@3@@ZV93@@std@@@std@@@2@$00@std@@@std@@QAEPAU_Node@?$_Tree_nod@V?$_Tmap_traits@HU?$pair@P6A?AV?$shared_ptr@VImageTarget@cinder@@@tr1@std@@V?$shared_ptr@VDataTarget@cinder@@@23@V?$shared_ptr@VImageSource@cinder@@@23@VOptions@ImageTarget@cinder@@ABV?$basic_string@DU?$char_traits@D@std@@V?$allocator@D@2@@3@@ZV93@@std@@U?$less@H@2@V?$allocator@U?$pair@$$CBHU?$pair@P6A?AV?$shared_ptr@VImageTarget@cinder@@@tr1@std@@V?$shared_ptr@VDataTarget@cinder@@@23@V?$shared_ptr@VImageSource@cinder@@@23@VOptions@ImageTarget@cinder@@ABV?$basic_string@DU?$char_traits@D@std@@V?$allocator@D@2@@3@@ZV93@@std@@@std@@@2@$00@std@@@1@AAU?$pair@$$CBHU?$pair@P6A?AV?$shared_ptr@VImageTarget@cinder@@@tr1@std@@V?$shared_ptr@VDataTarget@cinder@@@23@V?$shared_ptr@VImageSource@cinder@@@23@VOptions@ImageTarget@cinder@@ABV?$basic_string@DU?$char_traits@D@std@@V?$allocator@D@2@@3@@ZV93@@std@@@1@@Z 0041d890 f i cinder:ImageIo.obj
 0001:0001c980       ?_Reserve@?$vector@V?$basic_string@DU?$char_traits@D@std@@V?$allocator@D@2@@std@@V?$allocator@V?$basic_string@DU?$char_traits@D@std@@V?$allocator@D@2@@std@@@2@@std@@IAEXI@Z 0041d980 f i cinder:ImageIo.obj
 0001:0001ca00       ?push_back@?$vector@V?$basic_string@DU?$char_traits@D@std@@V?$allocator@D@2@@std@@V?$allocator@V?$basic_string@DU?$char_traits@D@std@@V?$allocator@D@2@@std@@@2@@std@@QAEX$$QAV?$basic_string@DU?$char_traits@D@std@@V?$allocator@D@2@@2@@Z 0041da00 f i cinder:ImageIo.obj
 0001:0001cad0       ?erase@?$_Tree@V?$_Tmap_traits@HU?$pair@P6A?AV?$shared_ptr@VImageTarget@cinder@@@tr1@std@@V?$shared_ptr@VDataTarget@cinder@@@23@V?$shared_ptr@VImageSource@cinder@@@23@VOptions@ImageTarget@cinder@@ABV?$basic_string@DU?$char_traits@D@std@@V?$allocator@D@2@@3@@ZV93@@std@@U?$less@H@2@V?$allocator@U?$pair@$$CBHU?$pair@P6A?AV?$shared_ptr@VImageTarget@cinder@@@tr1@std@@V?$shared_ptr@VDataTarget@cinder@@@23@V?$shared_ptr@VImageSource@cinder@@@23@VOptions@ImageTarget@cinder@@ABV?$basic_string@DU?$char_traits@D@std@@V?$allocator@D@2@@3@@ZV93@@std@@@std@@@2@$00@std@@@std@@QAE?AV?$_Tree_iterator@V?$_Tree_val@V?$_Tmap_traits@HU?$pair@P6A?AV?$shared_ptr@VImageTarget@cinder@@@tr1@std@@V?$shared_ptr@VDataTarget@cinder@@@23@V?$shared_ptr@VImageSource@cinder@@@23@VOptions@ImageTarget@cinder@@ABV?$basic_string@DU?$char_traits@D@std@@V?$allocator@D@2@@3@@ZV93@@std@@U?$less@H@2@V?$allocator@U?$pair@$$CBHU?$pair@P6A?AV?$shared_ptr@VImageTarget@cinder@@@tr1@std@@V?$shared_ptr@VDataTarget@cinder@@@23@V?$shared_ptr@VImageSource@cinder@@@23@VOptions@ImageTarget@cinder@@ABV?$basic_string@DU?$char_traits@D@std@@V?$allocator@D@2@@3@@ZV93@@std@@@std@@@2@$00@std@@@std@@@2@V?$_Tree_const_iterator@V?$_Tree_val@V?$_Tmap_traits@HU?$pair@P6A?AV?$shared_ptr@VImageTarget@cinder@@@tr1@std@@V?$shared_ptr@VDataTarget@cinder@@@23@V?$shared_ptr@VImageSource@cinder@@@23@VOptions@ImageTarget@cinder@@ABV?$basic_string@DU?$char_traits@D@std@@V?$allocator@D@2@@3@@ZV93@@std@@U?$less@H@2@V?$allocator@U?$pair@$$CBHU?$pair@P6A?AV?$shared_ptr@VImageTarget@cinder@@@tr1@std@@V?$shared_ptr@VDataTarget@cinder@@@23@V?$shared_ptr@VImageSource@cinder@@@23@VOptions@ImageTarget@cinder@@ABV?$basic_string@DU?$char_traits@D@std@@V?$allocator@D@2@@3@@ZV93@@std@@@std@@@2@$00@std@@@std@@@2@0@Z 0041dad0 f i cinder:ImageIo.obj
 0001:0001cb90       ??$_Buynode@U?$pair@HU?$pair@P6A?AV?$shared_ptr@VImageTarget@cinder@@@tr1@std@@V?$shared_ptr@VDataTarget@cinder@@@23@V?$shared_ptr@VImageSource@cinder@@@23@VOptions@ImageTarget@cinder@@ABV?$basic_string@DU?$char_traits@D@std@@V?$allocator@D@2@@3@@ZV93@@std@@@std@@@?$_Tree_val@V?$_Tmap_traits@HU?$pair@P6A?AV?$shared_ptr@VImageTarget@cinder@@@tr1@std@@V?$shared_ptr@VDataTarget@cinder@@@23@V?$shared_ptr@VImageSource@cinder@@@23@VOptions@ImageTarget@cinder@@ABV?$basic_string@DU?$char_traits@D@std@@V?$allocator@D@2@@3@@ZV93@@std@@U?$less@H@2@V?$allocator@U?$pair@$$CBHU?$pair@P6A?AV?$shared_ptr@VImageTarget@cinder@@@tr1@std@@V?$shared_ptr@VDataTarget@cinder@@@23@V?$shared_ptr@VImageSource@cinder@@@23@VOptions@ImageTarget@cinder@@ABV?$basic_string@DU?$char_traits@D@std@@V?$allocator@D@2@@3@@ZV93@@std@@@std@@@2@$00@std@@@std@@QAEPAU_Node@?$_Tree_nod@V?$_Tmap_traits@HU?$pair@P6A?AV?$shared_ptr@VImageTarget@cinder@@@tr1@std@@V?$shared_ptr@VDataTarget@cinder@@@23@V?$shared_ptr@VImageSource@cinder@@@23@VOptions@ImageTarget@cinder@@ABV?$basic_string@DU?$char_traits@D@std@@V?$allocator@D@2@@3@@ZV93@@std@@U?$less@H@2@V?$allocator@U?$pair@$$CBHU?$pair@P6A?AV?$shared_ptr@VImageTarget@cinder@@@tr1@std@@V?$shared_ptr@VDataTarget@cinder@@@23@V?$shared_ptr@VImageSource@cinder@@@23@VOptions@ImageTarget@cinder@@ABV?$basic_string@DU?$char_traits@D@std@@V?$allocator@D@2@@3@@ZV93@@std@@@std@@@2@$00@std@@@1@$$QAU?$pair@HU?$pair@P6A?AV?$shared_ptr@VImageTarget@cinder@@@tr1@std@@V?$shared_ptr@VDataTarget@cinder@@@23@V?$shared_ptr@VImageSource@cinder@@@23@VOptions@ImageTarget@cinder@@ABV?$basic_string@DU?$char_traits@D@std@@V?$allocator@D@2@@3@@ZV93@@std@@@1@@Z 0041db90 f i cinder:ImageIo.obj
 0001:0001cc70       ?_Copy@?$_Tree@V?$_Tmap_traits@HU?$pair@P6A?AV?$shared_ptr@VImageTarget@cinder@@@tr1@std@@V?$shared_ptr@VDataTarget@cinder@@@23@V?$shared_ptr@VImageSource@cinder@@@23@VOptions@ImageTarget@cinder@@ABV?$basic_string@DU?$char_traits@D@std@@V?$allocator@D@2@@3@@ZV93@@std@@U?$less@H@2@V?$allocator@U?$pair@$$CBHU?$pair@P6A?AV?$shared_ptr@VImageTarget@cinder@@@tr1@std@@V?$shared_ptr@VDataTarget@cinder@@@23@V?$shared_ptr@VImageSource@cinder@@@23@VOptions@ImageTarget@cinder@@ABV?$basic_string@DU?$char_traits@D@std@@V?$allocator@D@2@@3@@ZV93@@std@@@std@@@2@$00@std@@@std@@IAEPAU_Node@?$_Tree_nod@V?$_Tmap_traits@HU?$pair@P6A?AV?$shared_ptr@VImageTarget@cinder@@@tr1@std@@V?$shared_ptr@VDataTarget@cinder@@@23@V?$shared_ptr@VImageSource@cinder@@@23@VOptions@ImageTarget@cinder@@ABV?$basic_string@DU?$char_traits@D@std@@V?$allocator@D@2@@3@@ZV93@@std@@U?$less@H@2@V?$allocator@U?$pair@$$CBHU?$pair@P6A?AV?$shared_ptr@VImageTarget@cinder@@@tr1@std@@V?$shared_ptr@VDataTarget@cinder@@@23@V?$shared_ptr@VImageSource@cinder@@@23@VOptions@ImageTarget@cinder@@ABV?$basic_string@DU?$char_traits@D@std@@V?$allocator@D@2@@3@@ZV93@@std@@@std@@@2@$00@std@@@2@PAU342@0@Z 0041dc70 f i cinder:ImageIo.obj
 0001:0001cd30       ??0?$_Tree@V?$_Tmap_traits@HU?$pair@P6A?AV?$shared_ptr@VImageTarget@cinder@@@tr1@std@@V?$shared_ptr@VDataTarget@cinder@@@23@V?$shared_ptr@VImageSource@cinder@@@23@VOptions@ImageTarget@cinder@@ABV?$basic_string@DU?$char_traits@D@std@@V?$allocator@D@2@@3@@ZV93@@std@@U?$less@H@2@V?$allocator@U?$pair@$$CBHU?$pair@P6A?AV?$shared_ptr@VImageTarget@cinder@@@tr1@std@@V?$shared_ptr@VDataTarget@cinder@@@23@V?$shared_ptr@VImageSource@cinder@@@23@VOptions@ImageTarget@cinder@@ABV?$basic_string@DU?$char_traits@D@std@@V?$allocator@D@2@@3@@ZV93@@std@@@std@@@2@$00@std@@@std@@QAE@$$QAV01@@Z 0041dd30 f i cinder:ImageIo.obj
 0001:0001ce10       ??$insert@U?$pair@HU?$pair@P6A?AV?$shared_ptr@VImageTarget@cinder@@@tr1@std@@V?$shared_ptr@VDataTarget@cinder@@@23@V?$shared_ptr@VImageSource@cinder@@@23@VOptions@ImageTarget@cinder@@ABV?$basic_string@DU?$char_traits@D@std@@V?$allocator@D@2@@3@@ZV93@@std@@@std@@@?$_Tree@V?$_Tmap_traits@HU?$pair@P6A?AV?$shared_ptr@VImageTarget@cinder@@@tr1@std@@V?$shared_ptr@VDataTarget@cinder@@@23@V?$shared_ptr@VImageSource@cinder@@@23@VOptions@ImageTarget@cinder@@ABV?$basic_string@DU?$char_traits@D@std@@V?$allocator@D@2@@3@@ZV93@@std@@U?$less@H@2@V?$allocator@U?$pair@$$CBHU?$pair@P6A?AV?$shared_ptr@VImageTarget@cinder@@@tr1@std@@V?$shared_ptr@VDataTarget@cinder@@@23@V?$shared_ptr@VImageSource@cinder@@@23@VOptions@ImageTarget@cinder@@ABV?$basic_string@DU?$char_traits@D@std@@V?$allocator@D@2@@3@@ZV93@@std@@@std@@@2@$00@std@@@std@@QAE?AU?$pair@V?$_Tree_iterator@V?$_Tree_val@V?$_Tmap_traits@HU?$pair@P6A?AV?$shared_ptr@VImageTarget@cinder@@@tr1@std@@V?$shared_ptr@VDataTarget@cinder@@@23@V?$shared_ptr@VImageSource@cinder@@@23@VOptions@ImageTarget@cinder@@ABV?$basic_string@DU?$char_traits@D@std@@V?$allocator@D@2@@3@@ZV93@@std@@U?$less@H@2@V?$allocator@U?$pair@$$CBHU?$pair@P6A?AV?$shared_ptr@VImageTarget@cinder@@@tr1@std@@V?$shared_ptr@VDataTarget@cinder@@@23@V?$shared_ptr@VImageSource@cinder@@@23@VOptions@ImageTarget@cinder@@ABV?$basic_string@DU?$char_traits@D@std@@V?$allocator@D@2@@3@@ZV93@@std@@@std@@@2@$00@std@@@std@@@std@@_N@1@$$QAU?$pair@HU?$pair@P6A?AV?$shared_ptr@VImageTarget@cinder@@@tr1@std@@V?$shared_ptr@VDataTarget@cinder@@@23@V?$shared_ptr@VImageSource@cinder@@@23@VOptions@ImageTarget@cinder@@ABV?$basic_string@DU?$char_traits@D@std@@V?$allocator@D@2@@3@@ZV93@@std@@@1@@Z 0041de10 f i cinder:ImageIo.obj
 0001:0001ce80       ?_Copy@?$_Tree@V?$_Tmap_traits@HU?$pair@P6A?AV?$shared_ptr@VImageTarget@cinder@@@tr1@std@@V?$shared_ptr@VDataTarget@cinder@@@23@V?$shared_ptr@VImageSource@cinder@@@23@VOptions@ImageTarget@cinder@@ABV?$basic_string@DU?$char_traits@D@std@@V?$allocator@D@2@@3@@ZV93@@std@@U?$less@H@2@V?$allocator@U?$pair@$$CBHU?$pair@P6A?AV?$shared_ptr@VImageTarget@cinder@@@tr1@std@@V?$shared_ptr@VDataTarget@cinder@@@23@V?$shared_ptr@VImageSource@cinder@@@23@VOptions@ImageTarget@cinder@@ABV?$basic_string@DU?$char_traits@D@std@@V?$allocator@D@2@@3@@ZV93@@std@@@std@@@2@$00@std@@@std@@IAEXABV12@@Z 0041de80 f i cinder:ImageIo.obj
 0001:0001cf00       ?erase@?$_Tree@V?$_Tmap_traits@V?$basic_string@DU?$char_traits@D@std@@V?$allocator@D@2@@std@@V?$multimap@HP6A?AV?$shared_ptr@VImageSource@cinder@@@tr1@std@@V?$shared_ptr@VDataSource@cinder@@@23@VOptions@ImageSource@cinder@@@ZU?$less@H@3@V?$allocator@U?$pair@$$CBHP6A?AV?$shared_ptr@VImageSource@cinder@@@tr1@std@@V?$shared_ptr@VDataSource@cinder@@@23@VOptions@ImageSource@cinder@@@Z@std@@@3@@2@U?$less@V?$basic_string@DU?$char_traits@D@std@@V?$allocator@D@2@@std@@@2@V?$allocator@U?$pair@$$CBV?$basic_string@DU?$char_traits@D@std@@V?$allocator@D@2@@std@@V?$multimap@HP6A?AV?$shared_ptr@VImageSource@cinder@@@tr1@std@@V?$shared_ptr@VDataSource@cinder@@@23@VOptions@ImageSource@cinder@@@ZU?$less@H@3@V?$allocator@U?$pair@$$CBHP6A?AV?$shared_ptr@VImageSource@cinder@@@tr1@std@@V?$shared_ptr@VDataSource@cinder@@@23@VOptions@ImageSource@cinder@@@Z@std@@@3@@2@@std@@@2@$0A@@std@@@std@@QAE?AV?$_Tree_iterator@V?$_Tree_val@V?$_Tmap_traits@V?$basic_string@DU?$char_traits@D@std@@V?$allocator@D@2@@std@@V?$multimap@HP6A?AV?$shared_ptr@VImageSource@cinder@@@tr1@std@@V?$shared_ptr@VDataSource@cinder@@@23@VOptions@ImageSource@cinder@@@ZU?$less@H@3@V?$allocator@U?$pair@$$CBHP6A?AV?$shared_ptr@VImageSource@cinder@@@tr1@std@@V?$shared_ptr@VDataSource@cinder@@@23@VOptions@ImageSource@cinder@@@Z@std@@@3@@2@U?$less@V?$basic_string@DU?$char_traits@D@std@@V?$allocator@D@2@@std@@@2@V?$allocator@U?$pair@$$CBV?$basic_string@DU?$char_traits@D@std@@V?$allocator@D@2@@std@@V?$multimap@HP6A?AV?$shared_ptr@VImageSource@cinder@@@tr1@std@@V?$shared_ptr@VDataSource@cinder@@@23@VOptions@ImageSource@cinder@@@ZU?$less@H@3@V?$allocator@U?$pair@$$CBHP6A?AV?$shared_ptr@VImageSource@cinder@@@tr1@std@@V?$shared_ptr@VDataSource@cinder@@@23@VOptions@ImageSource@cinder@@@Z@std@@@3@@2@@std@@@2@$0A@@std@@@std@@@2@V?$_Tree_const_iterator@V?$_Tree_val@V?$_Tmap_traits@V?$basic_string@DU?$char_traits@D@std@@V?$allocator@D@2@@std@@V?$multimap@HP6A?AV?$shared_ptr@VImageSource@cinder@@@tr1@std@@V?$shared_ptr@VDataSource@cinder@@@23@VOptions@ImageSource@cinder@@@ZU?$less@H@3@V?$allocator@U?$pair@$$CBHP6A?AV?$shared_ptr@VImageSource@cinder@@@tr1@std@@V?$shared_ptr@VDataSource@cinder@@@23@VOptions@ImageSource@cinder@@@Z@std@@@3@@2@U?$less@V?$basic_string@DU?$char_traits@D@std@@V?$allocator@D@2@@std@@@2@V?$allocator@U?$pair@$$CBV?$basic_string@DU?$char_traits@D@std@@V?$allocator@D@2@@std@@V?$multimap@HP6A?AV?$shared_ptr@VImageSource@cinder@@@tr1@std@@V?$shared_ptr@VDataSource@cinder@@@23@VOptions@ImageSource@cinder@@@ZU?$less@H@3@V?$allocator@U?$pair@$$CBHP6A?AV?$shared_ptr@VImageSource@cinder@@@tr1@std@@V?$shared_ptr@VDataSource@cinder@@@23@VOptions@ImageSource@cinder@@@Z@std@@@3@@2@@std@@@2@$0A@@std@@@std@@@2@@Z 0041df00 f i cinder:ImageIo.obj
 0001:0001d1d0       ?_Erase@?$_Tree@V?$_Tmap_traits@V?$basic_string@DU?$char_traits@D@std@@V?$allocator@D@2@@std@@V?$multimap@HP6A?AV?$shared_ptr@VImageSource@cinder@@@tr1@std@@V?$shared_ptr@VDataSource@cinder@@@23@VOptions@ImageSource@cinder@@@ZU?$less@H@3@V?$allocator@U?$pair@$$CBHP6A?AV?$shared_ptr@VImageSource@cinder@@@tr1@std@@V?$shared_ptr@VDataSource@cinder@@@23@VOptions@ImageSource@cinder@@@Z@std@@@3@@2@U?$less@V?$basic_string@DU?$char_traits@D@std@@V?$allocator@D@2@@std@@@2@V?$allocator@U?$pair@$$CBV?$basic_string@DU?$char_traits@D@std@@V?$allocator@D@2@@std@@V?$multimap@HP6A?AV?$shared_ptr@VImageSource@cinder@@@tr1@std@@V?$shared_ptr@VDataSource@cinder@@@23@VOptions@ImageSource@cinder@@@ZU?$less@H@3@V?$allocator@U?$pair@$$CBHP6A?AV?$shared_ptr@VImageSource@cinder@@@tr1@std@@V?$shared_ptr@VDataSource@cinder@@@23@VOptions@ImageSource@cinder@@@Z@std@@@3@@2@@std@@@2@$0A@@std@@@std@@IAEXPAU_Node@?$_Tree_nod@V?$_Tmap_traits@V?$basic_string@DU?$char_traits@D@std@@V?$allocator@D@2@@std@@V?$multimap@HP6A?AV?$shared_ptr@VImageSource@cinder@@@tr1@std@@V?$shared_ptr@VDataSource@cinder@@@23@VOptions@ImageSource@cinder@@@ZU?$less@H@3@V?$allocator@U?$pair@$$CBHP6A?AV?$shared_ptr@VImageSource@cinder@@@tr1@std@@V?$shared_ptr@VDataSource@cinder@@@23@VOptions@ImageSource@cinder@@@Z@std@@@3@@2@U?$less@V?$basic_string@DU?$char_traits@D@std@@V?$allocator@D@2@@std@@@2@V?$allocator@U?$pair@$$CBV?$basic_string@DU?$char_traits@D@std@@V?$allocator@D@2@@std@@V?$multimap@HP6A?AV?$shared_ptr@VImageSource@cinder@@@tr1@std@@V?$shared_ptr@VDataSource@cinder@@@23@VOptions@ImageSource@cinder@@@ZU?$less@H@3@V?$allocator@U?$pair@$$CBHP6A?AV?$shared_ptr@VImageSource@cinder@@@tr1@std@@V?$shared_ptr@VDataSource@cinder@@@23@VOptions@ImageSource@cinder@@@Z@std@@@3@@2@@std@@@2@$0A@@std@@@2@@Z 0041e1d0 f i cinder:ImageIo.obj
 0001:0001d2b0       ??0?$_Tree@V?$_Tmap_traits@HU?$pair@P6A?AV?$shared_ptr@VImageTarget@cinder@@@tr1@std@@V?$shared_ptr@VDataTarget@cinder@@@23@V?$shared_ptr@VImageSource@cinder@@@23@VOptions@ImageTarget@cinder@@ABV?$basic_string@DU?$char_traits@D@std@@V?$allocator@D@2@@3@@ZV93@@std@@U?$less@H@2@V?$allocator@U?$pair@$$CBHU?$pair@P6A?AV?$shared_ptr@VImageTarget@cinder@@@tr1@std@@V?$shared_ptr@VDataTarget@cinder@@@23@V?$shared_ptr@VImageSource@cinder@@@23@VOptions@ImageTarget@cinder@@ABV?$basic_string@DU?$char_traits@D@std@@V?$allocator@D@2@@3@@ZV93@@std@@@std@@@2@$00@std@@@std@@QAE@ABV01@@Z 0041e2b0 f i cinder:ImageIo.obj
 0001:0001d380       ??1?$multimap@HU?$pair@P6A?AV?$shared_ptr@VImageTarget@cinder@@@tr1@std@@V?$shared_ptr@VDataTarget@cinder@@@23@V?$shared_ptr@VImageSource@cinder@@@23@VOptions@ImageTarget@cinder@@ABV?$basic_string@DU?$char_traits@D@std@@V?$allocator@D@2@@3@@ZV93@@std@@U?$less@H@2@V?$allocator@U?$pair@$$CBHU?$pair@P6A?AV?$shared_ptr@VImageTarget@cinder@@@tr1@std@@V?$shared_ptr@VDataTarget@cinder@@@23@V?$shared_ptr@VImageSource@cinder@@@23@VOptions@ImageTarget@cinder@@ABV?$basic_string@DU?$char_traits@D@std@@V?$allocator@D@2@@3@@ZV93@@std@@@std@@@2@@std@@QAE@XZ 0041e380 f i cinder:ImageIo.obj
 0001:0001d3e0       ??1?$pair@V?$basic_string@DU?$char_traits@D@std@@V?$allocator@D@2@@std@@V?$multimap@HU?$pair@P6A?AV?$shared_ptr@VImageTarget@cinder@@@tr1@std@@V?$shared_ptr@VDataTarget@cinder@@@23@V?$shared_ptr@VImageSource@cinder@@@23@VOptions@ImageTarget@cinder@@ABV?$basic_string@DU?$char_traits@D@std@@V?$allocator@D@2@@3@@ZV93@@std@@U?$less@H@2@V?$allocator@U?$pair@$$CBHU?$pair@P6A?AV?$shared_ptr@VImageTarget@cinder@@@tr1@std@@V?$shared_ptr@VDataTarget@cinder@@@23@V?$shared_ptr@VImageSource@cinder@@@23@VOptions@ImageTarget@cinder@@ABV?$basic_string@DU?$char_traits@D@std@@V?$allocator@D@2@@3@@ZV93@@std@@@std@@@2@@2@@std@@QAE@XZ 0041e3e0 f i cinder:ImageIo.obj
 0001:0001d470       ?erase@?$_Tree@V?$_Tmap_traits@V?$basic_string@DU?$char_traits@D@std@@V?$allocator@D@2@@std@@V?$multimap@HP6A?AV?$shared_ptr@VImageSource@cinder@@@tr1@std@@V?$shared_ptr@VDataSource@cinder@@@23@VOptions@ImageSource@cinder@@@ZU?$less@H@3@V?$allocator@U?$pair@$$CBHP6A?AV?$shared_ptr@VImageSource@cinder@@@tr1@std@@V?$shared_ptr@VDataSource@cinder@@@23@VOptions@ImageSource@cinder@@@Z@std@@@3@@2@U?$less@V?$basic_string@DU?$char_traits@D@std@@V?$allocator@D@2@@std@@@2@V?$allocator@U?$pair@$$CBV?$basic_string@DU?$char_traits@D@std@@V?$allocator@D@2@@std@@V?$multimap@HP6A?AV?$shared_ptr@VImageSource@cinder@@@tr1@std@@V?$shared_ptr@VDataSource@cinder@@@23@VOptions@ImageSource@cinder@@@ZU?$less@H@3@V?$allocator@U?$pair@$$CBHP6A?AV?$shared_ptr@VImageSource@cinder@@@tr1@std@@V?$shared_ptr@VDataSource@cinder@@@23@VOptions@ImageSource@cinder@@@Z@std@@@3@@2@@std@@@2@$0A@@std@@@std@@QAE?AV?$_Tree_iterator@V?$_Tree_val@V?$_Tmap_traits@V?$basic_string@DU?$char_traits@D@std@@V?$allocator@D@2@@std@@V?$multimap@HP6A?AV?$shared_ptr@VImageSource@cinder@@@tr1@std@@V?$shared_ptr@VDataSource@cinder@@@23@VOptions@ImageSource@cinder@@@ZU?$less@H@3@V?$allocator@U?$pair@$$CBHP6A?AV?$shared_ptr@VImageSource@cinder@@@tr1@std@@V?$shared_ptr@VDataSource@cinder@@@23@VOptions@ImageSource@cinder@@@Z@std@@@3@@2@U?$less@V?$basic_string@DU?$char_traits@D@std@@V?$allocator@D@2@@std@@@2@V?$allocator@U?$pair@$$CBV?$basic_string@DU?$char_traits@D@std@@V?$allocator@D@2@@std@@V?$multimap@HP6A?AV?$shared_ptr@VImageSource@cinder@@@tr1@std@@V?$shared_ptr@VDataSource@cinder@@@23@VOptions@ImageSource@cinder@@@ZU?$less@H@3@V?$allocator@U?$pair@$$CBHP6A?AV?$shared_ptr@VImageSource@cinder@@@tr1@std@@V?$shared_ptr@VDataSource@cinder@@@23@VOptions@ImageSource@cinder@@@Z@std@@@3@@2@@std@@@2@$0A@@std@@@std@@@2@V?$_Tree_const_iterator@V?$_Tree_val@V?$_Tmap_traits@V?$basic_string@DU?$char_traits@D@std@@V?$allocator@D@2@@std@@V?$multimap@HP6A?AV?$shared_ptr@VImageSource@cinder@@@tr1@std@@V?$shared_ptr@VDataSource@cinder@@@23@VOptions@ImageSource@cinder@@@ZU?$less@H@3@V?$allocator@U?$pair@$$CBHP6A?AV?$shared_ptr@VImageSource@cinder@@@tr1@std@@V?$shared_ptr@VDataSource@cinder@@@23@VOptions@ImageSource@cinder@@@Z@std@@@3@@2@U?$less@V?$basic_string@DU?$char_traits@D@std@@V?$allocator@D@2@@std@@@2@V?$allocator@U?$pair@$$CBV?$basic_string@DU?$char_traits@D@std@@V?$allocator@D@2@@std@@V?$multimap@HP6A?AV?$shared_ptr@VImageSource@cinder@@@tr1@std@@V?$shared_ptr@VDataSource@cinder@@@23@VOptions@ImageSource@cinder@@@ZU?$less@H@3@V?$allocator@U?$pair@$$CBHP6A?AV?$shared_ptr@VImageSource@cinder@@@tr1@std@@V?$shared_ptr@VDataSource@cinder@@@23@VOptions@ImageSource@cinder@@@Z@std@@@3@@2@@std@@@2@$0A@@std@@@std@@@2@0@Z 0041e470 f i cinder:ImageIo.obj
 0001:0001d530       ??$make_pair@AAV?$basic_string@DU?$char_traits@D@std@@V?$allocator@D@2@@std@@AAV?$multimap@HU?$pair@P6A?AV?$shared_ptr@VImageTarget@cinder@@@tr1@std@@V?$shared_ptr@VDataTarget@cinder@@@23@V?$shared_ptr@VImageSource@cinder@@@23@VOptions@ImageTarget@cinder@@ABV?$basic_string@DU?$char_traits@D@std@@V?$allocator@D@2@@3@@ZV93@@std@@U?$less@H@2@V?$allocator@U?$pair@$$CBHU?$pair@P6A?AV?$shared_ptr@VImageTarget@cinder@@@tr1@std@@V?$shared_ptr@VDataTarget@cinder@@@23@V?$shared_ptr@VImageSource@cinder@@@23@VOptions@ImageTarget@cinder@@ABV?$basic_string@DU?$char_traits@D@std@@V?$allocator@D@2@@3@@ZV93@@std@@@std@@@2@@2@@std@@YA?AU?$pair@V?$basic_string@DU?$char_traits@D@std@@V?$allocator@D@2@@std@@V?$multimap@HU?$pair@P6A?AV?$shared_ptr@VImageTarget@cinder@@@tr1@std@@V?$shared_ptr@VDataTarget@cinder@@@23@V?$shared_ptr@VImageSource@cinder@@@23@VOptions@ImageTarget@cinder@@ABV?$basic_string@DU?$char_traits@D@std@@V?$allocator@D@2@@3@@ZV93@@std@@U?$less@H@2@V?$allocator@U?$pair@$$CBHU?$pair@P6A?AV?$shared_ptr@VImageTarget@cinder@@@tr1@std@@V?$shared_ptr@VDataTarget@cinder@@@23@V?$shared_ptr@VImageSource@cinder@@@23@VOptions@ImageTarget@cinder@@ABV?$basic_string@DU?$char_traits@D@std@@V?$allocator@D@2@@3@@ZV93@@std@@@std@@@2@@2@@0@AAV?$basic_string@DU?$char_traits@D@std@@V?$allocator@D@2@@0@AAV?$multimap@HU?$pair@P6A?AV?$shared_ptr@VImageTarget@cinder@@@tr1@std@@V?$shared_ptr@VDataTarget@cinder@@@23@V?$shared_ptr@VImageSource@cinder@@@23@VOptions@ImageTarget@cinder@@ABV?$basic_string@DU?$char_traits@D@std@@V?$allocator@D@2@@3@@ZV93@@std@@U?$less@H@2@V?$allocator@U?$pair@$$CBHU?$pair@P6A?AV?$shared_ptr@VImageTarget@cinder@@@tr1@std@@V?$shared_ptr@VDataTarget@cinder@@@23@V?$shared_ptr@VImageSource@cinder@@@23@VOptions@ImageTarget@cinder@@ABV?$basic_string@DU?$char_traits@D@std@@V?$allocator@D@2@@3@@ZV93@@std@@@std@@@2@@0@@Z 0041e530 f i cinder:ImageIo.obj
 0001:0001d5b0       ??$_Destroy@U?$pair@$$CBV?$basic_string@DU?$char_traits@D@std@@V?$allocator@D@2@@std@@V?$multimap@HU?$pair@P6A?AV?$shared_ptr@VImageTarget@cinder@@@tr1@std@@V?$shared_ptr@VDataTarget@cinder@@@23@V?$shared_ptr@VImageSource@cinder@@@23@VOptions@ImageTarget@cinder@@ABV?$basic_string@DU?$char_traits@D@std@@V?$allocator@D@2@@3@@ZV93@@std@@U?$less@H@2@V?$allocator@U?$pair@$$CBHU?$pair@P6A?AV?$shared_ptr@VImageTarget@cinder@@@tr1@std@@V?$shared_ptr@VDataTarget@cinder@@@23@V?$shared_ptr@VImageSource@cinder@@@23@VOptions@ImageTarget@cinder@@ABV?$basic_string@DU?$char_traits@D@std@@V?$allocator@D@2@@3@@ZV93@@std@@@std@@@2@@2@@std@@@std@@YAXPAU?$pair@$$CBV?$basic_string@DU?$char_traits@D@std@@V?$allocator@D@2@@std@@V?$multimap@HU?$pair@P6A?AV?$shared_ptr@VImageTarget@cinder@@@tr1@std@@V?$shared_ptr@VDataTarget@cinder@@@23@V?$shared_ptr@VImageSource@cinder@@@23@VOptions@ImageTarget@cinder@@ABV?$basic_string@DU?$char_traits@D@std@@V?$allocator@D@2@@3@@ZV93@@std@@U?$less@H@2@V?$allocator@U?$pair@$$CBHU?$pair@P6A?AV?$shared_ptr@VImageTarget@cinder@@@tr1@std@@V?$shared_ptr@VDataTarget@cinder@@@23@V?$shared_ptr@VImageSource@cinder@@@23@VOptions@ImageTarget@cinder@@ABV?$basic_string@DU?$char_traits@D@std@@V?$allocator@D@2@@3@@ZV93@@std@@@std@@@2@@2@@0@@Z 0041e5b0 f i cinder:ImageIo.obj
 0001:0001d640       ??1?$map@V?$basic_string@DU?$char_traits@D@std@@V?$allocator@D@2@@std@@V?$multimap@HP6A?AV?$shared_ptr@VImageSource@cinder@@@tr1@std@@V?$shared_ptr@VDataSource@cinder@@@23@VOptions@ImageSource@cinder@@@ZU?$less@H@3@V?$allocator@U?$pair@$$CBHP6A?AV?$shared_ptr@VImageSource@cinder@@@tr1@std@@V?$shared_ptr@VDataSource@cinder@@@23@VOptions@ImageSource@cinder@@@Z@std@@@3@@2@U?$less@V?$basic_string@DU?$char_traits@D@std@@V?$allocator@D@2@@std@@@2@V?$allocator@U?$pair@$$CBV?$basic_string@DU?$char_traits@D@std@@V?$allocator@D@2@@std@@V?$multimap@HP6A?AV?$shared_ptr@VImageSource@cinder@@@tr1@std@@V?$shared_ptr@VDataSource@cinder@@@23@VOptions@ImageSource@cinder@@@ZU?$less@H@3@V?$allocator@U?$pair@$$CBHP6A?AV?$shared_ptr@VImageSource@cinder@@@tr1@std@@V?$shared_ptr@VDataSource@cinder@@@23@VOptions@ImageSource@cinder@@@Z@std@@@3@@2@@std@@@2@@std@@QAE@XZ 0041e640 f i cinder:ImageIo.obj
 0001:0001d6a0       ??$_Buynode@U?$pair@V?$basic_string@DU?$char_traits@D@std@@V?$allocator@D@2@@std@@V?$multimap@HU?$pair@P6A?AV?$shared_ptr@VImageTarget@cinder@@@tr1@std@@V?$shared_ptr@VDataTarget@cinder@@@23@V?$shared_ptr@VImageSource@cinder@@@23@VOptions@ImageTarget@cinder@@ABV?$basic_string@DU?$char_traits@D@std@@V?$allocator@D@2@@3@@ZV93@@std@@U?$less@H@2@V?$allocator@U?$pair@$$CBHU?$pair@P6A?AV?$shared_ptr@VImageTarget@cinder@@@tr1@std@@V?$shared_ptr@VDataTarget@cinder@@@23@V?$shared_ptr@VImageSource@cinder@@@23@VOptions@ImageTarget@cinder@@ABV?$basic_string@DU?$char_traits@D@std@@V?$allocator@D@2@@3@@ZV93@@std@@@std@@@2@@2@@std@@@?$_Tree_val@V?$_Tmap_traits@V?$basic_string@DU?$char_traits@D@std@@V?$allocator@D@2@@std@@V?$multimap@HU?$pair@P6A?AV?$shared_ptr@VImageTarget@cinder@@@tr1@std@@V?$shared_ptr@VDataTarget@cinder@@@23@V?$shared_ptr@VImageSource@cinder@@@23@VOptions@ImageTarget@cinder@@ABV?$basic_string@DU?$char_traits@D@std@@V?$allocator@D@2@@3@@ZV93@@std@@U?$less@H@2@V?$allocator@U?$pair@$$CBHU?$pair@P6A?AV?$shared_ptr@VImageTarget@cinder@@@tr1@std@@V?$shared_ptr@VDataTarget@cinder@@@23@V?$shared_ptr@VImageSource@cinder@@@23@VOptions@ImageTarget@cinder@@ABV?$basic_string@DU?$char_traits@D@std@@V?$allocator@D@2@@3@@ZV93@@std@@@std@@@2@@2@U?$less@V?$basic_string@DU?$char_traits@D@std@@V?$allocator@D@2@@std@@@2@V?$allocator@U?$pair@$$CBV?$basic_string@DU?$char_traits@D@std@@V?$allocator@D@2@@std@@V?$multimap@HU?$pair@P6A?AV?$shared_ptr@VImageTarget@cinder@@@tr1@std@@V?$shared_ptr@VDataTarget@cinder@@@23@V?$shared_ptr@VImageSource@cinder@@@23@VOptions@ImageTarget@cinder@@ABV?$basic_string@DU?$char_traits@D@std@@V?$allocator@D@2@@3@@ZV93@@std@@U?$less@H@2@V?$allocator@U?$pair@$$CBHU?$pair@P6A?AV?$shared_ptr@VImageTarget@cinder@@@tr1@std@@V?$shared_ptr@VDataTarget@cinder@@@23@V?$shared_ptr@VImageSource@cinder@@@23@VOptions@ImageTarget@cinder@@ABV?$basic_string@DU?$char_traits@D@std@@V?$allocator@D@2@@3@@ZV93@@std@@@std@@@2@@2@@std@@@2@$0A@@std@@@std@@QAEPAU_Node@?$_Tree_nod@V?$_Tmap_traits@V?$basic_string@DU?$char_traits@D@std@@V?$allocator@D@2@@std@@V?$multimap@HU?$pair@P6A?AV?$shared_ptr@VImageTarget@cinder@@@tr1@std@@V?$shared_ptr@VDataTarget@cinder@@@23@V?$shared_ptr@VImageSource@cinder@@@23@VOptions@ImageTarget@cinder@@ABV?$basic_string@DU?$char_traits@D@std@@V?$allocator@D@2@@3@@ZV93@@std@@U?$less@H@2@V?$allocator@U?$pair@$$CBHU?$pair@P6A?AV?$shared_ptr@VImageTarget@cinder@@@tr1@std@@V?$shared_ptr@VDataTarget@cinder@@@23@V?$shared_ptr@VImageSource@cinder@@@23@VOptions@ImageTarget@cinder@@ABV?$basic_string@DU?$char_traits@D@std@@V?$allocator@D@2@@3@@ZV93@@std@@@std@@@2@@2@U?$less@V?$basic_string@DU?$char_traits@D@std@@V?$allocator@D@2@@std@@@2@V?$allocator@U?$pair@$$CBV?$basic_string@DU?$char_traits@D@std@@V?$allocator@D@2@@std@@V?$multimap@HU?$pair@P6A?AV?$shared_ptr@VImageTarget@cinder@@@tr1@std@@V?$shared_ptr@VDataTarget@cinder@@@23@V?$shared_ptr@VImageSource@cinder@@@23@VOptions@ImageTarget@cinder@@ABV?$basic_string@DU?$char_traits@D@std@@V?$allocator@D@2@@3@@ZV93@@std@@U?$less@H@2@V?$allocator@U?$pair@$$CBHU?$pair@P6A?AV?$shared_ptr@VImageTarget@cinder@@@tr1@std@@V?$shared_ptr@VDataTarget@cinder@@@23@V?$shared_ptr@VImageSource@cinder@@@23@VOptions@ImageTarget@cinder@@ABV?$basic_string@DU?$char_traits@D@std@@V?$allocator@D@2@@3@@ZV93@@std@@@std@@@2@@2@@std@@@2@$0A@@std@@@1@$$QAU?$pair@V?$basic_string@DU?$char_traits@D@std@@V?$allocator@D@2@@std@@V?$multimap@HU?$pair@P6A?AV?$shared_ptr@VImageTarget@cinder@@@tr1@std@@V?$shared_ptr@VDataTarget@cinder@@@23@V?$shared_ptr@VImageSource@cinder@@@23@VOptions@ImageTarget@cinder@@ABV?$basic_string@DU?$char_traits@D@std@@V?$allocator@D@2@@3@@ZV93@@std@@U?$less@H@2@V?$allocator@U?$pair@$$CBHU?$pair@P6A?AV?$shared_ptr@VImageTarget@cinder@@@tr1@std@@V?$shared_ptr@VDataTarget@cinder@@@23@V?$shared_ptr@VImageSource@cinder@@@23@VOptions@ImageTarget@cinder@@ABV?$basic_string@DU?$char_traits@D@std@@V?$allocator@D@2@@3@@ZV93@@std@@@std@@@2@@2@@1@@Z 0041e6a0 f i cinder:ImageIo.obj
 0001:0001d790       ?_Insert@?$_Tree@V?$_Tmap_traits@V?$basic_string@DU?$char_traits@D@std@@V?$allocator@D@2@@std@@V?$multimap@HU?$pair@P6A?AV?$shared_ptr@VImageTarget@cinder@@@tr1@std@@V?$shared_ptr@VDataTarget@cinder@@@23@V?$shared_ptr@VImageSource@cinder@@@23@VOptions@ImageTarget@cinder@@ABV?$basic_string@DU?$char_traits@D@std@@V?$allocator@D@2@@3@@ZV93@@std@@U?$less@H@2@V?$allocator@U?$pair@$$CBHU?$pair@P6A?AV?$shared_ptr@VImageTarget@cinder@@@tr1@std@@V?$shared_ptr@VDataTarget@cinder@@@23@V?$shared_ptr@VImageSource@cinder@@@23@VOptions@ImageTarget@cinder@@ABV?$basic_string@DU?$char_traits@D@std@@V?$allocator@D@2@@3@@ZV93@@std@@@std@@@2@@2@U?$less@V?$basic_string@DU?$char_traits@D@std@@V?$allocator@D@2@@std@@@2@V?$allocator@U?$pair@$$CBV?$basic_string@DU?$char_traits@D@std@@V?$allocator@D@2@@std@@V?$multimap@HU?$pair@P6A?AV?$shared_ptr@VImageTarget@cinder@@@tr1@std@@V?$shared_ptr@VDataTarget@cinder@@@23@V?$shared_ptr@VImageSource@cinder@@@23@VOptions@ImageTarget@cinder@@ABV?$basic_string@DU?$char_traits@D@std@@V?$allocator@D@2@@3@@ZV93@@std@@U?$less@H@2@V?$allocator@U?$pair@$$CBHU?$pair@P6A?AV?$shared_ptr@VImageTarget@cinder@@@tr1@std@@V?$shared_ptr@VDataTarget@cinder@@@23@V?$shared_ptr@VImageSource@cinder@@@23@VOptions@ImageTarget@cinder@@ABV?$basic_string@DU?$char_traits@D@std@@V?$allocator@D@2@@3@@ZV93@@std@@@std@@@2@@2@@std@@@2@$0A@@std@@@std@@IAE?AV?$_Tree_iterator@V?$_Tree_val@V?$_Tmap_traits@V?$basic_string@DU?$char_traits@D@std@@V?$allocator@D@2@@std@@V?$multimap@HU?$pair@P6A?AV?$shared_ptr@VImageTarget@cinder@@@tr1@std@@V?$shared_ptr@VDataTarget@cinder@@@23@V?$shared_ptr@VImageSource@cinder@@@23@VOptions@ImageTarget@cinder@@ABV?$basic_string@DU?$char_traits@D@std@@V?$allocator@D@2@@3@@ZV93@@std@@U?$less@H@2@V?$allocator@U?$pair@$$CBHU?$pair@P6A?AV?$shared_ptr@VImageTarget@cinder@@@tr1@std@@V?$shared_ptr@VDataTarget@cinder@@@23@V?$shared_ptr@VImageSource@cinder@@@23@VOptions@ImageTarget@cinder@@ABV?$basic_string@DU?$char_traits@D@std@@V?$allocator@D@2@@3@@ZV93@@std@@@std@@@2@@2@U?$less@V?$basic_string@DU?$char_traits@D@std@@V?$allocator@D@2@@std@@@2@V?$allocator@U?$pair@$$CBV?$basic_string@DU?$char_traits@D@std@@V?$allocator@D@2@@std@@V?$multimap@HU?$pair@P6A?AV?$shared_ptr@VImageTarget@cinder@@@tr1@std@@V?$shared_ptr@VDataTarget@cinder@@@23@V?$shared_ptr@VImageSource@cinder@@@23@VOptions@ImageTarget@cinder@@ABV?$basic_string@DU?$char_traits@D@std@@V?$allocator@D@2@@3@@ZV93@@std@@U?$less@H@2@V?$allocator@U?$pair@$$CBHU?$pair@P6A?AV?$shared_ptr@VImageTarget@cinder@@@tr1@std@@V?$shared_ptr@VDataTarget@cinder@@@23@V?$shared_ptr@VImageSource@cinder@@@23@VOptions@ImageTarget@cinder@@ABV?$basic_string@DU?$char_traits@D@std@@V?$allocator@D@2@@3@@ZV93@@std@@@std@@@2@@2@@std@@@2@$0A@@std@@@std@@@2@_NPAU_Node@?$_Tree_nod@V?$_Tmap_traits@V?$basic_string@DU?$char_traits@D@std@@V?$allocator@D@2@@std@@V?$multimap@HU?$pair@P6A?AV?$shared_ptr@VImageTarget@cinder@@@tr1@std@@V?$shared_ptr@VDataTarget@cinder@@@23@V?$shared_ptr@VImageSource@cinder@@@23@VOptions@ImageTarget@cinder@@ABV?$basic_string@DU?$char_traits@D@std@@V?$allocator@D@2@@3@@ZV93@@std@@U?$less@H@2@V?$allocator@U?$pair@$$CBHU?$pair@P6A?AV?$shared_ptr@VImageTarget@cinder@@@tr1@std@@V?$shared_ptr@VDataTarget@cinder@@@23@V?$shared_ptr@VImageSource@cinder@@@23@VOptions@ImageTarget@cinder@@ABV?$basic_string@DU?$char_traits@D@std@@V?$allocator@D@2@@3@@ZV93@@std@@@std@@@2@@2@U?$less@V?$basic_string@DU?$char_traits@D@std@@V?$allocator@D@2@@std@@@2@V?$allocator@U?$pair@$$CBV?$basic_string@DU?$char_traits@D@std@@V?$allocator@D@2@@std@@V?$multimap@HU?$pair@P6A?AV?$shared_ptr@VImageTarget@cinder@@@tr1@std@@V?$shared_ptr@VDataTarget@cinder@@@23@V?$shared_ptr@VImageSource@cinder@@@23@VOptions@ImageTarget@cinder@@ABV?$basic_string@DU?$char_traits@D@std@@V?$allocator@D@2@@3@@ZV93@@std@@U?$less@H@2@V?$allocator@U?$pair@$$CBHU?$pair@P6A?AV?$shared_ptr@VImageTarget@cinder@@@tr1@std@@V?$shared_ptr@VDataTarget@cinder@@@23@V?$shared_ptr@VImageSource@cinder@@@23@VOptions@ImageTarget@cinder@@ABV?$basic_string@DU?$char_traits@D@std@@V?$allocator@D@2@@3@@ZV93@@std@@@std@@@2@@2@@std@@@2@$0A@@std@@@2@1@Z 0041e790 f i cinder:ImageIo.obj
 0001:0001d9c0       ?erase@?$_Tree@V?$_Tmap_traits@V?$basic_string@DU?$char_traits@D@std@@V?$allocator@D@2@@std@@V?$multimap@HU?$pair@P6A?AV?$shared_ptr@VImageTarget@cinder@@@tr1@std@@V?$shared_ptr@VDataTarget@cinder@@@23@V?$shared_ptr@VImageS8de6e224d2e6bfd61b9b6814a738cec7 0041e9c0 f i cinder:ImageIo.obj
 0001:0001dc90       ?_Erase@?$_Tree@V?$_Tmap_traits@V?$basic_string@DU?$char_traits@D@std@@V?$allocator@D@2@@std@@V?$multimap@HU?$pair@P6A?AV?$shared_ptr@VImageTarget@cinder@@@tr1@std@@V?$shared_ptr@VDataTarget@cinder@@@23@V?$shared_ptr@VImageSource@cinder@@@23@VOptions@ImageTarget@cinder@@ABV?$basic_string@DU?$char_traits@D@std@@V?$allocator@D@2@@3@@ZV93@@std@@U?$less@H@2@V?$allocator@U?$pair@$$CBHU?$pair@P6A?AV?$shared_ptr@VImageTarget@cinder@@@tr1@std@@V?$shared_ptr@VDataTarget@cinder@@@23@V?$shared_ptr@VImageSource@cinder@@@23@VOptions@ImageTarget@cinder@@ABV?$basic_string@DU?$char_traits@D@std@@V?$allocator@D@2@@3@@ZV93@@std@@@std@@@2@@2@U?$less@V?$basic_string@DU?$char_traits@D@std@@V?$allocator@D@2@@std@@@2@V?$allocator@U?$pair@$$CBV?$basic_string@DU?$char_traits@D@std@@V?$allocator@D@2@@std@@V?$multimap@HU?$pair@P6A?AV?$shared_ptr@VImageTarget@cinder@@@tr1@std@@V?$shared_ptr@VDataTarget@cinder@@@23@V?$shared_ptr@VImageSource@cinder@@@23@VOptions@ImageTarget@cinder@@ABV?$basic_string@DU?$char_traits@D@std@@V?$allocator@D@2@@3@@ZV93@@std@@U?$less@H@2@V?$allocator@U?$pair@$$CBHU?$pair@P6A?AV?$shared_ptr@VImageTarget@cinder@@@tr1@std@@V?$shared_ptr@VDataTarget@cinder@@@23@V?$shared_ptr@VImageSource@cinder@@@23@VOptions@ImageTarget@cinder@@ABV?$basic_string@DU?$char_traits@D@std@@V?$allocator@D@2@@3@@ZV93@@std@@@std@@@2@@2@@std@@@2@$0A@@std@@@std@@IAEXPAU_Node@?$_Tree_nod@V?$_Tmap_traits@V?$basic_string@DU?$char_traits@D@std@@V?$allocator@D@2@@std@@V?$multimap@HU?$pair@P6A?AV?$shared_ptr@VImageTarget@cinder@@@tr1@std@@V?$shared_ptr@VDataTarget@cinder@@@23@V?$shared_ptr@VImageSource@cinder@@@23@VOptions@ImageTarget@cinder@@ABV?$basic_string@DU?$char_traits@D@std@@V?$allocator@D@2@@3@@ZV93@@std@@U?$less@H@2@V?$allocator@U?$pair@$$CBHU?$pair@P6A?AV?$shared_ptr@VImageTarget@cinder@@@tr1@std@@V?$shared_ptr@VDataTarget@cinder@@@23@V?$shared_ptr@VImageSource@cinder@@@23@VOptions@ImageTarget@cinder@@ABV?$basic_string@DU?$char_traits@D@std@@V?$allocator@D@2@@3@@ZV93@@std@@@std@@@2@@2@U?$less@V?$basic_string@DU?$char_traits@D@std@@V?$allocator@D@2@@std@@@2@V?$allocator@U?$pair@$$CBV?$basic_string@DU?$char_traits@D@std@@V?$allocator@D@2@@std@@V?$multimap@HU?$pair@P6A?AV?$shared_ptr@VImageTarget@cinder@@@tr1@std@@V?$shared_ptr@VDataTarget@cinder@@@23@V?$shared_ptr@VImageSource@cinder@@@23@VOptions@ImageTarget@cinder@@ABV?$basic_string@DU?$char_traits@D@std@@V?$allocator@D@2@@3@@ZV93@@std@@U?$less@H@2@V?$allocator@U?$pair@$$CBHU?$pair@P6A?AV?$shared_ptr@VImageTarget@cinder@@@tr1@std@@V?$shared_ptr@VDataTarget@cinder@@@23@V?$shared_ptr@VImageSource@cinder@@@23@VOptions@ImageTarget@cinder@@ABV?$basic_string@DU?$char_traits@D@std@@V?$allocator@D@2@@3@@ZV93@@std@@@std@@@2@@2@@std@@@2@$0A@@std@@@2@@Z 0041ec90 f i cinder:ImageIo.obj
 0001:0001dd70       ?_Linsert@?$_Tree@V?$_Tmap_traits@V?$basic_string@DU?$char_traits@D@std@@V?$allocator@D@2@@std@@V?$multimap@HU?$pair@P6A?AV?$shared_ptr@VImageTarget@cinder@@@tr1@std@@V?$shared_ptr@VDataTarget@cinder@@@23@V?$shared_ptr@VIma35db66e00551a5ac0eb0b1d003874bcc 0041ed70 f i cinder:ImageIo.obj
 0001:0001df20       ?registerTargetType@Inst@ImageIoRegistrar@cinder@@QAEXV?$basic_string@DU?$char_traits@D@std@@V?$allocator@D@2@@std@@P6A?AV?$shared_ptr@VImageTarget@cinder@@@tr1@5@V?$shared_ptr@VDataTarget@cinder@@@75@V?$shared_ptr@VImageSource@cinder@@@75@VOptions@ImageTarget@3@ABV45@@ZH4@Z 0041ef20 f   cinder:ImageIo.obj
 0001:0001e240       ?erase@?$_Tree@V?$_Tmap_traits@V?$basic_string@DU?$char_traits@D@std@@V?$allocator@D@2@@std@@V?$multimap@HU?$pair@P6A?AV?$shared_ptr@VImageTarget@cinder@@@tr1@std@@V?$shared_ptr@VDataTarget@cinder@@@23@V?$shared_ptr@VImageSda3424650875b2c85800043577b5cf4c 0041f240 f i cinder:ImageIo.obj
 0001:0001e300       ??1Inst@ImageIoRegistrar@cinder@@QAE@XZ 0041f300 f i cinder:ImageIo.obj
 0001:0001e3c0       ??0Inst@ImageIoRegistrar@cinder@@QAE@XZ 0041f3c0 f i cinder:ImageIo.obj
 0001:0001e510       ?_Destroy@?$_Ref_count@UInst@ImageIoRegistrar@cinder@@@tr1@std@@EAEXXZ 0041f510 f i cinder:ImageIo.obj
 0001:0001e530       ??$_Resetp@UInst@ImageIoRegistrar@cinder@@@?$shared_ptr@UInst@ImageIoRegistrar@cinder@@@tr1@std@@AAEXPAUInst@ImageIoRegistrar@cinder@@@Z 0041f530 f i cinder:ImageIo.obj
 0001:0001e5d0       ?instance@ImageIoRegistrar@cinder@@CAPAUInst@12@XZ 0041f5d0 f   cinder:ImageIo.obj
 0001:0001e6c0       ?createSource@ImageIoRegistrar@cinder@@SA?AV?$shared_ptr@VImageSource@cinder@@@tr1@std@@V?$shared_ptr@VDataSource@cinder@@@45@VOptions@ImageSource@2@V?$basic_string@DU?$char_traits@D@std@@V?$allocator@D@2@@5@@Z 0041f6c0 f   cinder:ImageIo.obj
 0001:0001e7c0       ?registerTargetType@ImageIoRegistrar@cinder@@SAXV?$basic_string@DU?$char_traits@D@std@@V?$allocator@D@2@@std@@P6A?AV?$shared_ptr@VImageTarget@cinder@@@tr1@4@V?$shared_ptr@VDataTarget@cinder@@@64@V?$shared_ptr@VImageSource@cinder@@@64@VOptions@ImageTarget@2@ABV34@@ZH4@Z 0041f7c0 f   cinder:ImageIo.obj
 0001:0001e860       ?registerSourceGeneric@ImageIoRegistrar@cinder@@SAXP6A?AV?$shared_ptr@VImageSource@cinder@@@tr1@std@@V?$shared_ptr@VDataSource@cinder@@@45@VOptions@ImageSource@2@@ZH@Z 0041f860 f   cinder:ImageIo.obj
 0001:0001e8a0       ?loadImage@cinder@@YA?AV?$shared_ptr@VImageSource@cinder@@@tr1@std@@V?$shared_ptr@VDataSource@cinder@@@34@VOptions@ImageSource@1@V?$basic_string@DU?$char_traits@D@std@@V?$allocator@D@2@@4@@Z 0041f8a0 f   cinder:ImageIo.obj
 0001:0001e9f0       ??0Format@Texture@gl@cinder@@QAE@XZ 0041f9f0 f   cinder:Texture.obj
 0001:0001ea20       ??$checked_array_delete@E@boost@@YAXPAE@Z 0041fa20 f i cinder:Texture.obj
 0001:0001ea30       ??_GObj@Texture@gl@cinder@@QAEPAXI@Z 0041fa30 f i cinder:Texture.obj
 0001:0001ea80       ?_Destroy@?$_Ref_count@UObj@Texture@gl@cinder@@@tr1@std@@EAEXXZ 0041fa80 f i cinder:Texture.obj
 0001:0001eac0       ?_Get_deleter@?$_Ref_count_del@MU?$checked_array_deleter@M@boost@@@tr1@std@@UBEPAXABVtype_info@@@Z 0041fac0 f i cinder:Texture.obj
 0001:0001eaf0       ?_Get_deleter@?$_Ref_count_del@EP6AXPAE@Z@tr1@std@@UBEPAXABVtype_info@@@Z 0041faf0 f i cinder:Texture.obj
 0001:0001eb20       ?_Destroy@?$_Ref_count@V?$ImageTargetGLTexture@M@gl@cinder@@@tr1@std@@EAEXXZ 0041fb20 f i cinder:Texture.obj
 0001:0001eb20       ?_Destroy@?$_Ref_count@VImageTargetFileWic@cinder@@@tr1@std@@EAEXXZ 0041fb20 f i cinder:ImageTargetFileWic.obj
 0001:0001eb20       ?_Destroy@?$_Ref_count@V?$ImageTargetGLTexture@E@gl@cinder@@@tr1@std@@EAEXXZ 0041fb20 f i cinder:Texture.obj
 0001:0001eb20       ?_Destroy@?$_Ref_count@VImageSourceFileWic@cinder@@@tr1@std@@EAEXXZ 0041fb20 f i cinder:ImageSourceFileWic.obj
 0001:0001eb20       ?_Destroy@?$_Ref_count@V?$ImageTargetGLTexture@G@gl@cinder@@@tr1@std@@EAEXXZ 0041fb20 f i cinder:Texture.obj
 0001:0001eb20       ?_Destroy@?$_Ref_count@V?$ImageTargetChannel@M@cinder@@@tr1@std@@EAEXXZ 0041fb20 f i cinder:Channel.obj
 0001:0001eb40       ?init@Texture@gl@cinder@@IAEXPBEHIIABUFormat@123@@Z 0041fb40 f   cinder:Texture.obj
 0001:0001ec50       ?init@Texture@gl@cinder@@IAEXPBMHABUFormat@123@@Z 0041fc50 f   cinder:Texture.obj
 0001:0001ed70       ?setWrapS@Texture@gl@cinder@@QAEXI@Z 0041fd70 f   cinder:Texture.obj
 0001:0001ed90       ?setWrapT@Texture@gl@cinder@@QAEXI@Z 0041fd90 f   cinder:Texture.obj
 0001:0001edb0       ?setMinFilter@Texture@gl@cinder@@QAEXI@Z 0041fdb0 f   cinder:Texture.obj
 0001:0001edd0       ?setMagFilter@Texture@gl@cinder@@QAEXI@Z 0041fdd0 f   cinder:Texture.obj
 0001:0001edf0       ?bind@Texture@gl@cinder@@QBEXI@Z 0041fdf0 f   cinder:Texture.obj
 0001:0001ee30       ?unbind@Texture@gl@cinder@@QBEXI@Z 0041fe30 f   cinder:Texture.obj
 0001:0001ee70       ?enableAndBind@Texture@gl@cinder@@QBEXXZ 0041fe70 f   cinder:Texture.obj
 0001:0001eea0       ?disable@Texture@gl@cinder@@QBEXXZ 0041fea0 f   cinder:Texture.obj
 0001:0001eeb0       ??$_Resetp@UObj@Texture@gl@cinder@@@?$shared_ptr@UObj@Texture@gl@cinder@@@tr1@std@@AAEXPAUObj@Texture@gl@cinder@@@Z 0041feb0 f i cinder:Texture.obj
 0001:0001ef50       ?getWidth@Texture@gl@cinder@@QBEHXZ 0041ff50 f   cinder:Texture.obj
 0001:0001efd0       ?getHeight@Texture@gl@cinder@@QBEHXZ 0041ffd0 f   cinder:Texture.obj
 0001:0001f050       ?getCleanWidth@Texture@gl@cinder@@QBEHXZ 00420050 f   cinder:Texture.obj
 0001:0001f0d0       ?getCleanHeight@Texture@gl@cinder@@QBEHXZ 004200d0 f   cinder:Texture.obj
 0001:0001f150       ?getAreaTexCoords@Texture@gl@cinder@@QBE?AV?$RectT@M@3@ABV?$AreaT@H@3@@Z 00420150 f   cinder:Texture.obj
 0001:0001f220       ??$_Resetp@MU?$checked_array_deleter@M@boost@@@?$shared_ptr@M@tr1@std@@AAEXPAMU?$checked_array_deleter@M@boost@@@Z 00420220 f i cinder:Texture.obj
 0001:0001f2c0       ??0?$ImageTargetGLTexture@E@gl@cinder@@AAE@PBVTexture@12@AAW4ChannelOrder@ImageIo@2@_N2@Z 004202c0 f i cinder:Texture.obj
 0001:0001f380       ?getRowPointer@?$ImageTargetGLTexture@E@gl@cinder@@UAEPAXH@Z 00420380 f i cinder:Texture.obj
 0001:0001f3a0       ??_E?$ImageTargetGLTexture@E@gl@cinder@@UAEPAXI@Z 004203a0 f i cinder:Texture.obj
 0001:0001f3a0       ??_G?$ImageTargetGLTexture@E@gl@cinder@@UAEPAXI@Z 004203a0 f i cinder:Texture.obj
 0001:0001f3e0       ??0?$ImageTargetGLTexture@G@gl@cinder@@AAE@PBVTexture@12@AAW4ChannelOrder@ImageIo@2@_N2@Z 004203e0 f i cinder:Texture.obj
 0001:0001f4b0       ?getRowPointer@?$ImageTargetGLTexture@G@gl@cinder@@UAEPAXH@Z 004204b0 f i cinder:Texture.obj
 0001:0001f4d0       ??_G?$ImageTargetGLTexture@G@gl@cinder@@UAEPAXI@Z 004204d0 f i cinder:Texture.obj
 0001:0001f4d0       ??_E?$ImageTargetGLTexture@G@gl@cinder@@UAEPAXI@Z 004204d0 f i cinder:Texture.obj
 0001:0001f510       ??0?$ImageTargetGLTexture@M@gl@cinder@@AAE@PBVTexture@12@AAW4ChannelOrder@ImageIo@2@_N2@Z 00420510 f i cinder:Texture.obj
 0001:0001f5e0       ?hasAlpha@?$ImageTargetGLTexture@G@gl@cinder@@UBE_NXZ 004205e0 f i cinder:Texture.obj
 0001:0001f5e0       ?hasAlpha@?$ImageTargetGLTexture@M@gl@cinder@@UBE_NXZ 004205e0 f i cinder:Texture.obj
 0001:0001f5e0       ?hasAlpha@?$ImageTargetGLTexture@E@gl@cinder@@UBE_NXZ 004205e0 f i cinder:Texture.obj
 0001:0001f5f0       ?getRowPointer@?$ImageTargetGLTexture@M@gl@cinder@@UAEPAXH@Z 004205f0 f i cinder:Texture.obj
 0001:0001f610       ??_G?$ImageTargetGLTexture@M@gl@cinder@@UAEPAXI@Z 00420610 f i cinder:Texture.obj
 0001:0001f610       ??_E?$ImageTargetGLTexture@M@gl@cinder@@UAEPAXI@Z 00420610 f i cinder:Texture.obj
 0001:0001f650       ??$_Resetp@EP6AXPAE@Z@?$shared_ptr@E@tr1@std@@AAEXPAEP6AX0@Z@Z 00420650 f i cinder:Texture.obj
 0001:0001f6f0       ??$_Resetp@V?$ImageTargetGLTexture@E@gl@cinder@@@?$shared_ptr@V?$ImageTargetGLTexture@E@gl@cinder@@@tr1@std@@AAEXPAV?$ImageTargetGLTexture@E@gl@cinder@@@Z 004206f0 f i cinder:Texture.obj
 0001:0001f790       ??$_Resetp@V?$ImageTargetGLTexture@G@gl@cinder@@@?$shared_ptr@V?$ImageTargetGLTexture@G@gl@cinder@@@tr1@std@@AAEXPAV?$ImageTargetGLTexture@G@gl@cinder@@@Z 00420790 f i cinder:Texture.obj
 0001:0001f830       ??$_Resetp@V?$ImageTargetGLTexture@M@gl@cinder@@@?$shared_ptr@V?$ImageTargetGLTexture@M@gl@cinder@@@tr1@std@@AAEXPAV?$ImageTargetGLTexture@M@gl@cinder@@@Z 00420830 f i cinder:Texture.obj
 0001:0001f8d0       ??0Texture@gl@cinder@@QAE@HHUFormat@012@@Z 004208d0 f   cinder:Texture.obj
 0001:0001f960       ??0Texture@gl@cinder@@QAE@ABV?$SurfaceT@M@2@UFormat@012@@Z 00420960 f   cinder:Texture.obj
 0001:0001fa30       ??0Texture@gl@cinder@@QAE@IIHH_N@Z 00420a30 f   cinder:Texture.obj
 0001:0001fae0       ??$?0EP6AXPAE@Z@?$shared_ptr@E@tr1@std@@QAE@PAEP6AX0@Z@Z 00420ae0 f i cinder:Texture.obj
 0001:0001fb10       ??0Texture@gl@cinder@@QAE@ABV?$ChannelT@M@2@UFormat@012@@Z 00420b10 f   cinder:Texture.obj
 0001:0001fd30       ?createRef@?$ImageTargetGLTexture@E@gl@cinder@@SA?AV?$shared_ptr@V?$ImageTargetGLTexture@E@gl@cinder@@@tr1@std@@PBVTexture@23@AAW4ChannelOrder@ImageIo@3@_N2@Z 00420d30 f i cinder:Texture.obj
 0001:0001fdc0       ?createRef@?$ImageTargetGLTexture@G@gl@cinder@@SA?AV?$shared_ptr@V?$ImageTargetGLTexture@G@gl@cinder@@@tr1@std@@PBVTexture@23@AAW4ChannelOrder@ImageIo@3@_N2@Z 00420dc0 f i cinder:Texture.obj
 0001:0001fe50       ?createRef@?$ImageTargetGLTexture@M@gl@cinder@@SA?AV?$shared_ptr@V?$ImageTargetGLTexture@M@gl@cinder@@@tr1@std@@PBVTexture@23@AAW4ChannelOrder@ImageIo@3@_N2@Z 00420e50 f i cinder:Texture.obj
 0001:0001fee0       ?init@Texture@gl@cinder@@IAEXV?$shared_ptr@VImageSource@cinder@@@tr1@std@@ABUFormat@123@@Z 00420ee0 f   cinder:Texture.obj
 0001:00020360       ??0Texture@gl@cinder@@QAE@V?$shared_ptr@VImageSource@cinder@@@tr1@std@@UFormat@012@@Z 00421360 f   cinder:Texture.obj
 0001:00020440       ?unbind@GlslProg@gl@cinder@@SAXXZ 00421440 f   cinder:GlslProg.obj
 0001:00020450       ?_Max@?$_Tree_val@V?$_Tmap_traits@V?$basic_string@DU?$char_traits@D@std@@V?$allocator@D@2@@std@@_NU?$less@V?$basic_string@DU?$char_traits@D@std@@V?$allocator@D@2@@std@@@2@V?$allocator@U?$pair@$$CBV?$basic_string@DU?$char_traits@D@std@@V?$allocator@D@2@@std@@_N@std@@@2@$0A@@std@@@std@@SAPAU_Node@?$_Tree_nod@V?$_Tmap_traits@V?$basic_string@DU?$char_traits@D@std@@V?$allocator@D@2@@std@@_NU?$less@V?$basic_string@DU?$char_traits@D@std@@V?$allocator@D@2@@std@@@2@V?$allocator@U?$pair@$$CBV?$basic_string@DU?$char_traits@D@std@@V?$allocator@D@2@@std@@_N@std@@@2@$0A@@std@@@2@PAU342@@Z 00421450 f i cinder:gl.obj
 0001:00020450       ?_Max@?$_Tree_val@V?$_Tmap_traits@V?$basic_string@DU?$char_traits@D@std@@V?$allocator@D@2@@std@@PBU_GUID@@U?$less@V?$basic_string@DU?$char_traits@D@std@@V?$allocator@D@2@@std@@@2@V?$allocator@U?$pair@$$CBV?$basic_string@DU?$char_traits@D@std@@V?$allocator@D@2@@std@@PBU_GUID@@@std@@@2@$0A@@std@@@std@@SAPAU_Node@?$_Tree_nod@V?$_Tmap_traits@V?$basic_string@DU?$char_traits@D@std@@V?$allocator@D@2@@std@@PBU_GUID@@U?$less@V?$basic_string@DU?$char_traits@D@std@@V?$allocator@D@2@@std@@@2@V?$allocator@U?$pair@$$CBV?$basic_string@DU?$char_traits@D@std@@V?$allocator@D@2@@std@@PBU_GUID@@@std@@@2@$0A@@std@@@2@PAU342@@Z 00421450 f i cinder:ImageTargetFileWic.obj
 0001:00020450       ?_Max@?$_Tree_val@V?$_Tmap_traits@V?$basic_string@DU?$char_traits@D@std@@V?$allocator@D@2@@std@@HU?$less@V?$basic_string@DU?$char_traits@D@std@@V?$allocator@D@2@@std@@@2@V?$allocator@U?$pair@$$CBV?$basic_string@DU?$char_traits@D@std@@V?$allocator@D@2@@std@@H@std@@@2@$0A@@std@@@std@@SAPAU_Node@?$_Tree_nod@V?$_Tmap_traits@V?$basic_string@DU?$char_traits@D@std@@V?$allocator@D@2@@std@@HU?$less@V?$basic_string@DU?$char_traits@D@std@@V?$allocator@D@2@@std@@@2@V?$allocator@U?$pair@$$CBV?$basic_string@DU?$char_traits@D@std@@V?$allocator@D@2@@std@@H@std@@@2@$0A@@std@@@2@PAU342@@Z 00421450 f i cinder:GlslProg.obj
 0001:00020470       ?_Min@?$_Tree_val@V?$_Tmap_traits@V?$basic_string@DU?$char_traits@D@std@@V?$allocator@D@2@@std@@_NU?$less@V?$basic_string@DU?$char_traits@D@std@@V?$allocator@D@2@@std@@@2@V?$allocator@U?$pair@$$CBV?$basic_string@DU?$char_traits@D@std@@V?$allocator@D@2@@std@@_N@std@@@2@$0A@@std@@@std@@SAPAU_Node@?$_Tree_nod@V?$_Tmap_traits@V?$basic_string@DU?$char_traits@D@std@@V?$allocator@D@2@@std@@_NU?$less@V?$basic_string@DU?$char_traits@D@std@@V?$allocator@D@2@@std@@@2@V?$allocator@U?$pair@$$CBV?$basic_string@DU?$char_traits@D@std@@V?$allocator@D@2@@std@@_N@std@@@2@$0A@@std@@@2@PAU342@@Z 00421470 f i cinder:gl.obj
 0001:00020470       ?_Min@?$_Tree_val@V?$_Tmap_traits@V?$basic_string@DU?$char_traits@D@std@@V?$allocator@D@2@@std@@PBU_GUID@@U?$less@V?$basic_string@DU?$char_traits@D@std@@V?$allocator@D@2@@std@@@2@V?$allocator@U?$pair@$$CBV?$basic_string@DU?$char_traits@D@std@@V?$allocator@D@2@@std@@PBU_GUID@@@std@@@2@$0A@@std@@@std@@SAPAU_Node@?$_Tree_nod@V?$_Tmap_traits@V?$basic_string@DU?$char_traits@D@std@@V?$allocator@D@2@@std@@PBU_GUID@@U?$less@V?$basic_string@DU?$char_traits@D@std@@V?$allocator@D@2@@std@@@2@V?$allocator@U?$pair@$$CBV?$basic_string@DU?$char_traits@D@std@@V?$allocator@D@2@@std@@PBU_GUID@@@std@@@2@$0A@@std@@@2@PAU342@@Z 00421470 f i cinder:ImageTargetFileWic.obj
 0001:00020470       ?_Min@?$_Tree_val@V?$_Tmap_traits@V?$basic_string@DU?$char_traits@D@std@@V?$allocator@D@2@@std@@HU?$less@V?$basic_string@DU?$char_traits@D@std@@V?$allocator@D@2@@std@@@2@V?$allocator@U?$pair@$$CBV?$basic_string@DU?$char_traits@D@std@@V?$allocator@D@2@@std@@H@std@@@2@$0A@@std@@@std@@SAPAU_Node@?$_Tree_nod@V?$_Tmap_traits@V?$basic_string@DU?$char_traits@D@std@@V?$allocator@D@2@@std@@HU?$less@V?$basic_string@DU?$char_traits@D@std@@V?$allocator@D@2@@std@@@2@V?$allocator@U?$pair@$$CBV?$basic_string@DU?$char_traits@D@std@@V?$allocator@D@2@@std@@H@std@@@2@$0A@@std@@@2@PAU342@@Z 00421470 f i cinder:GlslProg.obj
 0001:00020490       ?_Get_deleter@?$_Ref_count_del@DU?$checked_array_deleter@D@boost@@@tr1@std@@UBEPAXABVtype_info@@@Z 00421490 f i cinder:GlslProg.obj
 0001:000204c0       ?_Lrotate@?$_Tree@V?$_Tmap_traits@V?$basic_string@DU?$char_traits@D@std@@V?$allocator@D@2@@std@@PBU_GUID@@U?$less@V?$basic_string@DU?$char_traits@D@std@@V?$allocator@D@2@@std@@@2@V?$allocator@U?$pair@$$CBV?$basic_string@DU?$char_traits@D@std@@V?$allocator@D@2@@std@@PBU_GUID@@@std@@@2@$0A@@std@@@std@@IAEXPAU_Node@?$_Tree_nod@V?$_Tmap_traits@V?$basic_string@DU?$char_traits@D@std@@V?$allocator@D@2@@std@@PBU_GUID@@U?$less@V?$basic_string@DU?$char_traits@D@std@@V?$allocator@D@2@@std@@@2@V?$allocator@U?$pair@$$CBV?$basic_string@DU?$char_traits@D@std@@V?$allocator@D@2@@std@@PBU_GUID@@@std@@@2@$0A@@std@@@2@@Z 004214c0 f i cinder:ImageTargetFileWic.obj
 0001:000204c0       ?_Lrotate@?$_Tree@V?$_Tmap_traits@V?$basic_string@DU?$char_traits@D@std@@V?$allocator@D@2@@std@@HU?$less@V?$basic_string@DU?$char_traits@D@std@@V?$allocator@D@2@@std@@@2@V?$allocator@U?$pair@$$CBV?$basic_string@DU?$char_traits@D@std@@V?$allocator@D@2@@std@@H@std@@@2@$0A@@std@@@std@@IAEXPAU_Node@?$_Tree_nod@V?$_Tmap_traits@V?$basic_string@DU?$char_traits@D@std@@V?$allocator@D@2@@std@@HU?$less@V?$basic_string@DU?$char_traits@D@std@@V?$allocator@D@2@@std@@@2@V?$allocator@U?$pair@$$CBV?$basic_string@DU?$char_traits@D@std@@V?$allocator@D@2@@std@@H@std@@@2@$0A@@std@@@2@@Z 004214c0 f i cinder:GlslProg.obj
 0001:000204c0       ?_Lrotate@?$_Tree@V?$_Tmap_traits@V?$basic_string@DU?$char_traits@D@std@@V?$allocator@D@2@@std@@_NU?$less@V?$basic_string@DU?$char_traits@D@std@@V?$allocator@D@2@@std@@@2@V?$allocator@U?$pair@$$CBV?$basic_string@DU?$char_traits@D@std@@V?$allocator@D@2@@std@@_N@std@@@2@$0A@@std@@@std@@IAEXPAU_Node@?$_Tree_nod@V?$_Tmap_traits@V?$basic_string@DU?$char_traits@D@std@@V?$allocator@D@2@@std@@_NU?$less@V?$basic_string@DU?$char_traits@D@std@@V?$allocator@D@2@@std@@@2@V?$allocator@U?$pair@$$CBV?$basic_string@DU?$char_traits@D@std@@V?$allocator@D@2@@std@@_N@std@@@2@$0A@@std@@@2@@Z 004214c0 f i cinder:gl.obj
 0001:00020520       ?_Destroy@?$_Ref_count_del@MU?$checked_array_deleter@M@boost@@@tr1@std@@EAEXXZ 00421520 f i cinder:Texture.obj
 0001:00020520       ?_Destroy@?$_Ref_count_del@DU?$checked_array_deleter@D@boost@@@tr1@std@@EAEXXZ 00421520 f i cinder:GlslProg.obj
 0001:00020520       ?_Destroy@?$_Ref_count_del@UtagTOUCHINPUT@@U?$checked_array_deleter@UtagTOUCHINPUT@@@boost@@@tr1@std@@EAEXXZ 00421520 f i cinder:AppImplMswBasic.obj
 0001:00020530       ?bind@GlslProg@gl@cinder@@QBEXXZ 00421530 f   cinder:GlslProg.obj
 0001:00020540       ??0GlslProgCompileExc@gl@cinder@@QAE@ABV?$basic_string@DU?$char_traits@D@std@@V?$allocator@D@2@@std@@H@Z 00421540 f   cinder:GlslProg.obj
 0001:000205c0       ?_Lbound@?$_Tree@V?$_Tmap_traits@V?$basic_string@DU?$char_traits@D@std@@V?$allocator@D@2@@std@@PBU_GUID@@U?$less@V?$basic_string@DU?$char_traits@D@std@@V?$allocator@D@2@@std@@@2@V?$allocator@U?$pair@$$CBV?$basic_string@DU?$char_traits@D@std@@V?$allocator@D@2@@std@@PBU_GUID@@@std@@@2@$0A@@std@@@std@@IAEPAU_Node@?$_Tree_nod@V?$_Tmap_traits@V?$basic_string@DU?$char_traits@D@std@@V?$allocator@D@2@@std@@PBU_GUID@@U?$less@V?$basic_string@DU?$char_traits@D@std@@V?$allocator@D@2@@std@@@2@V?$allocator@U?$pair@$$CBV?$basic_string@DU?$char_traits@D@std@@V?$allocator@D@2@@std@@PBU_GUID@@@std@@@2@$0A@@std@@@2@ABV?$basic_string@DU?$char_traits@D@std@@V?$allocator@D@2@@2@@Z 004215c0 f i cinder:ImageTargetFileWic.obj
 0001:000205c0       ?_Lbound@?$_Tree@V?$_Tmap_traits@V?$basic_string@DU?$char_traits@D@std@@V?$allocator@D@2@@std@@HU?$less@V?$basic_string@DU?$char_traits@D@std@@V?$allocator@D@2@@std@@@2@V?$allocator@U?$pair@$$CBV?$basic_string@DU?$char_traits@D@std@@V?$allocator@D@2@@std@@H@std@@@2@$0A@@std@@@std@@IAEPAU_Node@?$_Tree_nod@V?$_Tmap_traits@V?$basic_string@DU?$char_traits@D@std@@V?$allocator@D@2@@std@@HU?$less@V?$basic_string@DU?$char_traits@D@std@@V?$allocator@D@2@@std@@@2@V?$allocator@U?$pair@$$CBV?$basic_string@DU?$char_traits@D@std@@V?$allocator@D@2@@std@@H@std@@@2@$0A@@std@@@2@ABV?$basic_string@DU?$char_traits@D@std@@V?$allocator@D@2@@2@@Z 004215c0 f i cinder:GlslProg.obj
 0001:000205c0       ?_Lbound@?$_Tree@V?$_Tmap_traits@V?$basic_string@DU?$char_traits@D@std@@V?$allocator@D@2@@std@@_NU?$less@V?$basic_string@DU?$char_traits@D@std@@V?$allocator@D@2@@std@@@2@V?$allocator@U?$pair@$$CBV?$basic_string@DU?$char_traits@D@std@@V?$allocator@D@2@@std@@_N@std@@@2@$0A@@std@@@std@@IAEPAU_Node@?$_Tree_nod@V?$_Tmap_traits@V?$basic_string@DU?$char_traits@D@std@@V?$allocator@D@2@@std@@_NU?$less@V?$basic_string@DU?$char_traits@D@std@@V?$allocator@D@2@@std@@@2@V?$allocator@U?$pair@$$CBV?$basic_string@DU?$char_traits@D@std@@V?$allocator@D@2@@std@@_N@std@@@2@$0A@@std@@@2@ABV?$basic_string@DU?$char_traits@D@std@@V?$allocator@D@2@@2@@Z 004215c0 f i cinder:gl.obj
 0001:00020650       ??$_Resetp@DU?$checked_array_deleter@D@boost@@@?$shared_ptr@D@tr1@std@@AAEXPADU?$checked_array_deleter@D@boost@@@Z 00421650 f i cinder:GlslProg.obj
 0001:000206f0       ?_Insert@?$_Tree@V?$_Tmap_traits@V?$basic_string@DU?$char_traits@D@std@@V?$allocator@D@2@@std@@HU?$less@V?$basic_string@DU?$char_traits@D@std@@V?$allocator@D@2@@std@@@2@V?$allocator@U?$pair@$$CBV?$basic_string@DU?$char_traits@D@std@@V?$allocator@D@2@@std@@H@std@@@2@$0A@@std@@@std@@IAE?AV?$_Tree_iterator@V?$_Tree_val@V?$_Tmap_traits@V?$basic_string@DU?$char_traits@D@std@@V?$allocator@D@2@@std@@HU?$less@V?$basic_string@DU?$char_traits@D@std@@V?$allocator@D@2@@std@@@2@V?$allocator@U?$pair@$$CBV?$basic_string@DU?$char_traits@D@std@@V?$allocator@D@2@@std@@H@std@@@2@$0A@@std@@@std@@@2@_NPAU_Node@?$_Tree_nod@V?$_Tmap_traits@V?$basic_string@DU?$char_traits@D@std@@V?$allocator@D@2@@std@@HU?$less@V?$basic_string@DU?$char_traits@D@std@@V?$allocator@D@2@@std@@@2@V?$allocator@U?$pair@$$CBV?$basic_string@DU?$char_traits@D@std@@V?$allocator@D@2@@std@@H@std@@@2@$0A@@std@@@2@1@Z 004216f0 f i cinder:GlslProg.obj
 0001:000206f0       ?_Insert@?$_Tree@V?$_Tmap_traits@V?$basic_string@DU?$char_traits@D@std@@V?$allocator@D@2@@std@@_NU?$less@V?$basic_string@DU?$char_traits@D@std@@V?$allocator@D@2@@std@@@2@V?$allocator@U?$pair@$$CBV?$basic_string@DU?$char_traits@D@std@@V?$allocator@D@2@@std@@_N@std@@@2@$0A@@std@@@std@@IAE?AV?$_Tree_iterator@V?$_Tree_val@V?$_Tmap_traits@V?$basic_string@DU?$char_traits@D@std@@V?$allocator@D@2@@std@@_NU?$less@V?$basic_string@DU?$char_traits@D@std@@V?$allocator@D@2@@std@@@2@V?$allocator@U?$pair@$$CBV?$basic_string@DU?$char_traits@D@std@@V?$allocator@D@2@@std@@_N@std@@@2@$0A@@std@@@std@@@2@_NPAU_Node@?$_Tree_nod@V?$_Tmap_traits@V?$basic_string@DU?$char_traits@D@std@@V?$allocator@D@2@@std@@_NU?$less@V?$basic_string@DU?$char_traits@D@std@@V?$allocator@D@2@@std@@@2@V?$allocator@U?$pair@$$CBV?$basic_string@DU?$char_traits@D@std@@V?$allocator@D@2@@std@@_N@std@@@2@$0A@@std@@@2@1@Z 004216f0 f i cinder:gl.obj
 0001:000206f0       ?_Insert@?$_Tree@V?$_Tmap_traits@V?$basic_string@DU?$char_traits@D@std@@V?$allocator@D@2@@std@@PBU_GUID@@U?$less@V?$basic_string@DU?$char_traits@D@std@@V?$allocator@D@2@@std@@@2@V?$allocator@U?$pair@$$CBV?$basic_string@DU?$char_traits@D@std@@V?$allocator@D@2@@std@@PBU_GUID@@@std@@@2@$0A@@std@@@std@@IAE?AV?$_Tree_iterator@V?$_Tree_val@V?$_Tmap_traits@V?$basic_string@DU?$char_traits@D@std@@V?$allocator@D@2@@std@@PBU_GUID@@U?$less@V?$basic_string@DU?$char_traits@D@std@@V?$allocator@D@2@@std@@@2@V?$allocator@U?$pair@$$CBV?$basic_string@DU?$char_traits@D@std@@V?$allocator@D@2@@std@@PBU_GUID@@@std@@@2@$0A@@std@@@std@@@2@_NPAU_Node@?$_Tree_nod@V?$_Tmap_traits@V?$basic_string@DU?$char_traits@D@std@@V?$allocator@D@2@@std@@PBU_GUID@@U?$less@V?$basic_string@DU?$char_traits@D@std@@V?$allocator@D@2@@std@@@2@V?$allocator@U?$pair@$$CBV?$basic_string@DU?$char_traits@D@std@@V?$allocator@D@2@@std@@PBU_GUID@@@std@@@2@$0A@@std@@@2@1@Z 004216f0 f i cinder:ImageTargetFileWic.obj
 0001:00020940       ?erase@?$_Tree@V?$_Tmap_traits@V?$basic_string@DU?$char_traits@D@std@@V?$allocator@D@2@@std@@HU?$less@V?$basic_string@DU?$char_traits@D@std@@V?$allocator@D@2@@std@@@2@V?$allocator@U?$pair@$$CBV?$basic_string@DU?$char_traits@D@std@@V?$allocator@D@2@@std@@H@std@@@2@$0A@@std@@@std@@QAE?AV?$_Tree_iterator@V?$_Tree_val@V?$_Tmap_traits@V?$basic_string@DU?$char_traits@D@std@@V?$allocator@D@2@@std@@HU?$less@V?$basic_string@DU?$char_traits@D@std@@V?$allocator@D@2@@std@@@2@V?$allocator@U?$pair@$$CBV?$basic_string@DU?$char_traits@D@std@@V?$allocator@D@2@@std@@H@std@@@2@$0A@@std@@@std@@@2@V?$_Tree_const_iterator@V?$_Tree_val@V?$_Tmap_traits@V?$basic_string@DU?$char_traits@D@std@@V?$allocator@D@2@@std@@HU?$less@V?$basic_string@DU?$char_traits@D@std@@V?$allocator@D@2@@std@@@2@V?$allocator@U?$pair@$$CBV?$basic_string@DU?$char_traits@D@std@@V?$allocator@D@2@@std@@H@std@@@2@$0A@@std@@@std@@@2@@Z 00421940 f i cinder:GlslProg.obj
 0001:00020940       ?erase@?$_Tree@V?$_Tmap_traits@V?$basic_string@DU?$char_traits@D@std@@V?$allocator@D@2@@std@@PBU_GUID@@U?$less@V?$basic_string@DU?$char_traits@D@std@@V?$allocator@D@2@@std@@@2@V?$allocator@U?$pair@$$CBV?$basic_string@DU?$char_traits@D@std@@V?$allocator@D@2@@std@@PBU_GUID@@@std@@@2@$0A@@std@@@std@@QAE?AV?$_Tree_iterator@V?$_Tree_val@V?$_Tmap_traits@V?$basic_string@DU?$char_traits@D@std@@V?$allocator@D@2@@std@@PBU_GUID@@U?$less@V?$basic_string@DU?$char_traits@D@std@@V?$allocator@D@2@@std@@@2@V?$allocator@U?$pair@$$CBV?$basic_string@DU?$char_traits@D@std@@V?$allocator@D@2@@std@@PBU_GUID@@@std@@@2@$0A@@std@@@std@@@2@V?$_Tree_const_iterator@V?$_Tree_val@V?$_Tmap_traits@V?$basic_string@DU?$char_traits@D@std@@V?$allocator@D@2@@std@@PBU_GUID@@U?$less@V?$basic_string@DU?$char_traits@D@std@@V?$allocator@D@2@@std@@@2@V?$allocator@U?$pair@$$CBV?$basic_string@DU?$char_traits@D@std@@V?$allocator@D@2@@std@@PBU_GUID@@@std@@@2@$0A@@std@@@std@@@2@@Z 00421940 f i cinder:ImageTargetFileWic.obj
 0001:00020940       ?erase@?$_Tree@V?$_Tmap_traits@V?$basic_string@DU?$char_traits@D@std@@V?$allocator@D@2@@std@@_NU?$less@V?$basic_string@DU?$char_traits@D@std@@V?$allocator@D@2@@std@@@2@V?$allocator@U?$pair@$$CBV?$basic_string@DU?$char_traits@D@std@@V?$allocator@D@2@@std@@_N@std@@@2@$0A@@std@@@std@@QAE?AV?$_Tree_iterator@V?$_Tree_val@V?$_Tmap_traits@V?$basic_string@DU?$char_traits@D@std@@V?$allocator@D@2@@std@@_NU?$less@V?$basic_string@DU?$char_traits@D@std@@V?$allocator@D@2@@std@@@2@V?$allocator@U?$pair@$$CBV?$basic_string@DU?$char_traits@D@std@@V?$allocator@D@2@@std@@_N@std@@@2@$0A@@std@@@std@@@2@V?$_Tree_const_iterator@V?$_Tree_val@V?$_Tmap_traits@V?$basic_string@DU?$char_traits@D@std@@V?$allocator@D@2@@std@@_NU?$less@V?$basic_string@DU?$char_traits@D@std@@V?$allocator@D@2@@std@@@2@V?$allocator@U?$pair@$$CBV?$basic_string@DU?$char_traits@D@std@@V?$allocator@D@2@@std@@_N@std@@@2@$0A@@std@@@std@@@2@@Z 00421940 f i cinder:gl.obj
 0001:00020bc0       ?_Erase@?$_Tree@V?$_Tmap_traits@V?$basic_string@DU?$char_traits@D@std@@V?$allocator@D@2@@std@@HU?$less@V?$basic_string@DU?$char_traits@D@std@@V?$allocator@D@2@@std@@@2@V?$allocator@U?$pair@$$CBV?$basic_string@DU?$char_traits@D@std@@V?$allocator@D@2@@std@@H@std@@@2@$0A@@std@@@std@@IAEXPAU_Node@?$_Tree_nod@V?$_Tmap_traits@V?$basic_string@DU?$char_traits@D@std@@V?$allocator@D@2@@std@@HU?$less@V?$basic_string@DU?$char_traits@D@std@@V?$allocator@D@2@@std@@@2@V?$allocator@U?$pair@$$CBV?$basic_string@DU?$char_traits@D@std@@V?$allocator@D@2@@std@@H@std@@@2@$0A@@std@@@2@@Z 00421bc0 f i cinder:GlslProg.obj
 0001:00020bc0       ?_Erase@?$_Tree@V?$_Tmap_traits@V?$basic_string@DU?$char_traits@D@std@@V?$allocator@D@2@@std@@PBU_GUID@@U?$less@V?$basic_string@DU?$char_traits@D@std@@V?$allocator@D@2@@std@@@2@V?$allocator@U?$pair@$$CBV?$basic_string@DU?$char_traits@D@std@@V?$allocator@D@2@@std@@PBU_GUID@@@std@@@2@$0A@@std@@@std@@IAEXPAU_Node@?$_Tree_nod@V?$_Tmap_traits@V?$basic_string@DU?$char_traits@D@std@@V?$allocator@D@2@@std@@PBU_GUID@@U?$less@V?$basic_string@DU?$char_traits@D@std@@V?$allocator@D@2@@std@@@2@V?$allocator@U?$pair@$$CBV?$basic_string@DU?$char_traits@D@std@@V?$allocator@D@2@@std@@PBU_GUID@@@std@@@2@$0A@@std@@@2@@Z 00421bc0 f i cinder:ImageTargetFileWic.obj
 0001:00020bc0       ?_Erase@?$_Tree@V?$_Tmap_traits@V?$basic_string@DU?$char_traits@D@std@@V?$allocator@D@2@@std@@_NU?$less@V?$basic_string@DU?$char_traits@D@std@@V?$allocator@D@2@@std@@@2@V?$allocator@U?$pair@$$CBV?$basic_string@DU?$char_traits@D@std@@V?$allocator@D@2@@std@@_N@std@@@2@$0A@@std@@@std@@IAEXPAU_Node@?$_Tree_nod@V?$_Tmap_traits@V?$basic_string@DU?$char_traits@D@std@@V?$allocator@D@2@@std@@_NU?$less@V?$basic_string@DU?$char_traits@D@std@@V?$allocator@D@2@@std@@@2@V?$allocator@U?$pair@$$CBV?$basic_string@DU?$char_traits@D@std@@V?$allocator@D@2@@std@@_N@std@@@2@$0A@@std@@@2@@Z 00421bc0 f i cinder:gl.obj
 0001:00020c20       ?_Linsert@?$_Tree@V?$_Tmap_traits@V?$basic_string@DU?$char_traits@D@std@@V?$allocator@D@2@@std@@_NU?$less@V?$basic_string@DU?$char_traits@D@std@@V?$allocator@D@2@@std@@@2@V?$allocator@U?$pair@$$CBV?$basic_string@DU?$char_traits@D@std@@V?$allocator@D@2@@std@@_N@std@@@2@$0A@@std@@@std@@QAE?AU?$pair@V?$_Tree_iterator@V?$_Tree_val@V?$_Tmap_traits@V?$basic_string@DU?$char_traits@D@std@@V?$allocator@D@2@@std@@_NU?$less@V?$basic_string@DU?$char_traits@D@std@@V?$allocator@D@2@@std@@@2@V?$allocator@U?$pair@$$CBV?$basic_string@DU?$char_traits@D@std@@V?$allocator@D@2@@std@@_N@std@@@2@$0A@@std@@@std@@@std@@_N@2@PAU_Node@?$_Tree_nod@V?$_Tmap_traits@V?$basic_string@DU?$char_traits@D@std@@V?$allocator@D@2@@std@@_NU?$less@V?$basic_string@DU?$char_traits@D@std@@V?$allocator@D@2@@std@@@2@V?$allocator@U?$pair@$$CBV?$basic_string@DU?$char_traits@D@std@@V?$allocator@D@2@@std@@_N@std@@@2@$0A@@std@@@2@_N@Z 00421c20 f i cinder:gl.obj
 0001:00020c20       ?_Linsert@?$_Tree@V?$_Tmap_traits@V?$basic_string@DU?$char_traits@D@std@@V?$allocator@D@2@@std@@HU?$less@V?$basic_string@DU?$char_traits@D@std@@V?$allocator@D@2@@std@@@2@V?$allocator@U?$pair@$$CBV?$basic_string@DU?$char_traits@D@std@@V?$allocator@D@2@@std@@H@std@@@2@$0A@@std@@@std@@QAE?AU?$pair@V?$_Tree_iterator@V?$_Tree_val@V?$_Tmap_traits@V?$basic_string@DU?$char_traits@D@std@@V?$allocator@D@2@@std@@HU?$less@V?$basic_string@DU?$char_traits@D@std@@V?$allocator@D@2@@std@@@2@V?$allocator@U?$pair@$$CBV?$basic_string@DU?$char_traits@D@std@@V?$allocator@D@2@@std@@H@std@@@2@$0A@@std@@@std@@@std@@_N@2@PAU_Node@?$_Tree_nod@V?$_Tmap_traits@V?$basic_string@DU?$char_traits@D@std@@V?$allocator@D@2@@std@@HU?$less@V?$basic_string@DU?$char_traits@D@std@@V?$allocator@D@2@@std@@@2@V?$allocator@U?$pair@$$CBV?$basic_string@DU?$char_traits@D@std@@V?$allocator@D@2@@std@@H@std@@@2@$0A@@std@@@2@_N@Z 00421c20 f i cinder:GlslProg.obj
 0001:00020c20       ?_Linsert@?$_Tree@V?$_Tmap_traits@V?$basic_string@DU?$char_traits@D@std@@V?$allocator@D@2@@std@@PBU_GUID@@U?$less@V?$basic_string@DU?$char_traits@D@std@@V?$allocator@D@2@@std@@@2@V?$allocator@U?$pair@$$CBV?$basic_string@DU?$char_traits@D@std@@V?$allocator@D@2@@std@@PBU_GUID@@@std@@@2@$0A@@std@@@std@@QAE?AU?$pair@V?$_Tree_iterator@V?$_Tree_val@V?$_Tmap_traits@V?$basic_string@DU?$char_traits@D@std@@V?$allocator@D@2@@std@@PBU_GUID@@U?$less@V?$basic_string@DU?$char_traits@D@std@@V?$allocator@D@2@@std@@@2@V?$allocator@U?$pair@$$CBV?$basic_string@DU?$char_traits@D@std@@V?$allocator@D@2@@std@@PBU_GUID@@@std@@@2@$0A@@std@@@std@@@std@@_N@2@PAU_Node@?$_Tree_nod@V?$_Tmap_traits@V?$basic_string@DU?$char_traits@D@std@@V?$allocator@D@2@@std@@PBU_GUID@@U?$less@V?$basic_string@DU?$char_traits@D@std@@V?$allocator@D@2@@std@@@2@V?$allocator@U?$pair@$$CBV?$basic_string@DU?$char_traits@D@std@@V?$allocator@D@2@@std@@PBU_GUID@@@std@@@2@$0A@@std@@@2@_N@Z 00421c20 f i cinder:ImageTargetFileWic.obj
 0001:00020de0       ?getShaderLog@GlslProg@gl@cinder@@QBE?AV?$basic_string@DU?$char_traits@D@std@@V?$allocator@D@2@@std@@I@Z 00421de0 f   cinder:GlslProg.obj
 0001:00020ef0       ?loadShader@GlslProg@gl@cinder@@IAEXPBDH@Z 00421ef0 f   cinder:GlslProg.obj
 0001:00020fd0       ??0GlslProgCompileExc@gl@cinder@@QAE@ABV012@@Z 00421fd0 f i cinder:GlslProg.obj
 0001:00021010       ?erase@?$_Tree@V?$_Tmap_traits@V?$basic_string@DU?$char_traits@D@std@@V?$allocator@D@2@@std@@HU?$less@V?$basic_string@DU?$char_traits@D@std@@V?$allocator@D@2@@std@@@2@V?$allocator@U?$pair@$$CBV?$basic_string@DU?$char_traits@D@std@@V?$allocator@D@2@@std@@H@std@@@2@$0A@@std@@@std@@QAE?AV?$_Tree_iterator@V?$_Tree_val@V?$_Tmap_traits@V?$basic_string@DU?$char_traits@D@std@@V?$allocator@D@2@@std@@HU?$less@V?$basic_string@DU?$char_traits@D@std@@V?$allocator@D@2@@std@@@2@V?$allocator@U?$pair@$$CBV?$basic_string@DU?$char_traits@D@std@@V?$allocator@D@2@@std@@H@std@@@2@$0A@@std@@@std@@@2@V?$_Tree_const_iterator@V?$_Tree_val@V?$_Tmap_traits@V?$basic_string@DU?$char_traits@D@std@@V?$allocator@D@2@@std@@HU?$less@V?$basic_string@DU?$char_traits@D@std@@V?$allocator@D@2@@std@@@2@V?$allocator@U?$pair@$$CBV?$basic_string@DU?$char_traits@D@std@@V?$allocator@D@2@@std@@H@std@@@2@$0A@@std@@@std@@@2@0@Z 00422010 f i cinder:GlslProg.obj
 0001:00021010       ?erase@?$_Tree@V?$_Tmap_traits@V?$basic_string@DU?$char_traits@D@std@@V?$allocator@D@2@@std@@_NU?$less@V?$basic_string@DU?$char_traits@D@std@@V?$allocator@D@2@@std@@@2@V?$allocator@U?$pair@$$CBV?$basic_string@DU?$char_traits@D@std@@V?$allocator@D@2@@std@@_N@std@@@2@$0A@@std@@@std@@QAE?AV?$_Tree_iterator@V?$_Tree_val@V?$_Tmap_traits@V?$basic_string@DU?$char_traits@D@std@@V?$allocator@D@2@@std@@_NU?$less@V?$basic_string@DU?$char_traits@D@std@@V?$allocator@D@2@@std@@@2@V?$allocator@U?$pair@$$CBV?$basic_string@DU?$char_traits@D@std@@V?$allocator@D@2@@std@@_N@std@@@2@$0A@@std@@@std@@@2@V?$_Tree_const_iterator@V?$_Tree_val@V?$_Tmap_traits@V?$basic_string@DU?$char_traits@D@std@@V?$allocator@D@2@@std@@_NU?$less@V?$basic_string@DU?$char_traits@D@std@@V?$allocator@D@2@@std@@@2@V?$allocator@U?$pair@$$CBV?$basic_string@DU?$char_traits@D@std@@V?$allocator@D@2@@std@@_N@std@@@2@$0A@@std@@@std@@@2@0@Z 00422010 f i cinder:gl.obj
 0001:00021010       ?erase@?$_Tree@V?$_Tmap_traits@V?$basic_string@DU?$char_traits@D@std@@V?$allocator@D@2@@std@@PBU_GUID@@U?$less@V?$basic_string@DU?$char_traits@D@std@@V?$allocator@D@2@@std@@@2@V?$allocator@U?$pair@$$CBV?$basic_string@DU?$char_traits@D@std@@V?$allocator@D@2@@std@@PBU_GUID@@@std@@@2@$0A@@std@@@std@@QAE?AV?$_Tree_iterator@V?$_Tree_val@V?$_Tmap_traits@V?$basic_string@DU?$char_traits@D@std@@V?$allocator@D@2@@std@@PBU_GUID@@U?$less@V?$basic_string@DU?$char_traits@D@std@@V?$allocator@D@2@@std@@@2@V?$allocator@U?$pair@$$CBV?$basic_string@DU?$char_traits@D@std@@V?$allocator@D@2@@std@@PBU_GUID@@@std@@@2@$0A@@std@@@std@@@2@V?$_Tree_const_iterator@V?$_Tree_val@V?$_Tmap_traits@V?$basic_string@DU?$char_traits@D@std@@V?$allocator@D@2@@std@@PBU_GUID@@U?$less@V?$basic_string@DU?$char_traits@D@std@@V?$allocator@D@2@@std@@@2@V?$allocator@U?$pair@$$CBV?$basic_string@DU?$char_traits@D@std@@V?$allocator@D@2@@std@@PBU_GUID@@@std@@@2@$0A@@std@@@std@@@2@0@Z 00422010 f i cinder:ImageTargetFileWic.obj
 0001:000210d0       ??$_Buynode@U?$pair@$$CBV?$basic_string@DU?$char_traits@D@std@@V?$allocator@D@2@@std@@H@std@@@?$_Tree_val@V?$_Tmap_traits@V?$basic_string@DU?$char_traits@D@std@@V?$allocator@D@2@@std@@HU?$less@V?$basic_string@DU?$char_traits@D@std@@V?$allocator@D@2@@std@@@2@V?$allocator@U?$pair@$$CBV?$basic_string@DU?$char_traits@D@std@@V?$allocator@D@2@@std@@H@std@@@2@$0A@@std@@@std@@QAEPAU_Node@?$_Tree_nod@V?$_Tmap_traits@V?$basic_string@DU?$char_traits@D@std@@V?$allocator@D@2@@std@@HU?$less@V?$basic_string@DU?$char_traits@D@std@@V?$allocator@D@2@@std@@@2@V?$allocator@U?$pair@$$CBV?$basic_string@DU?$char_traits@D@std@@V?$allocator@D@2@@std@@H@std@@@2@$0A@@std@@@1@$$QAU?$pair@$$CBV?$basic_string@DU?$char_traits@D@std@@V?$allocator@D@2@@std@@H@1@@Z 004220d0 f i cinder:GlslProg.obj
 0001:000210d0       ??$_Buynode@U?$pair@$$CBV?$basic_string@DU?$char_traits@D@std@@V?$allocator@D@2@@std@@PBU_GUID@@@std@@@?$_Tree_val@V?$_Tmap_traits@V?$basic_string@DU?$char_traits@D@std@@V?$allocator@D@2@@std@@PBU_GUID@@U?$less@V?$basic_string@DU?$char_traits@D@std@@V?$allocator@D@2@@std@@@2@V?$allocator@U?$pair@$$CBV?$basic_string@DU?$char_traits@D@std@@V?$allocator@D@2@@std@@PBU_GUID@@@std@@@2@$0A@@std@@@std@@QAEPAU_Node@?$_Tree_nod@V?$_Tmap_traits@V?$basic_string@DU?$char_traits@D@std@@V?$allocator@D@2@@std@@PBU_GUID@@U?$less@V?$basic_string@DU?$char_traits@D@std@@V?$allocator@D@2@@std@@@2@V?$allocator@U?$pair@$$CBV?$basic_string@DU?$char_traits@D@std@@V?$allocator@D@2@@std@@PBU_GUID@@@std@@@2@$0A@@std@@@1@$$QAU?$pair@$$CBV?$basic_string@DU?$char_traits@D@std@@V?$allocator@D@2@@std@@PBU_GUID@@@1@@Z 004220d0 f i cinder:ImageTargetFileWic.obj
 0001:000211b0       ?loadShader@GlslProg@gl@cinder@@IAEXVBuffer@3@H@Z 004221b0 f   cinder:GlslProg.obj
 0001:000212c0       ??A?$map@V?$basic_string@DU?$char_traits@D@std@@V?$allocator@D@2@@std@@PBU_GUID@@U?$less@V?$basic_string@DU?$char_traits@D@std@@V?$allocator@D@2@@std@@@2@V?$allocator@U?$pair@$$CBV?$basic_string@DU?$char_traits@D@std@@V?$allocator@D@2@@std@@PBU_GUID@@@std@@@2@@std@@QAEAAPBU_GUID@@ABV?$basic_string@DU?$char_traits@D@std@@V?$allocator@D@2@@1@@Z 004222c0 f i cinder:ImageTargetFileWic.obj
 0001:000212c0       ??A?$map@V?$basic_string@DU?$char_traits@D@std@@V?$allocator@D@2@@std@@HU?$less@V?$basic_string@DU?$char_traits@D@std@@V?$allocator@D@2@@std@@@2@V?$allocator@U?$pair@$$CBV?$basic_string@DU?$char_traits@D@std@@V?$allocator@D@2@@std@@H@std@@@2@@std@@QAEAAHABV?$basic_string@DU?$char_traits@D@std@@V?$allocator@D@2@@1@@Z 004222c0 f i cinder:GlslProg.obj
 0001:000213a0       ??1?$map@V?$basic_string@DU?$char_traits@D@std@@V?$allocator@D@2@@std@@HU?$less@V?$basic_string@DU?$char_traits@D@std@@V?$allocator@D@2@@std@@@2@V?$allocator@U?$pair@$$CBV?$basic_string@DU?$char_traits@D@std@@V?$allocator@D@2@@std@@H@std@@@2@@std@@QAE@XZ 004223a0 f i cinder:GlslProg.obj
 0001:00021400       ?getUniformLocation@GlslProg@gl@cinder@@QAEHABV?$basic_string@DU?$char_traits@D@std@@V?$allocator@D@2@@std@@@Z 00422400 f   cinder:GlslProg.obj
 0001:000214a0       ??_GObj@GlslProg@gl@cinder@@QAEPAXI@Z 004224a0 f i cinder:GlslProg.obj
 0001:00021530       ?_Destroy@?$_Ref_count@UObj@GlslProg@gl@cinder@@@tr1@std@@EAEXXZ 00422530 f i cinder:GlslProg.obj
 0001:000215c0       ?uniform@GlslProg@gl@cinder@@QAEXABV?$basic_string@DU?$char_traits@D@std@@V?$allocator@D@2@@std@@H@Z 004225c0 f   cinder:GlslProg.obj
 0001:000215e0       ?uniform@GlslProg@gl@cinder@@QAEXABV?$basic_string@DU?$char_traits@D@std@@V?$allocator@D@2@@std@@M@Z 004225e0 f   cinder:GlslProg.obj
 0001:00021600       ?uniform@GlslProg@gl@cinder@@QAEXABV?$basic_string@DU?$char_traits@D@std@@V?$allocator@D@2@@std@@ABV?$Vec2@M@3@@Z 00422600 f   cinder:GlslProg.obj
 0001:00021630       ?uniform@GlslProg@gl@cinder@@QAEXABV?$basic_string@DU?$char_traits@D@std@@V?$allocator@D@2@@std@@PBMH@Z 00422630 f   cinder:GlslProg.obj
 0001:00021650       ?uniform@GlslProg@gl@cinder@@QAEXABV?$basic_string@DU?$char_traits@D@std@@V?$allocator@D@2@@std@@PBV?$Vec2@M@3@H@Z 00422650 f   cinder:GlslProg.obj
 0001:00021670       ??$_Resetp@UObj@GlslProg@gl@cinder@@@?$shared_ptr@UObj@GlslProg@gl@cinder@@@tr1@std@@AAEXPAUObj@GlslProg@gl@cinder@@@Z 00422670 f i cinder:GlslProg.obj
 0001:00021710       ??0GlslProg@gl@cinder@@QAE@V?$shared_ptr@VDataSource@cinder@@@tr1@std@@00HHH@Z 00422710 f   cinder:GlslProg.obj
 0001:00021960       ??0Format@Fbo@gl@cinder@@QAE@XZ 00422960 f   cinder:Fbo.obj
 0001:000219b0       ?enableColorBuffer@Format@Fbo@gl@cinder@@QAEX_NH@Z 004229b0 f   cinder:Fbo.obj
 0001:000219d0       ?enableDepthBuffer@Format@Fbo@gl@cinder@@QAEX_N0@Z 004229d0 f   cinder:Fbo.obj
 0001:000219f0       ?unbindFramebuffer@Fbo@gl@cinder@@SAXXZ 004229f0 f   cinder:Fbo.obj
 0001:00021a00       ?_Destroy@?$_Ref_count@UObj@Renderbuffer@gl@cinder@@@tr1@std@@EAEXXZ 00422a00 f i cinder:Fbo.obj
 0001:00021a30       ?allocate@?$allocator@VRenderbuffer@gl@cinder@@@std@@QAEPAVRenderbuffer@gl@cinder@@I@Z 00422a30 f i cinder:Fbo.obj
 0001:00021a30       ?allocate@?$allocator@VTexture@gl@cinder@@@std@@QAEPAVTexture@gl@cinder@@I@Z 00422a30 f i cinder:Fbo.obj
 0001:00021a30       ?allocate@?$allocator@V?$Vec2@M@cinder@@@std@@QAEPAV?$Vec2@M@cinder@@I@Z 00422a30 f i CloudParticle.obj
 0001:00021a30       ?allocate@?$allocator@V?$shared_ptr@VDisplay@cinder@@@tr1@std@@@std@@QAEPAV?$shared_ptr@VDisplay@cinder@@@tr1@2@I@Z 00422a30 f i cinder:Display.obj
 0001:00021a30       ?allocate@?$allocator@U?$pair@W4CustomAttr@Layout@VboMesh@gl@cinder@@I@std@@@std@@QAEPAU?$pair@W4CustomAttr@Layout@VboMesh@gl@cinder@@I@2@I@Z 00422a30 f i CloudParticle.obj
 0001:00021a90       ??0FboException@gl@cinder@@QAE@ABV012@@Z 00422a90 f i cinder:Fbo.obj
 0001:00021ab0       ?unbindTexture@Fbo@gl@cinder@@QAEXXZ 00422ab0 f   cinder:Fbo.obj
 0001:00021ac0       ?bindFramebuffer@Fbo@gl@cinder@@QAEXXZ 00422ac0 f   cinder:Fbo.obj
 0001:00021af0       ??0FboExceptionInvalidSpecification@gl@cinder@@QAE@ABV?$basic_string@DU?$char_traits@D@std@@V?$allocator@D@2@@std@@@Z 00422af0 f   cinder:Fbo.obj
 0001:00021b30       ??$_Resetp@UObj@Renderbuffer@gl@cinder@@@?$shared_ptr@UObj@Renderbuffer@gl@cinder@@@tr1@std@@AAEXPAUObj@Renderbuffer@gl@cinder@@@Z 00422b30 f i cinder:Fbo.obj
 0001:00021be0       ??0FboExceptionInvalidSpecification@gl@cinder@@QAE@ABV012@@Z 00422be0 f i cinder:Fbo.obj
 0001:00021c10       ??4FboExceptionInvalidSpecification@gl@cinder@@QAEAAV012@ABV012@@Z 00422c10 f i cinder:Fbo.obj
 0001:00021c50       ?resolveTextures@Fbo@gl@cinder@@IBEXXZ 00422c50 f   cinder:Fbo.obj
 0001:00021eb0       ??$_Dest_val@V?$allocator@VTexture@gl@cinder@@@std@@VTexture@gl@cinder@@@std@@YAXAAV?$allocator@VTexture@gl@cinder@@@0@PAVTexture@gl@cinder@@@Z 00422eb0 f i cinder:Fbo.obj
 0001:00021eb0       ??$_Dest_val@V?$allocator@VRenderbuffer@gl@cinder@@@std@@VRenderbuffer@gl@cinder@@@std@@YAXAAV?$allocator@VRenderbuffer@gl@cinder@@@0@PAVRenderbuffer@gl@cinder@@@Z 00422eb0 f i cinder:Fbo.obj
 0001:00021ef0       ?getTexture@Fbo@gl@cinder@@QAEAAVTexture@23@H@Z 00422ef0 f   cinder:Fbo.obj
 0001:00021f90       ?bindTexture@Fbo@gl@cinder@@QAEXHH@Z 00422f90 f   cinder:Fbo.obj
 0001:00021fd0       ?checkStatus@Fbo@gl@cinder@@IAE_NPAVFboExceptionInvalidSpecification@23@@Z 00422fd0 f   cinder:Fbo.obj
 0001:00022390       ?getMaxSamples@Fbo@gl@cinder@@SAHXZ 00423390 f   cinder:Fbo.obj
 0001:000224d0       ??$_Destroy_range@V?$allocator@VRenderbuffer@gl@cinder@@@std@@@std@@YAXPAVRenderbuffer@gl@cinder@@0AAV?$allocator@VRenderbuffer@gl@cinder@@@0@U_Nonscalar_ptr_iterator_tag@0@@Z 004234d0 f i cinder:Fbo.obj
 0001:000224d0       ??$_Destroy_range@V?$allocator@V?$shared_ptr@VDisplay@cinder@@@tr1@std@@@std@@@std@@YAXPAV?$shared_ptr@VDisplay@cinder@@@tr1@0@0AAV?$allocator@V?$shared_ptr@VDisplay@cinder@@@tr1@std@@@0@U_Nonscalar_ptr_iterator_tag@0@@Z 004234d0 f i cinder:Display.obj
 0001:000224d0       ??$_Destroy_range@V?$allocator@VTexture@gl@cinder@@@std@@@std@@YAXPAVTexture@gl@cinder@@0AAV?$allocator@VTexture@gl@cinder@@@0@U_Nonscalar_ptr_iterator_tag@0@@Z 004234d0 f i cinder:Fbo.obj
 0001:00022530       ??$_Uninit_move@PAVTexture@gl@cinder@@PAV123@V?$allocator@VTexture@gl@cinder@@@std@@V123@@std@@YAPAVTexture@gl@cinder@@PAV123@00AAV?$allocator@VTexture@gl@cinder@@@0@0U_Nonscalar_ptr_iterator_tag@0@@Z 00423530 f i cinder:Fbo.obj
 0001:00022530       ??$_Uninit_move@PAVRenderbuffer@gl@cinder@@PAV123@V?$allocator@VRenderbuffer@gl@cinder@@@std@@V123@@std@@YAPAVRenderbuffer@gl@cinder@@PAV123@00AAV?$allocator@VRenderbuffer@gl@cinder@@@0@0U_Nonscalar_ptr_iterator_tag@0@@Z 00423530 f i cinder:Fbo.obj
 0001:00022600       ??0Obj@Renderbuffer@gl@cinder@@QAE@HHIHH@Z 00423600 f   cinder:Fbo.obj
 0001:00022700       ?reserve@?$vector@VRenderbuffer@gl@cinder@@V?$allocator@VRenderbuffer@gl@cinder@@@std@@@std@@QAEXI@Z 00423700 f i cinder:Fbo.obj
 0001:00022700       ?reserve@?$vector@VTexture@gl@cinder@@V?$allocator@VTexture@gl@cinder@@@std@@@std@@QAEXI@Z 00423700 f i cinder:Fbo.obj
 0001:000227f0       ??1?$vector@VRenderbuffer@gl@cinder@@V?$allocator@VRenderbuffer@gl@cinder@@@std@@@std@@QAE@XZ 004237f0 f i cinder:Fbo.obj
 0001:000227f0       ??1?$vector@VTexture@gl@cinder@@V?$allocator@VTexture@gl@cinder@@@std@@@std@@QAE@XZ 004237f0 f i cinder:Fbo.obj
 0001:00022840       ??0Obj@Fbo@gl@cinder@@QAE@HH@Z 00423840 f   cinder:Fbo.obj
 0001:000228d0       ??1Obj@Fbo@gl@cinder@@QAE@XZ 004238d0 f   cinder:Fbo.obj
 0001:00022a40       ?_Destroy@?$_Ref_count@UObj@Fbo@gl@cinder@@@tr1@std@@EAEXXZ 00423a40 f i cinder:Fbo.obj
 0001:00022a60       ?initMultisample@Fbo@gl@cinder@@IAE_N_N@Z 00423a60 f   cinder:Fbo.obj
 0001:000231c0       ??$_Resetp@UObj@Fbo@gl@cinder@@@?$shared_ptr@UObj@Fbo@gl@cinder@@@tr1@std@@AAEXPAUObj@Fbo@gl@cinder@@@Z 004241c0 f i cinder:Fbo.obj
 0001:00023260       ?init@Fbo@gl@cinder@@IAEXXZ 00424260 f   cinder:Fbo.obj
 0001:00023b30       ??0Fbo@gl@cinder@@QAE@HHUFormat@012@@Z 00424b30 f   cinder:Fbo.obj
 0001:00023bc0       ?what@VboExc@gl@cinder@@UBEPBDXZ 00424bc0 f i cinder:VBO.obj
 0001:00023bd0       ?hasStaticTexCoords@Layout@VboMesh@gl@cinder@@QBE_NXZ 00424bd0 f   cinder:VBO.obj
 0001:00023c00       ?hasDynamicTexCoords@Layout@VboMesh@gl@cinder@@QBE_NXZ 00424c00 f   cinder:VBO.obj
 0001:00023c30       ?unbindBuffers@VboMesh@gl@cinder@@SAXXZ 00424c30 f   cinder:VBO.obj
 0001:00023c50       ?_Destroy@?$_Ref_count@UObj@Vbo@gl@cinder@@@tr1@std@@EAEXXZ 00424c50 f i cinder:VBO.obj
 0001:00023c70       ?what@VboFailedUnmapExc@gl@cinder@@UBEPBDXZ 00424c70 f i cinder:VBO.obj
 0001:00023c80       ?_Reset0@?$_Ptr_base@UIWICBitmapFrameDecode@@@tr1@std@@QAEXPAUIWICBitmapFrameDecode@@PAV_Ref_count_base@23@@Z 00424c80 f i cinder:ImageSourceFileWic.obj
 0001:00023c80       ?_Reset0@?$_Ptr_base@VComOStream@msw@cinder@@@tr1@std@@QAEXPAVComOStream@msw@cinder@@PAV_Ref_count_base@23@@Z 00424c80 f i cinder:ImageTargetFileWic.obj
 0001:00023c80       ?_Reset0@?$_Ptr_base@VDataSource@cinder@@@tr1@std@@QAEXPAVDataSource@cinder@@PAV_Ref_count_base@23@@Z 00424c80 f i cinder:ImageIo.obj
 0001:00023c80       ?_Reset0@?$_Ptr_base@UObj@?$SurfaceT@E@cinder@@@tr1@std@@QAEXPAUObj@?$SurfaceT@E@cinder@@PAV_Ref_count_base@23@@Z 00424c80 f i cinder:Surface.obj
 0001:00023c80       ?_Reset0@?$_Ptr_base@E@tr1@std@@QAEXPAEPAV_Ref_count_base@23@@Z 00424c80 f i cinder:Texture.obj
 0001:00023c80       ?_Reset0@?$_Ptr_base@V?$map@V?$basic_string@DU?$char_traits@D@std@@V?$allocator@D@2@@std@@PBU_GUID@@U?$less@V?$basic_string@DU?$char_traits@D@std@@V?$allocator@D@2@@std@@@2@V?$allocator@U?$pair@$$CBV?$basic_string@DU?$char_traits@D@std@@V?$allocator@D@2@@std@@PBU_GUID@@@std@@@2@@std@@@tr1@std@@QAEXPAV?$map@V?$basic_string@DU?$char_traits@D@std@@V?$allocator@D@2@@std@@PBU_GUID@@U?$less@V?$basic_string@DU?$char_traits@D@std@@V?$allocator@D@2@@std@@@2@V?$allocator@U?$pair@$$CBV?$basic_string@DU?$char_traits@D@std@@V?$allocator@D@2@@std@@PBU_GUID@@@std@@@2@@3@PAV_Ref_count_base@23@@Z 00424c80 f i cinder:ImageTargetFileWic.obj
 0001:00023c80       ?_Reset0@?$_Ptr_base@VDataTarget@cinder@@@tr1@std@@QAEXPAVDataTarget@cinder@@PAV_Ref_count_base@23@@Z 00424c80 f i cinder:ImageIo.obj
 0001:00023c80       ?_Reset0@?$_Ptr_base@UObj@?$ChannelT@E@cinder@@@tr1@std@@QAEXPAUObj@?$ChannelT@E@cinder@@PAV_Ref_count_base@23@@Z 00424c80 f i cinder:Surface.obj
 0001:00023c80       ?_Reset0@?$_Ptr_base@UIWICStream@@@tr1@std@@QAEXPAUIWICStream@@PAV_Ref_count_base@23@@Z 00424c80 f i cinder:ImageSourceFileWic.obj
 0001:00023c80       ?_Reset0@?$_Ptr_base@VTimelineItem@cinder@@@tr1@std@@QAEXPAVTimelineItem@cinder@@PAV_Ref_count_base@23@@Z 00424c80 f i cinder:Timeline.obj
 0001:00023c80       ?_Reset0@?$_Ptr_base@UInst@ImageIoRegistrar@cinder@@@tr1@std@@QAEXPAUInst@ImageIoRegistrar@cinder@@PAV_Ref_count_base@23@@Z 00424c80 f i cinder:ImageIo.obj
 0001:00023c80       ?_Reset0@?$_Ptr_base@UObj@?$SurfaceT@M@cinder@@@tr1@std@@QAEXPAUObj@?$SurfaceT@M@cinder@@PAV_Ref_count_base@23@@Z 00424c80 f i cinder:Surface.obj
 0001:00023c80       ?_Reset0@?$_Ptr_base@UObj@Buffer@cinder@@@tr1@std@@QAEXPAUObj@Buffer@cinder@@PAV_Ref_count_base@23@@Z 00424c80 f i cinder:GlslProg.obj
 0001:00023c80       ?_Reset0@?$_Ptr_base@M@tr1@std@@QAEXPAMPAV_Ref_count_base@23@@Z 00424c80 f i cinder:Texture.obj
 0001:00023c80       ?_Reset0@?$_Ptr_base@VRenderer@app@cinder@@@tr1@std@@QAEXPAVRenderer@app@cinder@@PAV_Ref_count_base@23@@Z 00424c80 f i cinder:App.obj
 0001:00023c80       ?_Reset0@?$_Ptr_base@V?$ImageTargetGLTexture@M@gl@cinder@@@tr1@std@@QAEXPAV?$ImageTargetGLTexture@M@gl@cinder@@PAV_Ref_count_base@23@@Z 00424c80 f i cinder:Texture.obj
 0001:00023c80       ?_Reset0@?$_Ptr_base@V?$ImageTargetChannel@M@cinder@@@tr1@std@@QAEXPAV?$ImageTargetChannel@M@cinder@@PAV_Ref_count_base@23@@Z 00424c80 f i cinder:Channel.obj
 0001:00023c80       ?_Reset0@?$_Ptr_base@UIWICBitmapFrameEncode@@@tr1@std@@QAEXPAUIWICBitmapFrameEncode@@PAV_Ref_count_base@23@@Z 00424c80 f i cinder:ImageTargetFileWic.obj
 0001:00023c80       ?_Reset0@?$_Ptr_base@UObj@Fbo@gl@cinder@@@tr1@std@@QAEXPAUObj@Fbo@gl@cinder@@PAV_Ref_count_base@23@@Z 00424c80 f i CloudParticle.obj
 0001:00023c80       ?_Reset0@?$_Ptr_base@UIWICFormatConverter@@@tr1@std@@QAEXPAUIWICFormatConverter@@PAV_Ref_count_base@23@@Z 00424c80 f i cinder:ImageSourceFileWic.obj
 0001:00023c80       ?_Reset0@?$_Ptr_base@UIWICBitmapEncoder@@@tr1@std@@QAEXPAUIWICBitmapEncoder@@PAV_Ref_count_base@23@@Z 00424c80 f i cinder:ImageTargetFileWic.obj
 0001:00023c80       ?_Reset0@?$_Ptr_base@VDisplay@cinder@@@tr1@std@@QAEXPAVDisplay@cinder@@PAV_Ref_count_base@23@@Z 00424c80 f i cinder:Display.obj
 0001:00023c80       ?_Reset0@?$_Ptr_base@UtagTOUCHINPUT@@@tr1@std@@QAEXPAUtagTOUCHINPUT@@PAV_Ref_count_base@23@@Z 00424c80 f i cinder:AppImplMswBasic.obj
 0001:00023c80       ?_Reset0@?$_Ptr_base@D@tr1@std@@QAEXPADPAV_Ref_count_base@23@@Z 00424c80 f i cinder:GlslProg.obj
 0001:00023c80       ?_Reset0@?$_Ptr_base@UObj@Texture@gl@cinder@@@tr1@std@@QAEXPAUObj@Texture@gl@cinder@@PAV_Ref_count_base@23@@Z 00424c80 f i CloudParticle.obj
 0001:00023c80       ?_Reset0@?$_Ptr_base@V?$basic_dostream@DU?$char_traits@D@std@@@msw@cinder@@@tr1@std@@QAEXPAV?$basic_dostream@DU?$char_traits@D@std@@@msw@cinder@@PAV_Ref_count_base@23@@Z 00424c80 f i cinder:App.obj
 0001:00023c80       ?_Reset0@?$_Ptr_base@UObj@VboMesh@gl@cinder@@@tr1@std@@QAEXPAUObj@VboMesh@gl@cinder@@PAV_Ref_count_base@23@@Z 00424c80 f i CloudParticle.obj
 0001:00023c80       ?_Reset0@?$_Ptr_base@VImageSource@cinder@@@tr1@std@@QAEXPAVImageSource@cinder@@PAV_Ref_count_base@23@@Z 00424c80 f i cinder:Surface.obj
 0001:00023c80       ?_Reset0@?$_Ptr_base@UObj@GlslProg@gl@cinder@@@tr1@std@@QAEXPAUObj@GlslProg@gl@cinder@@PAV_Ref_count_base@23@@Z 00424c80 f i CloudParticle.obj
 0001:00023c80       ?_Reset0@?$_Ptr_base@UObj@?$ChannelT@M@cinder@@@tr1@std@@QAEXPAUObj@?$ChannelT@M@cinder@@PAV_Ref_count_base@23@@Z 00424c80 f i VectorFlowField.obj
 0001:00023c80       ?_Reset0@?$_Ptr_base@VDataSourceBuffer@cinder@@@tr1@std@@QAEXPAVDataSourceBuffer@cinder@@PAV_Ref_count_base@23@@Z 00424c80 f i cinder:DataSource.obj
 0001:00023c80       ?_Reset0@?$_Ptr_base@VIStreamMem@cinder@@@tr1@std@@QAEXPAVIStreamMem@cinder@@PAV_Ref_count_base@23@@Z 00424c80 f i cinder:Stream.obj
 0001:00023c80       ?_Reset0@?$_Ptr_base@V?$ImageTargetGLTexture@G@gl@cinder@@@tr1@std@@QAEXPAV?$ImageTargetGLTexture@G@gl@cinder@@PAV_Ref_count_base@23@@Z 00424c80 f i cinder:Texture.obj
 0001:00023c80       ?_Reset0@?$_Ptr_base@UIWICImagingFactory@@@tr1@std@@QAEXPAUIWICImagingFactory@@PAV_Ref_count_base@23@@Z 00424c80 f i cinder:ImageSourceFileWic.obj
 0001:00023c80       ?_Reset0@?$_Ptr_base@VOStream@cinder@@@tr1@std@@QAEXPAVOStream@cinder@@PAV_Ref_count_base@23@@Z 00424c80 f i cinder:ImageTargetFileWic.obj
 0001:00023c80       ?_Reset0@?$_Ptr_base@VImageSourceFileWic@cinder@@@tr1@std@@QAEXPAVImageSourceFileWic@cinder@@PAV_Ref_count_base@23@@Z 00424c80 f i cinder:ImageSourceFileWic.obj
 0001:00023c80       ?_Reset0@?$_Ptr_base@V?$ImageTargetGLTexture@E@gl@cinder@@@tr1@std@@QAEXPAV?$ImageTargetGLTexture@E@gl@cinder@@PAV_Ref_count_base@23@@Z 00424c80 f i cinder:Texture.obj
 0001:00023c80       ?_Reset0@?$_Ptr_base@UObj@Vbo@gl@cinder@@@tr1@std@@QAEXPAUObj@Vbo@gl@cinder@@PAV_Ref_count_base@23@@Z 00424c80 f i cinder:VBO.obj
 0001:00023c80       ?_Reset0@?$_Ptr_base@UIWICBitmapDecoder@@@tr1@std@@QAEXPAUIWICBitmapDecoder@@PAV_Ref_count_base@23@@Z 00424c80 f i cinder:ImageSourceFileWic.obj
 0001:00023c80       ?_Reset0@?$_Ptr_base@VImageTarget@cinder@@@tr1@std@@QAEXPAVImageTarget@cinder@@PAV_Ref_count_base@23@@Z 00424c80 f i cinder:Surface.obj
 0001:00023c80       ?_Reset0@?$_Ptr_base@UObj@Renderbuffer@gl@cinder@@@tr1@std@@QAEXPAUObj@Renderbuffer@gl@cinder@@PAV_Ref_count_base@23@@Z 00424c80 f i cinder:Fbo.obj
 0001:00023c80       ?_Reset0@?$_Ptr_base@VTimeline@cinder@@@tr1@std@@QAEXPAVTimeline@cinder@@PAV_Ref_count_base@23@@Z 00424c80 f i cinder:App.obj
 0001:00023cf0       ??0VboExc@gl@cinder@@QAE@ABV012@@Z 00424cf0 f i cinder:VBO.obj
 0001:00023d10       ??0VboFailedUnmapExc@gl@cinder@@QAE@ABV012@@Z 00424d10 f i cinder:VBO.obj
 0001:00023d30       ?enableClientStates@VboMesh@gl@cinder@@QBEXXZ 00424d30 f   cinder:VBO.obj
 0001:00023e90       ?disableClientStates@VboMesh@gl@cinder@@QBEXXZ 00424e90 f   cinder:VBO.obj
 0001:00023f90       ?bindAllData@VboMesh@gl@cinder@@QBEXXZ 00424f90 f   cinder:VBO.obj
 0001:00024210       ?bufferIndices@VboMesh@gl@cinder@@QAEXABV?$vector@IV?$allocator@I@std@@@std@@@Z 00425210 f   cinder:VBO.obj
 0001:00024270       ?bufferTexCoords2d@VboMesh@gl@cinder@@QAEXIABV?$vector@V?$Vec2@M@cinder@@V?$allocator@V?$Vec2@M@cinder@@@std@@@std@@@Z 00425270 f   cinder:VBO.obj
 0001:00024330       ??$_Copy_impl@PAU?$pair@W4CustomAttr@Layout@VboMesh@gl@cinder@@I@std@@PAU12@@std@@YAPAU?$pair@W4CustomAttr@Layout@VboMesh@gl@cinder@@I@0@PAU10@00@Z 00425330 f i cinder:VBO.obj
 0001:00024360       ??$_Resetp@UObj@Vbo@gl@cinder@@@?$shared_ptr@UObj@Vbo@gl@cinder@@@tr1@std@@AAEXPAUObj@Vbo@gl@cinder@@@Z 00425360 f i cinder:VBO.obj
 0001:00024410       ??1?$vector@_WV?$allocator@_W@std@@@std@@QAE@XZ 00425410 f i cinder:Utilities.obj
 0001:00024410       ??1?$vector@HV?$allocator@H@std@@@std@@QAE@XZ 00425410 f i cinder:VBO.obj
 0001:00024410       ?_Tidy@?$vector@U?$pair@W4CustomAttr@Layout@VboMesh@gl@cinder@@I@std@@V?$allocator@U?$pair@W4CustomAttr@Layout@VboMesh@gl@cinder@@I@std@@@2@@std@@IAEXXZ 00425410 f i CloudParticle.obj
 0001:00024410       ??1?$vector@V?$Vec3@M@cinder@@V?$allocator@V?$Vec3@M@cinder@@@std@@@std@@QAE@XZ 00425410 f i CloudParticle.obj
 0001:00024410       ??1?$vector@IV?$allocator@I@std@@@std@@QAE@XZ 00425410 f i CloudParticle.obj
 0001:00024410       ?_Tidy@?$vector@VTouch@TouchEvent@app@cinder@@V?$allocator@VTouch@TouchEvent@app@cinder@@@std@@@std@@IAEXXZ 00425410 f i godComplexApp.obj
 0001:00024410       ??1?$vector@V?$Vec2@M@cinder@@V?$allocator@V?$Vec2@M@cinder@@@std@@@std@@QAE@XZ 00425410 f i CloudParticle.obj
 0001:00024410       ?_Tidy@?$vector@HV?$allocator@H@std@@@std@@IAEXXZ 00425410 f i cinder:VBO.obj
 0001:00024410       ?_Tidy@?$vector@V?$Vec3@M@cinder@@V?$allocator@V?$Vec3@M@cinder@@@std@@@std@@IAEXXZ 00425410 f i CloudParticle.obj
 0001:00024410       ??1?$vector@U?$pair@W4CustomAttr@Layout@VboMesh@gl@cinder@@I@std@@V?$allocator@U?$pair@W4CustomAttr@Layout@VboMesh@gl@cinder@@I@std@@@2@@std@@QAE@XZ 00425410 f i CloudParticle.obj
 0001:00024410       ??1?$vector@DV?$allocator@D@std@@@std@@QAE@XZ 00425410 f i cinder:Utilities.obj
 0001:00024410       ??1?$vector@VTouch@TouchEvent@app@cinder@@V?$allocator@VTouch@TouchEvent@app@cinder@@@std@@@std@@QAE@XZ 00425410 f i godComplexApp.obj
 0001:00024440       ??4?$shared_ptr@UObj@Vbo@gl@cinder@@@tr1@std@@QAEAAV012@ABV012@@Z 00425440 f i cinder:VBO.obj
 0001:00024440       ??4?$shared_ptr@UObj@?$ChannelT@E@cinder@@@tr1@std@@QAEAAV012@ABV012@@Z 00425440 f i cinder:Surface.obj
 0001:000244b0       ?_Construct_n@?$vector@HV?$allocator@H@std@@@std@@QAEXIPBH@Z 004254b0 f i cinder:VBO.obj
 0001:00024520       ?_Reserve@?$vector@HV?$allocator@H@std@@@std@@IAEXI@Z 00425520 f i cinder:VBO.obj
 0001:00024580       ?push_back@?$vector@HV?$allocator@H@std@@@std@@QAEX$$QAH@Z 00425580 f i cinder:VBO.obj
 0001:000245f0       ??$_Uninit_copy@PAU?$pair@W4CustomAttr@Layout@VboMesh@gl@cinder@@I@std@@PAU12@V?$allocator@U?$pair@W4CustomAttr@Layout@VboMesh@gl@cinder@@I@std@@@2@@std@@YAPAU?$pair@W4CustomAttr@Layout@VboMesh@gl@cinder@@I@0@PAU10@00AAV?$allocator@U?$pair@W4CustomAttr@Layout@VboMesh@gl@cinder@@I@std@@@0@U_Nonscalar_ptr_iterator_tag@0@@Z 004255f0 f i cinder:VBO.obj
 0001:00024620       ??0Vbo@gl@cinder@@QAE@I@Z  00425620 f   cinder:VBO.obj
 0001:000246f0       ?clear@?$vector@U?$pair@W4CustomAttr@Layout@VboMesh@gl@cinder@@I@std@@V?$allocator@U?$pair@W4CustomAttr@Layout@VboMesh@gl@cinder@@I@std@@@2@@std@@QAEXXZ 004256f0 f i cinder:VBO.obj
 0001:00024730       ??0Obj@VboMesh@gl@cinder@@QAE@XZ 00425730 f i cinder:VBO.obj
 0001:000247c0       ??$_Ucopy@PAU?$pair@W4CustomAttr@Layout@VboMesh@gl@cinder@@I@std@@@?$vector@U?$pair@W4CustomAttr@Layout@VboMesh@gl@cinder@@I@std@@V?$allocator@U?$pair@W4CustomAttr@Layout@VboMesh@gl@cinder@@I@std@@@2@@std@@IAEPAU?$pair@W4CustomAttr@Layout@VboMesh@gl@cinder@@I@1@PAU21@00@Z 004257c0 f i cinder:VBO.obj
 0001:000247f0       ??1Obj@VboMesh@gl@cinder@@QAE@XZ 004257f0 f i cinder:VBO.obj
 0001:000248a0       ?initializeBuffers@VboMesh@gl@cinder@@IAEX_N@Z 004258a0 f   cinder:VBO.obj
 0001:00025030       ??4?$vector@U?$pair@W4CustomAttr@Layout@VboMesh@gl@cinder@@I@std@@V?$allocator@U?$pair@W4CustomAttr@Layout@VboMesh@gl@cinder@@I@std@@@2@@std@@QAEAAV01@ABV01@@Z 00426030 f i cinder:VBO.obj
 0001:00025120       ?_Destroy@?$_Ref_count@UObj@VboMesh@gl@cinder@@@tr1@std@@EAEXXZ 00426120 f i cinder:VBO.obj
 0001:00025140       ??4Layout@VboMesh@gl@cinder@@QAEAAU0123@ABU0123@@Z 00426140 f i cinder:VBO.obj
 0001:000252c0       ??$_Resetp@UObj@VboMesh@gl@cinder@@@?$shared_ptr@UObj@VboMesh@gl@cinder@@@tr1@std@@AAEXPAUObj@VboMesh@gl@cinder@@@Z 004262c0 f i cinder:VBO.obj
 0001:00025360       ??0VboMesh@gl@cinder@@QAE@ABVTriMesh@2@ULayout@012@@Z 00426360 f   cinder:VBO.obj
 0001:00025740       ??0VboMesh@gl@cinder@@QAE@IIULayout@012@I@Z 00426740 f   cinder:VBO.obj
 0001:00025880       ??R?$add@IH$00@detail@random@boost@@QAEHIH@Z 00426880 f i cinder:Perlin.obj
 0001:000258a0       ??$generate_uniform_int@V?$mersenne_twister_engine@I$0CA@$0CHA@$0BIN@$0BP@$0JJAILANP@$0L@$0PPPPPPPP@$06$0JNCMFGIA@$0P@$0OPMGAAAA@$0BC@$0GMAHIJGF@@random@boost@@I@detail@random@boost@@YAIAAV?$mersenne_twister_engine@I$0CA@$0CHA@$0BIN@$0BP@$0JJAILANP@$0L@$0PPPPPPPP@$06$0JNCMFGIA@$0P@$0OPMGAAAA@$0BC@$0GMAHIJGF@@12@IIU?$bool_@$00@mpl@2@@Z 004268a0 f i cinder:Perlin.obj
 0001:000259c0       ?fBm@Perlin@cinder@@QBEMABV?$Vec2@M@2@@Z 004269c0 f   cinder:Perlin.obj
 0001:00025cf0       ?fBm@Perlin@cinder@@QBEMABV?$Vec3@M@2@@Z 00426cf0 f   cinder:Perlin.obj
 0001:00026250       ??$generate_uniform_int@V?$mersenne_twister_engine@I$0CA@$0CHA@$0BIN@$0BP@$0JJAILANP@$0L@$0PPPPPPPP@$06$0JNCMFGIA@$0P@$0OPMGAAAA@$0BC@$0GMAHIJGF@@random@boost@@H@detail@random@boost@@YAHAAV?$mersenne_twister_engine@I$0CA@$0CHA@$0BIN@$0BP@$0JJAILANP@$0L@$0PPPPPPPP@$06$0JNCMFGIA@$0P@$0OPMGAAAA@$0BC@$0GMAHIJGF@@12@HHU?$bool_@$00@mpl@2@@Z 00427250 f i cinder:Perlin.obj
 0001:00026390       ?initPermutationTable@Perlin@cinder@@AAEXXZ 00427390 f   cinder:Perlin.obj
 0001:00026450       ??0Perlin@cinder@@QAE@EH@Z 00427450 f   cinder:Perlin.obj
 0001:00026470       ??0Perlin@cinder@@QAE@E@Z  00427470 f   cinder:Perlin.obj
 0001:00026490       ___GLeeGetProcAddress      00427490 f   cinder:GLee.obj
 0001:000264a0       ___GLeeLink_GL_VERSION_1_2 004274a0 f   cinder:GLee.obj
 0001:00026a30       ___GLeeLink_GL_VERSION_1_3 00427a30 f   cinder:GLee.obj
 0001:000270e0       ___GLeeLink_GL_VERSION_1_4 004280e0 f   cinder:GLee.obj
 0001:00027760       ___GLeeLink_GL_VERSION_1_5 00428760 f   cinder:GLee.obj
 0001:00027a40       ___GLeeLink_GL_VERSION_2_0 00428a40 f   cinder:GLee.obj
 0001:00028780       ___GLeeLink_GL_VERSION_2_1 00429780 f   cinder:GLee.obj
 0001:00028890       ___GLeeLink_GL_VERSION_3_0 00429890 f   cinder:GLee.obj
 0001:000290f0       ___GLeeLink_GL_ARB_multitexture 0042a0f0 f   cinder:GLee.obj
 0001:000295f0       ___GLeeLink_GL_ARB_transpose_matrix 0042a5f0 f   cinder:GLee.obj
 0001:000296b0       ___GLeeLink_GL_ARB_multisample 0042a6b0 f   cinder:GLee.obj
 0001:00029700       ___GLeeLink_GL_ARB_texture_compression 0042a700 f   cinder:GLee.obj
 0001:00029830       ___GLeeLink_GL_ARB_point_parameters 0042a830 f   cinder:GLee.obj
 0001:000298b0       ___GLeeLink_GL_ARB_vertex_blend 0042a8b0 f   cinder:GLee.obj
 0001:00029a50       ___GLeeLink_GL_ARB_matrix_palette 0042aa50 f   cinder:GLee.obj
 0001:00029b30       ___GLeeLink_GL_ARB_window_pos 0042ab30 f   cinder:GLee.obj
 0001:00029da0       ___GLeeLink_GL_ARB_vertex_program 0042ada0 f   cinder:GLee.obj
 0001:0002a690       ___GLeeLink_GL_ARB_vertex_buffer_object 0042b690 f   cinder:GLee.obj
 0001:0002a850       ___GLeeLink_GL_ARB_occlusion_query 0042b850 f   cinder:GLee.obj
 0001:0002a9a0       ___GLeeLink_GL_ARB_shader_objects 0042b9a0 f   cinder:GLee.obj
 0001:0002af50       ___GLeeLink_GL_ARB_vertex_shader 0042bf50 f   cinder:GLee.obj
 0001:0002aff0       ___GLeeLink_GL_ARB_draw_buffers 0042bff0 f   cinder:GLee.obj
 0001:0002b040       ___GLeeLink_GL_ARB_color_buffer_float 0042c040 f   cinder:GLee.obj
 0001:0002b090       ___GLeeLink_GL_ARB_draw_instanced 0042c090 f   cinder:GLee.obj
 0001:0002b110       ___GLeeLink_GL_ARB_framebuffer_object 0042c110 f   cinder:GLee.obj
 0001:0002b410       ___GLeeLink_GL_ARB_geometry_shader4 0042c410 f   cinder:GLee.obj
 0001:0002b4d0       ___GLeeLink_GL_ARB_instanced_arrays 0042c4d0 f   cinder:GLee.obj
 0001:0002b520       ___GLeeLink_GL_ARB_map_buffer_range 0042c520 f   cinder:GLee.obj
 0001:0002b5a0       ___GLeeLink_GL_ARB_texture_buffer_object 0042c5a0 f   cinder:GLee.obj
 0001:0002b5f0       ___GLeeLink_GL_ARB_vertex_array_object 0042c5f0 f   cinder:GLee.obj
 0001:0002b6b0       ___GLeeLink_GL_EXT_blend_color 0042c6b0 f   cinder:GLee.obj
 0001:0002b700       ___GLeeLink_GL_EXT_polygon_offset 0042c700 f   cinder:GLee.obj
 0001:0002b750       ___GLeeLink_GL_EXT_texture3D 0042c750 f   cinder:GLee.obj
 0001:0002b7d0       ___GLeeLink_GL_SGIS_texture_filter4 0042c7d0 f   cinder:GLee.obj
 0001:0002b850       ___GLeeLink_GL_EXT_subtexture 0042c850 f   cinder:GLee.obj
 0001:0002b8d0       ___GLeeLink_GL_EXT_copy_texture 0042c8d0 f   cinder:GLee.obj
 0001:0002b9b0       ___GLeeLink_GL_EXT_histogram 0042c9b0 f   cinder:GLee.obj
 0001:0002bb50       ___GLeeLink_GL_EXT_convolution 0042cb50 f   cinder:GLee.obj
 0001:0002bd50       ___GLeeLink_GL_SGI_color_table 0042cd50 f   cinder:GLee.obj
 0001:0002be80       ___GLeeLink_GL_SGIS_pixel_texture 0042ce80 f   cinder:GLee.obj
 0001:0002bf90       ___GLeeLink_GL_SGIX_pixel_texture 0042cf90 f   cinder:GLee.obj
 0001:0002bfe0       ___GLeeLink_GL_SGIS_texture4D 0042cfe0 f   cinder:GLee.obj
 0001:0002c060       ___GLeeLink_GL_EXT_texture_object 0042d060 f   cinder:GLee.obj
 0001:0002c170       ___GLeeLink_GL_SGIS_detail_texture 0042d170 f   cinder:GLee.obj
 0001:0002c1f0       ___GLeeLink_GL_SGIS_sharpen_texture 0042d1f0 f   cinder:GLee.obj
 0001:0002c270       ___GLeeLink_GL_SGIS_multisample 0042d270 f   cinder:GLee.obj
 0001:0002c2f0       ___GLeeLink_GL_EXT_vertex_array 0042d2f0 f   cinder:GLee.obj
 0001:0002c460       ___GLeeLink_GL_EXT_blend_minmax 0042d460 f   cinder:GLee.obj
 0001:0002c4b0       ___GLeeLink_GL_SGIX_sprite 0042d4b0 f   cinder:GLee.obj
 0001:0002c570       ___GLeeLink_GL_EXT_point_parameters 0042d570 f   cinder:GLee.obj
 0001:0002c5f0       ___GLeeLink_GL_SGIS_point_parameters 0042d5f0 f   cinder:GLee.obj
 0001:0002c670       ___GLeeLink_GL_SGIX_instruments 0042d670 f   cinder:GLee.obj
 0001:0002c780       ___GLeeLink_GL_SGIX_framezoom 0042d780 f   cinder:GLee.obj
 0001:0002c7d0       ___GLeeLink_GL_SGIX_tag_sample_buffer 0042d7d0 f   cinder:GLee.obj
 0001:0002c820       ___GLeeLink_GL_SGIX_polynomial_ffd 0042d820 f   cinder:GLee.obj
 0001:0002c8e0       ___GLeeLink_GL_SGIX_reference_plane 0042d8e0 f   cinder:GLee.obj
 0001:0002c930       ___GLeeLink_GL_SGIX_flush_raster 0042d930 f   cinder:GLee.obj
 0001:0002c980       ___GLeeLink_GL_SGIS_fog_function 0042d980 f   cinder:GLee.obj
 0001:0002ca00       ___GLeeLink_GL_HP_image_transform 0042da00 f   cinder:GLee.obj
 0001:0002cb10       ___GLeeLink_GL_EXT_color_subtable 0042db10 f   cinder:GLee.obj
 0001:0002cb90       ___GLeeLink_GL_PGI_misc_hints 0042db90 f   cinder:GLee.obj
 0001:0002cbe0       ___GLeeLink_GL_EXT_paletted_texture 0042dbe0 f   cinder:GLee.obj
 0001:0002cca0       ___GLeeLink_GL_SGIX_list_priority 0042dca0 f   cinder:GLee.obj
 0001:0002cdb0       ___GLeeLink_GL_EXT_index_material 0042ddb0 f   cinder:GLee.obj
 0001:0002ce00       ___GLeeLink_GL_EXT_index_func 0042de00 f   cinder:GLee.obj
 0001:0002ce50       ___GLeeLink_GL_EXT_compiled_vertex_array 0042de50 f   cinder:GLee.obj
 0001:0002ced0       ___GLeeLink_GL_EXT_cull_vertex 0042ded0 f   cinder:GLee.obj
 0001:0002cf50       ___GLeeLink_GL_SGIX_fragment_lighting 0042df50 f   cinder:GLee.obj
 0001:0002d210       ___GLeeLink_GL_EXT_draw_range_elements 0042e210 f   cinder:GLee.obj
 0001:0002d260       ___GLeeLink_GL_EXT_light_texture 0042e260 f   cinder:GLee.obj
 0001:0002d300       ___GLeeLink_GL_SGIX_async  0042e300 f   cinder:GLee.obj
 0001:0002d410       ___GLeeLink_GL_INTEL_parallel_arrays 0042e410 f   cinder:GLee.obj
 0001:0002d4d0       ___GLeeLink_GL_EXT_pixel_transform 0042e4d0 f   cinder:GLee.obj
 0001:0002d590       ___GLeeLink_GL_EXT_secondary_color 0042e590 f   cinder:GLee.obj
 0001:0002d820       ___GLeeLink_GL_EXT_texture_perturb_normal 0042e820 f   cinder:GLee.obj
 0001:0002d870       ___GLeeLink_GL_EXT_multi_draw_arrays 0042e870 f   cinder:GLee.obj
 0001:0002d8f0       ___GLeeLink_GL_EXT_fog_coord 0042e8f0 f   cinder:GLee.obj
 0001:0002d9d0       ___GLeeLink_GL_EXT_coordinate_frame 0042e9d0 f   cinder:GLee.obj
 0001:0002dd20       ___GLeeLink_GL_SUNX_constant_data 0042ed20 f   cinder:GLee.obj
 0001:0002dd70       ___GLeeLink_GL_SUN_global_alpha 0042ed70 f   cinder:GLee.obj
 0001:0002dec0       ___GLeeLink_GL_SUN_triangle_list 0042eec0 f   cinder:GLee.obj
 0001:0002dff0       ___GLeeLink_GL_SUN_vertex  0042eff0 f   cinder:GLee.obj
 0001:0002e5c0       ___GLeeLink_GL_EXT_blend_func_separate 0042f5c0 f   cinder:GLee.obj
 0001:0002e610       ___GLeeLink_GL_EXT_vertex_weighting 0042f610 f   cinder:GLee.obj
 0001:0002e6b0       ___GLeeLink_GL_NV_vertex_array_range 0042f6b0 f   cinder:GLee.obj
 0001:0002e730       ___GLeeLink_GL_NV_register_combiners 0042f730 f   cinder:GLee.obj
 0001:0002e930       ___GLeeLink_GL_MESA_resize_buffers 0042f930 f   cinder:GLee.obj
 0001:0002e980       ___GLeeLink_GL_MESA_window_pos 0042f980 f   cinder:GLee.obj
 0001:0002ed10       ___GLeeLink_GL_IBM_multimode_draw_arrays 0042fd10 f   cinder:GLee.obj
 0001:0002ed90       ___GLeeLink_GL_IBM_vertex_array_lists 0042fd90 f   cinder:GLee.obj
 0001:0002eee0       ___GLeeLink_GL_3DFX_tbuffer 0042fee0 f   cinder:GLee.obj
 0001:0002ef30       ___GLeeLink_GL_EXT_multisample 0042ff30 f   cinder:GLee.obj
 0001:0002efb0       ___GLeeLink_GL_SGIS_texture_color_mask 0042ffb0 f   cinder:GLee.obj
 0001:0002f000       ___GLeeLink_GL_NV_fence    00430000 f   cinder:GLee.obj
 0001:0002f130       ___GLeeLink_GL_NV_evaluators 00430130 f   cinder:GLee.obj
 0001:0002f2a0       ___GLeeLink_GL_NV_register_combiners2 004302a0 f   cinder:GLee.obj
 0001:0002f320       ___GLeeLink_GL_NV_vertex_program 00430320 f   cinder:GLee.obj
 0001:0002fc50       ___GLeeLink_GL_ATI_envmap_bumpmap 00430c50 f   cinder:GLee.obj
 0001:0002fd10       ___GLeeLink_GL_ATI_fragment_shader 00430d10 f   cinder:GLee.obj
 0001:0002ff40       ___GLeeLink_GL_ATI_pn_triangles 00430f40 f   cinder:GLee.obj
 0001:0002ffc0       ___GLeeLink_GL_ATI_vertex_array_object 00430fc0 f   cinder:GLee.obj
 0001:000301a0       ___GLeeLink_GL_EXT_vertex_shader 004311a0 f   cinder:GLee.obj
 0001:000307c0       ___GLeeLink_GL_ATI_vertex_streams 004317c0 f   cinder:GLee.obj
 0001:00030e40       ___GLeeLink_GL_ATI_element_array 00431e40 f   cinder:GLee.obj
 0001:00030ee0       ___GLeeLink_GL_SUN_mesh_array 00431ee0 f   cinder:GLee.obj
 0001:00030f30       ___GLeeLink_GL_NV_occlusion_query 00431f30 f   cinder:GLee.obj
 0001:00031060       ___GLeeLink_GL_NV_point_sprite 00432060 f   cinder:GLee.obj
 0001:000310e0       ___GLeeLink_GL_EXT_stencil_two_side 004320e0 f   cinder:GLee.obj
 0001:00031130       ___GLeeLink_GL_APPLE_element_array 00432130 f   cinder:GLee.obj
 0001:00031210       ___GLeeLink_GL_APPLE_fence 00432210 f   cinder:GLee.obj
 0001:00031360       ___GLeeLink_GL_APPLE_vertex_array_object 00432360 f   cinder:GLee.obj
 0001:00031420       ___GLeeLink_GL_APPLE_vertex_array_range 00432420 f   cinder:GLee.obj
 0001:000314c0       ___GLeeLink_GL_ATI_draw_buffers 004324c0 f   cinder:GLee.obj
 0001:00031510       ___GLeeLink_GL_NV_fragment_program 00432510 f   cinder:GLee.obj
 0001:00031620       ___GLeeLink_GL_NV_half_float 00432620 f   cinder:GLee.obj
 0001:00031cd0       ___GLeeLink_GL_NV_pixel_data_range 00432cd0 f   cinder:GLee.obj
 0001:00031d50       ___GLeeLink_GL_NV_primitive_restart 00432d50 f   cinder:GLee.obj
 0001:00031dd0       ___GLeeLink_GL_ATI_map_object_buffer 00432dd0 f   cinder:GLee.obj
 0001:00031e50       ___GLeeLink_GL_ATI_separate_stencil 00432e50 f   cinder:GLee.obj
 0001:00031ed0       ___GLeeLink_GL_ATI_vertex_attrib_array_object 00432ed0 f   cinder:GLee.obj
 0001:00031f70       ___GLeeLink_GL_EXT_depth_bounds_test 00432f70 f   cinder:GLee.obj
 0001:00031fc0       ___GLeeLink_GL_EXT_blend_equation_separate 00432fc0 f   cinder:GLee.obj
 0001:00032010       ___GLeeLink_GL_SGIX_clipmap 00433010 f   cinder:GLee.obj
 0001:00032010       ___GLeeLink_GL_SGIX_scalebias_hint 00433010 f   cinder:GLee.obj
 0001:00032010       ___GLeeLink_GL_SGIX_calligraphic_fragment 00433010 f   cinder:GLee.obj
 0001:00032010       ___GLeeLink_GL_NV_fog_distance 00433010 f   cinder:GLee.obj
 0001:00032010       ___GLeeLink_GL_NV_vertex_program1_1 00433010 f   cinder:GLee.obj
 0001:00032010       ___GLeeLink_GL_ARB_texture_rectangle 00433010 f   cinder:GLee.obj
 0001:00032010       ___GLeeLink_WGL_ARB_multisample 00433010 f   cinder:GLee.obj
 0001:00032010       ___GLeeLink_WGL_EXT_multisample 00433010 f   cinder:GLee.obj
 0001:00032010       ___GLeeLink_GL_ARB_pixel_buffer_object 00433010 f   cinder:GLee.obj
 0001:00032010       ___GLeeLink_GL_NV_texgen_reflection 00433010 f   cinder:GLee.obj
 0001:00032010       ___GLeeLink_GL_SGIS_texture_select 00433010 f   cinder:GLee.obj
 0001:00032010       ___GLeeLink_GL_EXT_texture_mirror_clamp 00433010 f   cinder:GLee.obj
 0001:00032010       ___GLeeLink_GL_EXT_texture_shared_exponent 00433010 f   cinder:GLee.obj
 0001:00032010       ___GLeeLink_GL_SGIS_texture_lod 00433010 f   cinder:GLee.obj
 0001:00032010       ___GLeeLink_WGL_NV_render_texture_rectangle 00433010 f   cinder:GLee.obj
 0001:00032010       ___GLeeLink_GL_EXT_texture_compression_dxt1 00433010 f   cinder:GLee.obj
 0001:00032010       ___GLeeLink_GL_IBM_rasterpos_clip 00433010 f   cinder:GLee.obj
 0001:00032010       ___GLeeLink_GL_OES_byte_coordinates 00433010 f   cinder:GLee.obj
 0001:00032010       ___GLeeLink_GL_ARB_fragment_shader 00433010 f   cinder:GLee.obj
 0001:00032010       ___GLeeLink_GL_ARB_framebuffer_sRGB 00433010 f   cinder:GLee.obj
 0001:00032010       ___GLeeLink_WGL_3DFX_multisample 00433010 f   cinder:GLee.obj
 0001:00032010       ___GLeeLink_GL_SGIS_generate_mipmap 00433010 f   cinder:GLee.obj
 0001:00032010       ___GLeeLink_GL_SGIS_texture_edge_clamp 00433010 f   cinder:GLee.obj
 0001:00032010       ___GLeeLink_GL_ARB_texture_rg 00433010 f   cinder:GLee.obj
 0001:00032010       ___GLeeLink_GL_EXT_texture_lod_bias 00433010 f   cinder:GLee.obj
 0001:00032010       ___GLeeLink_GL_ARB_depth_texture 00433010 f   cinder:GLee.obj
 0001:00032010       ___GLeeLink_GL_HP_occlusion_test 00433010 f   cinder:GLee.obj
 0001:00032010       ___GLeeLink_GL_ARB_texture_compression_rgtc 00433010 f   cinder:GLee.obj
 0001:00032010       ___GLeeLink_GL_NV_packed_depth_stencil 00433010 f   cinder:GLee.obj
 0001:00032010       ___GLeeLink_GL_SGIX_texture_multi_buffer 00433010 f   cinder:GLee.obj
 0001:00032010       ___GLeeLink_GL_SGIX_pixel_tiles 00433010 f   cinder:GLee.obj
 0001:00032010       ___GLeeLink_GL_INGR_interlace_read 00433010 f   cinder:GLee.obj
 0001:00032010       ___GLeeLink_GL_EXT_blend_logic_op 00433010 f   cinder:GLee.obj
 0001:00032010       ___GLeeLink_GL_EXT_packed_depth_stencil 00433010 f   cinder:GLee.obj
 0001:00032010       ___GLeeLink_GL_OES_read_format 00433010 f   cinder:GLee.obj
 0001:00032010       ___GLeeLink_GL_ARB_shadow_ambient 00433010 f   cinder:GLee.obj
 0001:00032010       ___GLeeLink_GL_NV_fragment_program_option 00433010 f   cinder:GLee.obj
 0001:00032010       ___GLeeLink_GL_EXT_blend_subtract 00433010 f   cinder:GLee.obj
 0001:00032010       ___GLeeLink_GL_ARB_texture_env_add 00433010 f   cinder:GLee.obj
 0001:00032010       ___GLeeLink_GL_SGIX_depth_pass_instrument 00433010 f   cinder:GLee.obj
 0001:00032010       ___GLeeLink_GL_EXT_texture_swizzle 00433010 f   cinder:GLee.obj
 0001:00032010       ___GLeeLink_GL_ARB_texture_non_power_of_two 00433010 f   cinder:GLee.obj
 0001:00032010       ___GLeeLink_GL_ARB_texture_env_crossbar 00433010 f   cinder:GLee.obj
 0001:00032010       ___GLeeLink_WGL_EXT_framebuffer_sRGB 00433010 f   cinder:GLee.obj
 0001:00032010       ___GLeeLink_GL_REND_screen_coordinates 00433010 f   cinder:GLee.obj
 0001:00032010       ___GLeeLink_GL_SGI_color_matrix 00433010 f   cinder:GLee.obj
 0001:00032010       ___GLeeLink_GL_EXT_texture_compression_rgtc 00433010 f   cinder:GLee.obj
 0001:00032010       ___GLeeLink_GL_EXT_texture_env_add 00433010 f   cinder:GLee.obj
 0001:00032010       ___GLeeLink_GL_IBM_static_data 00433010 f   cinder:GLee.obj
 0001:00032010       ___GLeeLink_GL_EXT_pixel_transform_color_table 00433010 f   cinder:GLee.obj
 0001:00032010       ___GLeeLink_GL_ARB_depth_buffer_float 00433010 f   cinder:GLee.obj
 0001:00032010       ___GLeeLink_GL_NV_multisample_filter_hint 00433010 f   cinder:GLee.obj
 0001:00032010       ___GLeeLink_GL_WIN_specular_fog 00433010 f   cinder:GLee.obj
 0001:00032010       ___GLeeLink_GL_EXT_texture_compression_latc 00433010 f   cinder:GLee.obj
 0001:00032010       ___GLeeLink_GL_EXT_texture_cube_map 00433010 f   cinder:GLee.obj
 0001:00032010       ___GLeeLink_GL_SGIX_fog_scale 00433010 f   cinder:GLee.obj
 0001:00032010       ___GLeeLink_GL_SGIX_texture_range 00433010 f   cinder:GLee.obj
 0001:00032010       ___GLeeLink_GL_OML_interlace 00433010 f   cinder:GLee.obj
 0001:00032010       ___GLeeLink_GL_SGIX_ycrcba 00433010 f   cinder:GLee.obj
 0001:00032010       ___GLeeLink_GL_ARB_texture_mirrored_repeat 00433010 f   cinder:GLee.obj
 0001:00032010       ___GLeeLink_GL_WIN_phong_shading 00433010 f   cinder:GLee.obj
 0001:00032010       ___GLeeLink_GL_MESA_pack_invert 00433010 f   cinder:GLee.obj
 0001:00032010       ___GLeeLink_GL_EXT_bgra    00433010 f   cinder:GLee.obj
 0001:00032010       ___GLeeLink_GL_EXT_texture_env_dot3 00433010 f   cinder:GLee.obj
 0001:00032010       ___GLeeLink_GL_SGIX_texture_select 00433010 f   cinder:GLee.obj
 0001:00032010       ___GLeeLink_GL_APPLE_transform_hint 00433010 f   cinder:GLee.obj
 0001:00032010       ___GLeeLink_GL_EXT_texture_env_combine 00433010 f   cinder:GLee.obj
 0001:00032010       ___GLeeLink_GL_NV_texture_shader 00433010 f   cinder:GLee.obj
 0001:00032010       ___GLeeLink_GL_3DFX_multisample 00433010 f   cinder:GLee.obj
 0001:00032010       ___GLeeLink_GL_EXT_texture_env 00433010 f   cinder:GLee.obj
 0001:00032010       ___GLeeLink_GL_SGIX_shadow_ambient 00433010 f   cinder:GLee.obj
 0001:00032010       ___GLeeLink_GL_NV_light_max_exponent 00433010 f   cinder:GLee.obj
 0001:00032010       ___GLeeLink_GL_SGIX_vertex_preclip 00433010 f   cinder:GLee.obj
 0001:00032010       ___GLeeLink_GL_EXT_cmyka   00433010 f   cinder:GLee.obj
 0001:00032010       ___GLeeLink_GL_SGIX_async_pixel 00433010 f   cinder:GLee.obj
 0001:00032010       ___GLeeLink_GL_EXT_abgr    00433010 f   cinder:GLee.obj
 0001:00032010       ___GLeeLink_GL_EXT_shadow_funcs 00433010 f   cinder:GLee.obj
 0001:00032010       ___GLeeLink_WGL_NV_render_depth_texture 00433010 f   cinder:GLee.obj
 0001:00032010       ___GLeeLink_GL_EXT_rescale_normal 00433010 f   cinder:GLee.obj
 0001:00032010       ___GLeeLink_GL_HP_convolution_border_modes 00433010 f   cinder:GLee.obj
 0001:00032010       ___GLeeLink_GL_ARB_point_sprite 00433010 f   cinder:GLee.obj
 0001:00032010       ___GLeeLink_GL_ATI_texture_mirror_once 00433010 f   cinder:GLee.obj
 0001:00032010       ___GLeeLink_GL_SGIS_texture_border_clamp 00433010 f   cinder:GLee.obj
 0001:00032010       ___GLeeLink_GL_EXT_stencil_wrap 00433010 f   cinder:GLee.obj
 0001:00032010       ___GLeeLink_GL_SGIX_impact_pixel_texture 00433010 f   cinder:GLee.obj
 0001:00032010       ___GLeeLink_GL_ARB_texture_env_combine 00433010 f   cinder:GLee.obj
 0001:00032010       ___GLeeLink_GL_NV_vertex_array_range2 00433010 f   cinder:GLee.obj
 0001:00032010       ___GLeeLink_GL_INTEL_texture_scissor 00433010 f   cinder:GLee.obj
 0001:00032010       ___GLeeLink_GL_SGIX_texture_lod_bias 00433010 f   cinder:GLee.obj
 0001:00032010       ___GLeeLink_GL_SGIX_convolution_accuracy 00433010 f   cinder:GLee.obj
 0001:00032010       ___GLeeLink_GL_EXT_pixel_buffer_object 00433010 f   cinder:GLee.obj
 0001:00032010       ___GLeeLink_GL_NV_fragment_program2 00433010 f   cinder:GLee.obj
 0001:00032010       ___GLeeLink_GL_SGIX_ir_instrument1 00433010 f   cinder:GLee.obj
 0001:00032010       ___GLeeLink_GL_APPLE_ycbcr_422 00433010 f   cinder:GLee.obj
 0001:00032010       ___GLeeLink_GL_EXT_vertex_array_bgra 00433010 f   cinder:GLee.obj
 0001:00032010       ___GLeeLink_WGL_EXT_depth_float 00433010 f   cinder:GLee.obj
 0001:00032010       ___GLeeLink_GL_ARB_shading_language_100 00433010 f   cinder:GLee.obj
 0001:00032010       ___GLeeLink_GL_EXT_misc_attribute 00433010 f   cinder:GLee.obj
 0001:00032010       ___GLeeLink_GL_EXT_index_texture 00433010 f   cinder:GLee.obj
 0001:00032010       ___GLeeLink_GL_IBM_texture_mirrored_repeat 00433010 f   cinder:GLee.obj
 0001:00032010       ___GLeeLink_GL_EXT_shared_texture_palette 00433010 f   cinder:GLee.obj
 0001:00032010       ___GLeeLink_GL_ARB_texture_border_clamp 00433010 f   cinder:GLee.obj
 0001:00032010       ___GLeeLink_GL_ATI_text_fragment_shader 00433010 f   cinder:GLee.obj
 0001:00032010       ___GLeeLink_GL_SGIX_interlace 00433010 f   cinder:GLee.obj
 0001:00032010       ___GLeeLink_GL_NV_texgen_emboss 00433010 f   cinder:GLee.obj
 0001:00032010       ___GLeeLink_GL_IBM_cull_vertex 00433010 f   cinder:GLee.obj
 0001:00032010       ___GLeeLink_GL_NV_texture_env_combine4 00433010 f   cinder:GLee.obj
 0001:00032010       ___GLeeLink_GL_APPLE_specular_vector 00433010 f   cinder:GLee.obj
 0001:00032010       ___GLeeLink_GL_SGIX_texture_coordinate_clamp 00433010 f   cinder:GLee.obj
 0001:00032010       ___GLeeLink_GL_EXT_texture_compression_s3tc 00433010 f   cinder:GLee.obj
 0001:00032010       ___GLeeLink_GL_NV_texture_expand_normal 00433010 f   cinder:GLee.obj
 0001:00032010       ___GLeeLink_GL_MESA_ycbcr_texture 00433010 f   cinder:GLee.obj
 0001:00032010       ___GLeeLink_GL_SGIX_texture_scale_bias 00433010 f   cinder:GLee.obj
 0001:00032010       ___GLeeLink_GL_SGIX_depth_texture 00433010 f   cinder:GLee.obj
 0001:00032010       ___GLeeLink_GL_S3_s3tc     00433010 f   cinder:GLee.obj
 0001:00032010       ___GLeeLink_GL_SGI_texture_color_table 00433010 f   cinder:GLee.obj
 0001:00032010       ___GLeeLink_GL_EXT_index_array_formats 00433010 f   cinder:GLee.obj
 0001:00032010       ___GLeeLink_GL_NV_texture_shader3 00433010 f   cinder:GLee.obj
 0001:00032010       ___GLeeLink_GL_HP_texture_lighting 00433010 f   cinder:GLee.obj
 0001:00032010       ___GLeeLink_GL_NV_texture_shader2 00433010 f   cinder:GLee.obj
 0001:00032010       ___GLeeLink_WGL_EXT_pixel_format_packed_float 00433010 f   cinder:GLee.obj
 0001:00032010       ___GLeeLink_GL_NV_vertex_program3 00433010 f   cinder:GLee.obj
 0001:00032010       ___GLeeLink_GL_NV_vertex_program2 00433010 f   cinder:GLee.obj
 0001:00032010       ___GLeeLink_GL_SGI_depth_pass_instrument 00433010 f   cinder:GLee.obj
 0001:00032010       ___GLeeLink_GL_NV_vertex_program2_option 00433010 f   cinder:GLee.obj
 0001:00032010       ___GLeeLink_GL_ARB_imaging 00433010 f   cinder:GLee.obj
 0001:00032010       ___GLeeLink_GL_NV_texture_compression_vtc 00433010 f   cinder:GLee.obj
 0001:00032010       ___GLeeLink_GL_EXT_422_pixels 00433010 f   cinder:GLee.obj
 0001:00032010       ___GLeeLink_GL_EXT_texture 00433010 f   cinder:GLee.obj
 0001:00032010       ___GLeeLink_GL_NV_geometry_shader4 00433010 f   cinder:GLee.obj
 0001:00032010       ___GLeeLink_GL_SGIX_resample 00433010 f   cinder:GLee.obj
 0001:00032010       ___GLeeLink_GL_NV_copy_depth_to_color 00433010 f   cinder:GLee.obj
 0001:00032010       ___GLeeLink_GL_ARB_texture_cube_map 00433010 f   cinder:GLee.obj
 0001:00032010       ___GLeeLink_GL_OML_subsample 00433010 f   cinder:GLee.obj
 0001:00032010       ___GLeeLink_GL_ATI_pixel_format_float 00433010 f   cinder:GLee.obj
 0001:00032010       ___GLeeLink_GL_OES_compressed_paletted_texture 00433010 f   cinder:GLee.obj
 0001:00032010       ___GLeeLink_GL_ARB_fragment_program_shadow 00433010 f   cinder:GLee.obj
 0001:00032010       ___GLeeLink_GL_SGIX_texture_add_env 00433010 f   cinder:GLee.obj
 0001:00032010       ___GLeeLink_GL_SGIS_point_line_texgen 00433010 f   cinder:GLee.obj
 0001:00032010       ___GLeeLink_GL_NV_blend_square 00433010 f   cinder:GLee.obj
 0001:00032010       ___GLeeLink_GL_EXT_texture_sRGB 00433010 f   cinder:GLee.obj
 0001:00032010       ___GLeeLink_GL_SGIX_ycrcb  00433010 f   cinder:GLee.obj
 0001:00032010       ___GLeeLink_WGL_3DL_stereo_control 00433010 f   cinder:GLee.obj
 0001:00032010       ___GLeeLink_GL_SUN_slice_accum 00433010 f   cinder:GLee.obj
 0001:00032010       ___GLeeLink_GL_ARB_fragment_program 00433010 f   cinder:GLee.obj
 0001:00032010       ___GLeeLink_GL_NV_texture_rectangle 00433010 f   cinder:GLee.obj
 0001:00032010       ___GLeeLink_GL_EXT_separate_specular_color 00433010 f   cinder:GLee.obj
 0001:00032010       ___GLeeLink_WGL_ATI_pixel_format_float 00433010 f   cinder:GLee.obj
 0001:00032010       ___GLeeLink_GL_OML_resample 00433010 f   cinder:GLee.obj
 0001:00032010       ___GLeeLink_GL_PGI_vertex_hints 00433010 f   cinder:GLee.obj
 0001:00032010       ___GLeeLink_GL_INGR_color_clamp 00433010 f   cinder:GLee.obj
 0001:00032010       ___GLeeLink_GL_3DFX_texture_compression_FXT1 00433010 f   cinder:GLee.obj
 0001:00032010       ___GLeeLink_GL_ATI_texture_float 00433010 f   cinder:GLee.obj
 0001:00032010       ___GLeeLink_GL_EXT_texture_filter_anisotropic 00433010 f   cinder:GLee.obj
 0001:00032010       ___GLeeLink_GL_ARB_texture_float 00433010 f   cinder:GLee.obj
 0001:00032010       ___GLeeLink_GL_NV_float_buffer 00433010 f   cinder:GLee.obj
 0001:00032010       ___GLeeLink_GL_EXT_clip_volume_hint 00433010 f   cinder:GLee.obj
 0001:00032010       ___GLeeLink_GL_SGIX_ycrcb_subsample 00433010 f   cinder:GLee.obj
 0001:00032010       ___GLeeLink_GL_EXT_framebuffer_sRGB 00433010 f   cinder:GLee.obj
 0001:00032010       ___GLeeLink_GL_ARB_half_float_vertex 00433010 f   cinder:GLee.obj
 0001:00032010       ___GLeeLink_GL_MESAX_texture_stack 00433010 f   cinder:GLee.obj
 0001:00032010       ___GLeeLink_GL_INGR_palette_buffer 00433010 f   cinder:GLee.obj
 0001:00032010       ___GLeeLink_GL_SGIX_shadow 00433010 f   cinder:GLee.obj
 0001:00032010       ___GLeeLink_WGL_NV_float_buffer 00433010 f   cinder:GLee.obj
 0001:00032010       ___GLeeLink_GL_ARB_shadow  00433010 f   cinder:GLee.obj
 0001:00032010       ___GLeeLink_GL_APPLE_client_storage 00433010 f   cinder:GLee.obj
 0001:00032010       ___GLeeLink_GL_SGIX_blend_alpha_minmax 00433010 f   cinder:GLee.obj
 0001:00032010       ___GLeeLink_GL_ARB_texture_env_dot3 00433010 f   cinder:GLee.obj
 0001:00032010       ___GLeeLink_GL_SGIX_subsample 00433010 f   cinder:GLee.obj
 0001:00032010       ___GLeeLink_GL_SGIX_pixel_texture_bits 00433010 f   cinder:GLee.obj
 0001:00032010       ___GLeeLink_GL_ATI_texture_env_combine3 00433010 f   cinder:GLee.obj
 0001:00032010       ___GLeeLink_GL_SGIX_fog_offset 00433010 f   cinder:GLee.obj
 0001:00032010       ___GLeeLink_GL_NV_present_video 00433010 f   cinder:GLee.obj
 0001:00032010       ___GLeeLink_GL_ARB_half_float_pixel 00433010 f   cinder:GLee.obj
 0001:00032010       ___GLeeLink_GL_NV_depth_clamp 00433010 f   cinder:GLee.obj
 0001:00032010       ___GLeeLink_WGL_ARB_pixel_format_float 00433010 f   cinder:GLee.obj
 0001:00032010       ___GLeeLink_GL_FfdMaskSGIX 00433010 f   cinder:GLee.obj
 0001:00032010       ___GLeeLink_GL_SGIX_async_histogram 00433010 f   cinder:GLee.obj
 0001:00032010       ___GLeeLink_GL_SUN_convolution_border_modes 00433010 f   cinder:GLee.obj
 0001:00032010       ___GLeeLink_GL_EXT_packed_float 00433010 f   cinder:GLee.obj
 0001:00032010       ___GLeeLink_GL_EXT_texture_array 00433010 f   cinder:GLee.obj
 0001:00032010       ___GLeeLink_GL_EXT_packed_pixels 00433010 f   cinder:GLee.obj
 0001:00032020       ___GLeeLink_GL_EXT_framebuffer_object 00433020 f   cinder:GLee.obj
 0001:000322b0       ___GLeeLink_GL_GREMEDY_string_marker 004332b0 f   cinder:GLee.obj
 0001:00032300       ___GLeeLink_GL_EXT_stencil_clear_tag 00433300 f   cinder:GLee.obj
 0001:00032350       ___GLeeLink_GL_EXT_framebuffer_blit 00433350 f   cinder:GLee.obj
 0001:000323a0       ___GLeeLink_GL_EXT_framebuffer_multisample 004333a0 f   cinder:GLee.obj
 0001:000323f0       ___GLeeLink_GL_EXT_timer_query 004333f0 f   cinder:GLee.obj
 0001:00032470       ___GLeeLink_GL_EXT_gpu_program_parameters 00433470 f   cinder:GLee.obj
 0001:000324f0       ___GLeeLink_GL_APPLE_flush_buffer_range 004334f0 f   cinder:GLee.obj
 0001:00032570       ___GLeeLink_GL_EXT_gpu_shader4 00433570 f   cinder:GLee.obj
 0001:00032730       ___GLeeLink_GL_EXT_draw_instanced 00433730 f   cinder:GLee.obj
 0001:000327b0       ___GLeeLink_GL_EXT_texture_buffer_object 004337b0 f   cinder:GLee.obj
 0001:00032800       ___GLeeLink_GL_NV_depth_buffer_float 00433800 f   cinder:GLee.obj
 0001:000328a0       ___GLeeLink_GL_NV_framebuffer_multisample_coverage 004338a0 f   cinder:GLee.obj
 0001:000328f0       ___GLeeLink_GL_NV_parameter_buffer_object 004338f0 f   cinder:GLee.obj
 0001:00032990       ___GLeeLink_GL_EXT_draw_buffers2 00433990 f   cinder:GLee.obj
 0001:00032aa0       ___GLeeLink_GL_NV_transform_feedback 00433aa0 f   cinder:GLee.obj
 0001:00032c60       ___GLeeLink_GL_EXT_bindable_uniform 00433c60 f   cinder:GLee.obj
 0001:00032d00       ___GLeeLink_GL_EXT_texture_integer 00433d00 f   cinder:GLee.obj
 0001:00032e10       ___GLeeLink_GL_GREMEDY_frame_terminator 00433e10 f   cinder:GLee.obj
 0001:00032e60       ___GLeeLink_GL_NV_conditional_render 00433e60 f   cinder:GLee.obj
 0001:00032ee0       ___GLeeLink_GL_EXT_transform_feedback 00433ee0 f   cinder:GLee.obj
 0001:00033010       ___GLeeLink_GL_EXT_direct_state_access 00434010 f   cinder:GLee.obj
 0001:00034a70       ___GLeeLink_GL_NV_explicit_multisample 00435a70 f   cinder:GLee.obj
 0001:00034b10       ___GLeeLink_GL_NV_transform_feedback2 00435b10 f   cinder:GLee.obj
 0001:00034c40       ___GLeeLink_GL_INGR_blend_func_separate 00435c40 f   cinder:GLee.obj
 0001:00034c90       ___GLeeLink_GL_SGIX_igloo_interface 00435c90 f   cinder:GLee.obj
 0001:00034ce0       ___GLeeLink_GL_EXT_fragment_lighting 00435ce0 f   cinder:GLee.obj
 0001:00034fa0       ___GLeeLink_GL_EXT_geometry_shader4 00435fa0 f   cinder:GLee.obj
 0001:00035060       ___GLeeLink_GL_EXT_scene_marker 00436060 f   cinder:GLee.obj
 0001:000350e0       ___GLeeLink_GL_NV_gpu_program4 004360e0 f   cinder:GLee.obj
 0001:000356d0       ___GLeeLink_GL_OES_single_precision 004366d0 f   cinder:GLee.obj
 0001:000357e0       ___GLeeLink_WGL_ARB_buffer_region 004367e0 f   cinder:GLee.obj
 0001:000358a0       ___GLeeLink_WGL_ARB_extensions_string 004368a0 f   cinder:GLee.obj
 0001:000358f0       ___GLeeLink_WGL_ARB_pixel_format 004368f0 f   cinder:GLee.obj
 0001:00035990       ___GLeeLink_WGL_ARB_make_current_read 00436990 f   cinder:GLee.obj
 0001:00035a10       ___GLeeLink_WGL_ARB_pbuffer 00436a10 f   cinder:GLee.obj
 0001:00035af0       ___GLeeLink_WGL_ARB_render_texture 00436af0 f   cinder:GLee.obj
 0001:00035b90       ___GLeeLink_WGL_ARB_create_context 00436b90 f   cinder:GLee.obj
 0001:00035be0       ___GLeeLink_WGL_EXT_make_current_read 00436be0 f   cinder:GLee.obj
 0001:00035c60       ___GLeeLink_WGL_EXT_pixel_format 00436c60 f   cinder:GLee.obj
 0001:00035d00       ___GLeeLink_WGL_EXT_pbuffer 00436d00 f   cinder:GLee.obj
 0001:00035de0       ___GLeeLink_WGL_I3D_digital_video_control 00436de0 f   cinder:GLee.obj
 0001:00035e60       ___GLeeLink_WGL_I3D_gamma  00436e60 f   cinder:GLee.obj
 0001:00035f20       ___GLeeLink_WGL_I3D_genlock 00436f20 f   cinder:GLee.obj
 0001:00036100       ___GLeeLink_WGL_I3D_image_buffer 00437100 f   cinder:GLee.obj
 0001:000361c0       ___GLeeLink_WGL_I3D_swap_frame_lock 004371c0 f   cinder:GLee.obj
 0001:00036280       ___GLeeLink_WGL_NV_present_video 00437280 f   cinder:GLee.obj
 0001:00036320       ___GLeeLink_WGL_NV_swap_group 00437320 f   cinder:GLee.obj
 0001:00036430       ___GLeeLink_WGL_NV_gpu_affinity 00437430 f   cinder:GLee.obj
 0001:00036510       ___GLeeLink_WGL_EXT_display_color_table 00437510 f   cinder:GLee.obj
 0001:000365d0       ___GLeeLink_WGL_EXT_extensions_string 004375d0 f   cinder:GLee.obj
 0001:00036620       ___GLeeLink_WGL_EXT_swap_control 00437620 f   cinder:GLee.obj
 0001:000366a0       ___GLeeLink_WGL_NV_vertex_array_range 004376a0 f   cinder:GLee.obj
 0001:00036720       ___GLeeLink_WGL_OML_sync_control 00437720 f   cinder:GLee.obj
 0001:00036830       ___GLeeLink_WGL_I3D_swap_frame_usage 00437830 f   cinder:GLee.obj
 0001:000368f0       ___GLeeLink_WGL_NV_video_output 004378f0 f   cinder:GLee.obj
 0001:00036a00       ___GLeeExtList_init        00437a00 f   cinder:GLee.obj
 0001:00036a30       ___GLeeExtList_clean       00437a30 f   cinder:GLee.obj
 0001:00036ad0       ___GLeeExtList_add         00437ad0 f   cinder:GLee.obj
 0001:00036c00       ___GLeeGetExtStrPlat       00437c00 f   cinder:GLee.obj
 0001:00036c40       ___GLeeWriteError          00437c40 f   cinder:GLee.obj
 0001:00036c90       ___GLeeGetVersionNumber    00437c90 f   cinder:GLee.obj
 0001:00036cc0       ___GLeeGetExtensions       00437cc0 f   cinder:GLee.obj
 0001:00036f70       ___GLeeCheckExtension      00437f70 f   cinder:GLee.obj
 0001:00037010       _GLeeInit                  00438010 f   cinder:GLee.obj
 0001:0003a2b0       _GLee_Lazy_glBlendColor@16 0043b2b0 f   cinder:GLee.obj
 0001:0003a2f0       _GLee_Lazy_glBlendEquation@4 0043b2f0 f   cinder:GLee.obj
 0001:0003a310       _GLee_Lazy_glDrawRangeElements@24 0043b310 f   cinder:GLee.obj
 0001:0003a350       _GLee_Lazy_glColorTable@24 0043b350 f   cinder:GLee.obj
 0001:0003a390       _GLee_Lazy_glColorTableParameterfv@12 0043b390 f   cinder:GLee.obj
 0001:0003a3c0       _GLee_Lazy_glColorTableParameteriv@12 0043b3c0 f   cinder:GLee.obj
 0001:0003a3f0       _GLee_Lazy_glCopyColorTable@20 0043b3f0 f   cinder:GLee.obj
 0001:0003a420       _GLee_Lazy_glGetColorTable@16 0043b420 f   cinder:GLee.obj
 0001:0003a450       _GLee_Lazy_glGetColorTableParameterfv@12 0043b450 f   cinder:GLee.obj
 0001:0003a480       _GLee_Lazy_glGetColorTableParameteriv@12 0043b480 f   cinder:GLee.obj
 0001:0003a4b0       _GLee_Lazy_glColorSubTable@24 0043b4b0 f   cinder:GLee.obj
 0001:0003a4f0       _GLee_Lazy_glCopyColorSubTable@20 0043b4f0 f   cinder:GLee.obj
 0001:0003a520       _GLee_Lazy_glConvolutionFilter1D@24 0043b520 f   cinder:GLee.obj
 0001:0003a560       _GLee_Lazy_glConvolutionFilter2D@28 0043b560 f   cinder:GLee.obj
 0001:0003a5a0       _GLee_Lazy_glConvolutionParameterf@12 0043b5a0 f   cinder:GLee.obj
 0001:0003a5d0       _GLee_Lazy_glConvolutionParameterfv@12 0043b5d0 f   cinder:GLee.obj
 0001:0003a600       _GLee_Lazy_glConvolutionParameteri@12 0043b600 f   cinder:GLee.obj
 0001:0003a630       _GLee_Lazy_glConvolutionParameteriv@12 0043b630 f   cinder:GLee.obj
 0001:0003a660       _GLee_Lazy_glCopyConvolutionFilter1D@20 0043b660 f   cinder:GLee.obj
 0001:0003a690       _GLee_Lazy_glCopyConvolutionFilter2D@24 0043b690 f   cinder:GLee.obj
 0001:0003a6d0       _GLee_Lazy_glGetConvolutionFilter@16 0043b6d0 f   cinder:GLee.obj
 0001:0003a700       _GLee_Lazy_glGetConvolutionParameterfv@12 0043b700 f   cinder:GLee.obj
 0001:0003a730       _GLee_Lazy_glGetConvolutionParameteriv@12 0043b730 f   cinder:GLee.obj
 0001:0003a760       _GLee_Lazy_glGetSeparableFilter@24 0043b760 f   cinder:GLee.obj
 0001:0003a7a0       _GLee_Lazy_glSeparableFilter2D@32 0043b7a0 f   cinder:GLee.obj
 0001:0003a7e0       _GLee_Lazy_glGetHistogram@20 0043b7e0 f   cinder:GLee.obj
 0001:0003a810       _GLee_Lazy_glGetHistogramParameterfv@12 0043b810 f   cinder:GLee.obj
 0001:0003a840       _GLee_Lazy_glGetHistogramParameteriv@12 0043b840 f   cinder:GLee.obj
 0001:0003a870       _GLee_Lazy_glGetMinmax@20  0043b870 f   cinder:GLee.obj
 0001:0003a8a0       _GLee_Lazy_glGetMinmaxParameterfv@12 0043b8a0 f   cinder:GLee.obj
 0001:0003a8d0       _GLee_Lazy_glGetMinmaxParameteriv@12 0043b8d0 f   cinder:GLee.obj
 0001:0003a900       _GLee_Lazy_glHistogram@16  0043b900 f   cinder:GLee.obj
 0001:0003a930       _GLee_Lazy_glMinmax@12     0043b930 f   cinder:GLee.obj
 0001:0003a960       _GLee_Lazy_glResetHistogram@4 0043b960 f   cinder:GLee.obj
 0001:0003a980       _GLee_Lazy_glResetMinmax@4 0043b980 f   cinder:GLee.obj
 0001:0003a9a0       _GLee_Lazy_glTexImage3D@40 0043b9a0 f   cinder:GLee.obj
 0001:0003a9f0       _GLee_Lazy_glTexSubImage3D@44 0043b9f0 f   cinder:GLee.obj
 0001:0003aa40       _GLee_Lazy_glCopyTexSubImage3D@36 0043ba40 f   cinder:GLee.obj
 0001:0003aa80       _GLee_Lazy_glActiveTexture@4 0043ba80 f   cinder:GLee.obj
 0001:0003aaa0       _GLee_Lazy_glClientActiveTexture@4 0043baa0 f   cinder:GLee.obj
 0001:0003aac0       _GLee_Lazy_glMultiTexCoord1d@12 0043bac0 f   cinder:GLee.obj
 0001:0003aaf0       _GLee_Lazy_glMultiTexCoord1dv@8 0043baf0 f   cinder:GLee.obj
 0001:0003ab20       _GLee_Lazy_glMultiTexCoord1f@8 0043bb20 f   cinder:GLee.obj
 0001:0003ab50       _GLee_Lazy_glMultiTexCoord1fv@8 0043bb50 f   cinder:GLee.obj
 0001:0003ab80       _GLee_Lazy_glMultiTexCoord1i@8 0043bb80 f   cinder:GLee.obj
 0001:0003abb0       _GLee_Lazy_glMultiTexCoord1iv@8 0043bbb0 f   cinder:GLee.obj
 0001:0003abe0       _GLee_Lazy_glMultiTexCoord1s@8 0043bbe0 f   cinder:GLee.obj
 0001:0003ac10       _GLee_Lazy_glMultiTexCoord1sv@8 0043bc10 f   cinder:GLee.obj
 0001:0003ac40       _GLee_Lazy_glMultiTexCoord2d@20 0043bc40 f   cinder:GLee.obj
 0001:0003ac70       _GLee_Lazy_glMultiTexCoord2dv@8 0043bc70 f   cinder:GLee.obj
 0001:0003aca0       _GLee_Lazy_glMultiTexCoord2f@12 0043bca0 f   cinder:GLee.obj
 0001:0003acd0       _GLee_Lazy_glMultiTexCoord2fv@8 0043bcd0 f   cinder:GLee.obj
 0001:0003ad00       _GLee_Lazy_glMultiTexCoord2i@12 0043bd00 f   cinder:GLee.obj
 0001:0003ad30       _GLee_Lazy_glMultiTexCoord2iv@8 0043bd30 f   cinder:GLee.obj
 0001:0003ad60       _GLee_Lazy_glMultiTexCoord2s@12 0043bd60 f   cinder:GLee.obj
 0001:0003ad90       _GLee_Lazy_glMultiTexCoord2sv@8 0043bd90 f   cinder:GLee.obj
 0001:0003adc0       _GLee_Lazy_glMultiTexCoord3d@28 0043bdc0 f   cinder:GLee.obj
 0001:0003ae00       _GLee_Lazy_glMultiTexCoord3dv@8 0043be00 f   cinder:GLee.obj
 0001:0003ae30       _GLee_Lazy_glMultiTexCoord3f@16 0043be30 f   cinder:GLee.obj
 0001:0003ae70       _GLee_Lazy_glMultiTexCoord3fv@8 0043be70 f   cinder:GLee.obj
 0001:0003aea0       _GLee_Lazy_glMultiTexCoord3i@16 0043bea0 f   cinder:GLee.obj
 0001:0003aed0       _GLee_Lazy_glMultiTexCoord3iv@8 0043bed0 f   cinder:GLee.obj
 0001:0003af00       _GLee_Lazy_glMultiTexCoord3s@16 0043bf00 f   cinder:GLee.obj
 0001:0003af30       _GLee_Lazy_glMultiTexCoord3sv@8 0043bf30 f   cinder:GLee.obj
 0001:0003af60       _GLee_Lazy_glMultiTexCoord4d@36 0043bf60 f   cinder:GLee.obj
 0001:0003afb0       _GLee_Lazy_glMultiTexCoord4dv@8 0043bfb0 f   cinder:GLee.obj
 0001:0003afe0       _GLee_Lazy_glMultiTexCoord4f@20 0043bfe0 f   cinder:GLee.obj
 0001:0003b020       _GLee_Lazy_glMultiTexCoord4fv@8 0043c020 f   cinder:GLee.obj
 0001:0003b050       _GLee_Lazy_glMultiTexCoord4i@20 0043c050 f   cinder:GLee.obj
 0001:0003b080       _GLee_Lazy_glMultiTexCoord4iv@8 0043c080 f   cinder:GLee.obj
 0001:0003b0b0       _GLee_Lazy_glMultiTexCoord4s@20 0043c0b0 f   cinder:GLee.obj
 0001:0003b0f0       _GLee_Lazy_glMultiTexCoord4sv@8 0043c0f0 f   cinder:GLee.obj
 0001:0003b120       _GLee_Lazy_glLoadTransposeMatrixf@4 0043c120 f   cinder:GLee.obj
 0001:0003b140       _GLee_Lazy_glLoadTransposeMatrixd@4 0043c140 f   cinder:GLee.obj
 0001:0003b160       _GLee_Lazy_glMultTransposeMatrixf@4 0043c160 f   cinder:GLee.obj
 0001:0003b180       _GLee_Lazy_glMultTransposeMatrixd@4 0043c180 f   cinder:GLee.obj
 0001:0003b1a0       _GLee_Lazy_glSampleCoverage@8 0043c1a0 f   cinder:GLee.obj
 0001:0003b1d0       _GLee_Lazy_glCompressedTexImage3D@36 0043c1d0 f   cinder:GLee.obj
 0001:0003b210       _GLee_Lazy_glCompressedTexImage2D@32 0043c210 f   cinder:GLee.obj
 0001:0003b250       _GLee_Lazy_glCompressedTexImage1D@28 0043c250 f   cinder:GLee.obj
 0001:0003b290       _GLee_Lazy_glCompressedTexSubImage3D@44 0043c290 f   cinder:GLee.obj
 0001:0003b2e0       _GLee_Lazy_glCompressedTexSubImage2D@36 0043c2e0 f   cinder:GLee.obj
 0001:0003b320       _GLee_Lazy_glCompressedTexSubImage1D@28 0043c320 f   cinder:GLee.obj
 0001:0003b360       _GLee_Lazy_glGetCompressedTexImage@12 0043c360 f   cinder:GLee.obj
 0001:0003b390       _GLee_Lazy_glBlendFuncSeparate@16 0043c390 f   cinder:GLee.obj
 0001:0003b3c0       _GLee_Lazy_glFogCoordf@4   0043c3c0 f   cinder:GLee.obj
 0001:0003b3e0       _GLee_Lazy_glFogCoordfv@4  0043c3e0 f   cinder:GLee.obj
 0001:0003b400       _GLee_Lazy_glFogCoordd@8   0043c400 f   cinder:GLee.obj
 0001:0003b430       _GLee_Lazy_glFogCoorddv@4  0043c430 f   cinder:GLee.obj
 0001:0003b450       _GLee_Lazy_glFogCoordPointer@12 0043c450 f   cinder:GLee.obj
 0001:0003b480       _GLee_Lazy_glMultiDrawArrays@16 0043c480 f   cinder:GLee.obj
 0001:0003b4b0       _GLee_Lazy_glMultiDrawElements@20 0043c4b0 f   cinder:GLee.obj
 0001:0003b4e0       _GLee_Lazy_glPointParameterf@8 0043c4e0 f   cinder:GLee.obj
 0001:0003b510       _GLee_Lazy_glPointParameterfv@8 0043c510 f   cinder:GLee.obj
 0001:0003b540       _GLee_Lazy_glPointParameteri@8 0043c540 f   cinder:GLee.obj
 0001:0003b570       _GLee_Lazy_glPointParameteriv@8 0043c570 f   cinder:GLee.obj
 0001:0003b5a0       _GLee_Lazy_glSecondaryColor3b@12 0043c5a0 f   cinder:GLee.obj
 0001:0003b5d0       _GLee_Lazy_glSecondaryColor3bv@4 0043c5d0 f   cinder:GLee.obj
 0001:0003b5f0       _GLee_Lazy_glSecondaryColor3d@24 0043c5f0 f   cinder:GLee.obj
 0001:0003b630       _GLee_Lazy_glSecondaryColor3dv@4 0043c630 f   cinder:GLee.obj
 0001:0003b650       _GLee_Lazy_glSecondaryColor3f@12 0043c650 f   cinder:GLee.obj
 0001:0003b680       _GLee_Lazy_glSecondaryColor3fv@4 0043c680 f   cinder:GLee.obj
 0001:0003b6a0       _GLee_Lazy_glSecondaryColor3i@12 0043c6a0 f   cinder:GLee.obj
 0001:0003b6d0       _GLee_Lazy_glSecondaryColor3iv@4 0043c6d0 f   cinder:GLee.obj
 0001:0003b6f0       _GLee_Lazy_glSecondaryColor3s@12 0043c6f0 f   cinder:GLee.obj
 0001:0003b720       _GLee_Lazy_glSecondaryColor3sv@4 0043c720 f   cinder:GLee.obj
 0001:0003b740       _GLee_Lazy_glSecondaryColor3ub@12 0043c740 f   cinder:GLee.obj
 0001:0003b770       _GLee_Lazy_glSecondaryColor3ubv@4 0043c770 f   cinder:GLee.obj
 0001:0003b790       _GLee_Lazy_glSecondaryColor3ui@12 0043c790 f   cinder:GLee.obj
 0001:0003b7c0       _GLee_Lazy_glSecondaryColor3uiv@4 0043c7c0 f   cinder:GLee.obj
 0001:0003b7e0       _GLee_Lazy_glSecondaryColor3us@12 0043c7e0 f   cinder:GLee.obj
 0001:0003b810       _GLee_Lazy_glSecondaryColor3usv@4 0043c810 f   cinder:GLee.obj
 0001:0003b830       _GLee_Lazy_glSecondaryColorPointer@16 0043c830 f   cinder:GLee.obj
 0001:0003b860       _GLee_Lazy_glWindowPos2d@16 0043c860 f   cinder:GLee.obj
 0001:0003b890       _GLee_Lazy_glWindowPos2dv@4 0043c890 f   cinder:GLee.obj
 0001:0003b8b0       _GLee_Lazy_glWindowPos2f@8 0043c8b0 f   cinder:GLee.obj
 0001:0003b8e0       _GLee_Lazy_glWindowPos2fv@4 0043c8e0 f   cinder:GLee.obj
 0001:0003b900       _GLee_Lazy_glWindowPos2i@8 0043c900 f   cinder:GLee.obj
 0001:0003b930       _GLee_Lazy_glWindowPos2iv@4 0043c930 f   cinder:GLee.obj
 0001:0003b950       _GLee_Lazy_glWindowPos2s@8 0043c950 f   cinder:GLee.obj
 0001:0003b980       _GLee_Lazy_glWindowPos2sv@4 0043c980 f   cinder:GLee.obj
 0001:0003b9a0       _GLee_Lazy_glWindowPos3d@24 0043c9a0 f   cinder:GLee.obj
 0001:0003b9e0       _GLee_Lazy_glWindowPos3dv@4 0043c9e0 f   cinder:GLee.obj
 0001:0003ba00       _GLee_Lazy_glWindowPos3f@12 0043ca00 f   cinder:GLee.obj
 0001:0003ba30       _GLee_Lazy_glWindowPos3fv@4 0043ca30 f   cinder:GLee.obj
 0001:0003ba50       _GLee_Lazy_glWindowPos3i@12 0043ca50 f   cinder:GLee.obj
 0001:0003ba80       _GLee_Lazy_glWindowPos3iv@4 0043ca80 f   cinder:GLee.obj
 0001:0003baa0       _GLee_Lazy_glWindowPos3s@12 0043caa0 f   cinder:GLee.obj
 0001:0003bad0       _GLee_Lazy_glWindowPos3sv@4 0043cad0 f   cinder:GLee.obj
 0001:0003baf0       _GLee_Lazy_glGenQueries@8  0043caf0 f   cinder:GLee.obj
 0001:0003bb20       _GLee_Lazy_glDeleteQueries@8 0043cb20 f   cinder:GLee.obj
 0001:0003bb50       _GLee_Lazy_glIsQuery@4     0043cb50 f   cinder:GLee.obj
 0001:0003bb80       _GLee_Lazy_glBeginQuery@8  0043cb80 f   cinder:GLee.obj
 0001:0003bbb0       _GLee_Lazy_glEndQuery@4    0043cbb0 f   cinder:GLee.obj
 0001:0003bbd0       _GLee_Lazy_glGetQueryiv@12 0043cbd0 f   cinder:GLee.obj
 0001:0003bc00       _GLee_Lazy_glGetQueryObjectiv@12 0043cc00 f   cinder:GLee.obj
 0001:0003bc30       _GLee_Lazy_glGetQueryObjectuiv@12 0043cc30 f   cinder:GLee.obj
 0001:0003bc60       _GLee_Lazy_glBindBuffer@8  0043cc60 f   cinder:GLee.obj
 0001:0003bc90       _GLee_Lazy_glDeleteBuffers@8 0043cc90 f   cinder:GLee.obj
 0001:0003bcc0       _GLee_Lazy_glGenBuffers@8  0043ccc0 f   cinder:GLee.obj
 0001:0003bcf0       _GLee_Lazy_glIsBuffer@4    0043ccf0 f   cinder:GLee.obj
 0001:0003bd20       _GLee_Lazy_glBufferData@16 0043cd20 f   cinder:GLee.obj
 0001:0003bd50       _GLee_Lazy_glBufferSubData@16 0043cd50 f   cinder:GLee.obj
 0001:0003bd80       _GLee_Lazy_glGetBufferSubData@16 0043cd80 f   cinder:GLee.obj
 0001:0003bdb0       _GLee_Lazy_glMapBuffer@8   0043cdb0 f   cinder:GLee.obj
 0001:0003bde0       _GLee_Lazy_glUnmapBuffer@4 0043cde0 f   cinder:GLee.obj
 0001:0003be10       _GLee_Lazy_glGetBufferParameteriv@12 0043ce10 f   cinder:GLee.obj
 0001:0003be40       _GLee_Lazy_glGetBufferPointerv@12 0043ce40 f   cinder:GLee.obj
 0001:0003be70       _GLee_Lazy_glBlendEquationSeparate@8 0043ce70 f   cinder:GLee.obj
 0001:0003bea0       _GLee_Lazy_glDrawBuffers@8 0043cea0 f   cinder:GLee.obj
 0001:0003bed0       _GLee_Lazy_glStencilOpSeparate@16 0043ced0 f   cinder:GLee.obj
 0001:0003bf00       _GLee_Lazy_glStencilFuncSeparate@16 0043cf00 f   cinder:GLee.obj
 0001:0003bf30       _GLee_Lazy_glStencilMaskSeparate@8 0043cf30 f   cinder:GLee.obj
 0001:0003bf60       _GLee_Lazy_glAttachShader@8 0043cf60 f   cinder:GLee.obj
 0001:0003bf90       _GLee_Lazy_glBindAttribLocation@12 0043cf90 f   cinder:GLee.obj
 0001:0003bfc0       _GLee_Lazy_glCompileShader@4 0043cfc0 f   cinder:GLee.obj
 0001:0003bfe0       _GLee_Lazy_glCreateProgram@0 0043cfe0 f   cinder:GLee.obj
 0001:0003c000       _GLee_Lazy_glCreateShader@4 0043d000 f   cinder:GLee.obj
 0001:0003c030       _GLee_Lazy_glDeleteProgram@4 0043d030 f   cinder:GLee.obj
 0001:0003c050       _GLee_Lazy_glDeleteShader@4 0043d050 f   cinder:GLee.obj
 0001:0003c070       _GLee_Lazy_glDetachShader@8 0043d070 f   cinder:GLee.obj
 0001:0003c0a0       _GLee_Lazy_glDisableVertexAttribArray@4 0043d0a0 f   cinder:GLee.obj
 0001:0003c0c0       _GLee_Lazy_glEnableVertexAttribArray@4 0043d0c0 f   cinder:GLee.obj
 0001:0003c0e0       _GLee_Lazy_glGetActiveAttrib@28 0043d0e0 f   cinder:GLee.obj
 0001:0003c120       _GLee_Lazy_glGetActiveUniform@28 0043d120 f   cinder:GLee.obj
 0001:0003c160       _GLee_Lazy_glGetAttachedShaders@16 0043d160 f   cinder:GLee.obj
 0001:0003c190       _GLee_Lazy_glGetAttribLocation@8 0043d190 f   cinder:GLee.obj
 0001:0003c1c0       _GLee_Lazy_glGetProgramiv@12 0043d1c0 f   cinder:GLee.obj
 0001:0003c1f0       _GLee_Lazy_glGetProgramInfoLog@16 0043d1f0 f   cinder:GLee.obj
 0001:0003c220       _GLee_Lazy_glGetShaderiv@12 0043d220 f   cinder:GLee.obj
 0001:0003c250       _GLee_Lazy_glGetShaderInfoLog@16 0043d250 f   cinder:GLee.obj
 0001:0003c280       _GLee_Lazy_glGetShaderSource@16 0043d280 f   cinder:GLee.obj
 0001:0003c2b0       _GLee_Lazy_glGetUniformLocation@8 0043d2b0 f   cinder:GLee.obj
 0001:0003c2e0       _GLee_Lazy_glGetUniformfv@12 0043d2e0 f   cinder:GLee.obj
 0001:0003c310       _GLee_Lazy_glGetUniformiv@12 0043d310 f   cinder:GLee.obj
 0001:0003c340       _GLee_Lazy_glGetVertexAttribdv@12 0043d340 f   cinder:GLee.obj
 0001:0003c370       _GLee_Lazy_glGetVertexAttribfv@12 0043d370 f   cinder:GLee.obj
 0001:0003c3a0       _GLee_Lazy_glGetVertexAttribiv@12 0043d3a0 f   cinder:GLee.obj
 0001:0003c3d0       _GLee_Lazy_glGetVertexAttribPointerv@12 0043d3d0 f   cinder:GLee.obj
 0001:0003c400       _GLee_Lazy_glIsProgram@4   0043d400 f   cinder:GLee.obj
 0001:0003c430       _GLee_Lazy_glIsShader@4    0043d430 f   cinder:GLee.obj
 0001:0003c460       _GLee_Lazy_glLinkProgram@4 0043d460 f   cinder:GLee.obj
 0001:0003c480       _GLee_Lazy_glShaderSource@16 0043d480 f   cinder:GLee.obj
 0001:0003c4b0       _GLee_Lazy_glUseProgram@4  0043d4b0 f   cinder:GLee.obj
 0001:0003c4d0       _GLee_Lazy_glUniform1f@8   0043d4d0 f   cinder:GLee.obj
 0001:0003c500       _GLee_Lazy_glUniform2f@12  0043d500 f   cinder:GLee.obj
 0001:0003c530       _GLee_Lazy_glUniform3f@16  0043d530 f   cinder:GLee.obj
 0001:0003c570       _GLee_Lazy_glUniform4f@20  0043d570 f   cinder:GLee.obj
 0001:0003c5b0       _GLee_Lazy_glUniform1i@8   0043d5b0 f   cinder:GLee.obj
 0001:0003c5e0       _GLee_Lazy_glUniform2i@12  0043d5e0 f   cinder:GLee.obj
 0001:0003c610       _GLee_Lazy_glUniform3i@16  0043d610 f   cinder:GLee.obj
 0001:0003c640       _GLee_Lazy_glUniform4i@20  0043d640 f   cinder:GLee.obj
 0001:0003c670       _GLee_Lazy_glUniform1fv@12 0043d670 f   cinder:GLee.obj
 0001:0003c6a0       _GLee_Lazy_glUniform2fv@12 0043d6a0 f   cinder:GLee.obj
 0001:0003c6d0       _GLee_Lazy_glUniform3fv@12 0043d6d0 f   cinder:GLee.obj
 0001:0003c700       _GLee_Lazy_glUniform4fv@12 0043d700 f   cinder:GLee.obj
 0001:0003c730       _GLee_Lazy_glUniform1iv@12 0043d730 f   cinder:GLee.obj
 0001:0003c760       _GLee_Lazy_glUniform2iv@12 0043d760 f   cinder:GLee.obj
 0001:0003c790       _GLee_Lazy_glUniform3iv@12 0043d790 f   cinder:GLee.obj
 0001:0003c7c0       _GLee_Lazy_glUniform4iv@12 0043d7c0 f   cinder:GLee.obj
 0001:0003c7f0       _GLee_Lazy_glUniformMatrix2fv@16 0043d7f0 f   cinder:GLee.obj
 0001:0003c820       _GLee_Lazy_glUniformMatrix3fv@16 0043d820 f   cinder:GLee.obj
 0001:0003c850       _GLee_Lazy_glUniformMatrix4fv@16 0043d850 f   cinder:GLee.obj
 0001:0003c880       _GLee_Lazy_glValidateProgram@4 0043d880 f   cinder:GLee.obj
 0001:0003c8a0       _GLee_Lazy_glVertexAttrib1d@12 0043d8a0 f   cinder:GLee.obj
 0001:0003c8d0       _GLee_Lazy_glVertexAttrib1dv@8 0043d8d0 f   cinder:GLee.obj
 0001:0003c900       _GLee_Lazy_glVertexAttrib1f@8 0043d900 f   cinder:GLee.obj
 0001:0003c930       _GLee_Lazy_glVertexAttrib1fv@8 0043d930 f   cinder:GLee.obj
 0001:0003c960       _GLee_Lazy_glVertexAttrib1s@8 0043d960 f   cinder:GLee.obj
 0001:0003c990       _GLee_Lazy_glVertexAttrib1sv@8 0043d990 f   cinder:GLee.obj
 0001:0003c9c0       _GLee_Lazy_glVertexAttrib2d@20 0043d9c0 f   cinder:GLee.obj
 0001:0003c9f0       _GLee_Lazy_glVertexAttrib2dv@8 0043d9f0 f   cinder:GLee.obj
 0001:0003ca20       _GLee_Lazy_glVertexAttrib2f@12 0043da20 f   cinder:GLee.obj
 0001:0003ca50       _GLee_Lazy_glVertexAttrib2fv@8 0043da50 f   cinder:GLee.obj
 0001:0003ca80       _GLee_Lazy_glVertexAttrib2s@12 0043da80 f   cinder:GLee.obj
 0001:0003cab0       _GLee_Lazy_glVertexAttrib2sv@8 0043dab0 f   cinder:GLee.obj
 0001:0003cae0       _GLee_Lazy_glVertexAttrib3d@28 0043dae0 f   cinder:GLee.obj
 0001:0003cb20       _GLee_Lazy_glVertexAttrib3dv@8 0043db20 f   cinder:GLee.obj
 0001:0003cb50       _GLee_Lazy_glVertexAttrib3f@16 0043db50 f   cinder:GLee.obj
 0001:0003cb90       _GLee_Lazy_glVertexAttrib3fv@8 0043db90 f   cinder:GLee.obj
 0001:0003cbc0       _GLee_Lazy_glVertexAttrib3s@16 0043dbc0 f   cinder:GLee.obj
 0001:0003cbf0       _GLee_Lazy_glVertexAttrib3sv@8 0043dbf0 f   cinder:GLee.obj
 0001:0003cc20       _GLee_Lazy_glVertexAttrib4Nbv@8 0043dc20 f   cinder:GLee.obj
 0001:0003cc50       _GLee_Lazy_glVertexAttrib4Niv@8 0043dc50 f   cinder:GLee.obj
 0001:0003cc80       _GLee_Lazy_glVertexAttrib4Nsv@8 0043dc80 f   cinder:GLee.obj
 0001:0003ccb0       _GLee_Lazy_glVertexAttrib4Nub@20 0043dcb0 f   cinder:GLee.obj
 0001:0003ccf0       _GLee_Lazy_glVertexAttrib4Nubv@8 0043dcf0 f   cinder:GLee.obj
 0001:0003cd20       _GLee_Lazy_glVertexAttrib4Nuiv@8 0043dd20 f   cinder:GLee.obj
 0001:0003cd50       _GLee_Lazy_glVertexAttrib4Nusv@8 0043dd50 f   cinder:GLee.obj
 0001:0003cd80       _GLee_Lazy_glVertexAttrib4bv@8 0043dd80 f   cinder:GLee.obj
 0001:0003cdb0       _GLee_Lazy_glVertexAttrib4d@36 0043ddb0 f   cinder:GLee.obj
 0001:0003ce00       _GLee_Lazy_glVertexAttrib4dv@8 0043de00 f   cinder:GLee.obj
 0001:0003ce30       _GLee_Lazy_glVertexAttrib4f@20 0043de30 f   cinder:GLee.obj
 0001:0003ce70       _GLee_Lazy_glVertexAttrib4fv@8 0043de70 f   cinder:GLee.obj
 0001:0003cea0       _GLee_Lazy_glVertexAttrib4iv@8 0043dea0 f   cinder:GLee.obj
 0001:0003ced0       _GLee_Lazy_glVertexAttrib4s@20 0043ded0 f   cinder:GLee.obj
 0001:0003cf10       _GLee_Lazy_glVertexAttrib4sv@8 0043df10 f   cinder:GLee.obj
 0001:0003cf40       _GLee_Lazy_glVertexAttrib4ubv@8 0043df40 f   cinder:GLee.obj
 0001:0003cf70       _GLee_Lazy_glVertexAttrib4uiv@8 0043df70 f   cinder:GLee.obj
 0001:0003cfa0       _GLee_Lazy_glVertexAttrib4usv@8 0043dfa0 f   cinder:GLee.obj
 0001:0003cfd0       _GLee_Lazy_glVertexAttribPointer@24 0043dfd0 f   cinder:GLee.obj
 0001:0003d010       _GLee_Lazy_glUniformMatrix2x3fv@16 0043e010 f   cinder:GLee.obj
 0001:0003d040       _GLee_Lazy_glUniformMatrix3x2fv@16 0043e040 f   cinder:GLee.obj
 0001:0003d070       _GLee_Lazy_glUniformMatrix2x4fv@16 0043e070 f   cinder:GLee.obj
 0001:0003d0a0       _GLee_Lazy_glUniformMatrix4x2fv@16 0043e0a0 f   cinder:GLee.obj
 0001:0003d0d0       _GLee_Lazy_glUniformMatrix3x4fv@16 0043e0d0 f   cinder:GLee.obj
 0001:0003d100       _GLee_Lazy_glUniformMatrix4x3fv@16 0043e100 f   cinder:GLee.obj
 0001:0003d130       _GLee_Lazy_glColorMaski@20 0043e130 f   cinder:GLee.obj
 0001:0003d170       _GLee_Lazy_glGetBooleani_v@12 0043e170 f   cinder:GLee.obj
 0001:0003d1a0       _GLee_Lazy_glGetIntegeri_v@12 0043e1a0 f   cinder:GLee.obj
 0001:0003d1d0       _GLee_Lazy_glEnablei@8     0043e1d0 f   cinder:GLee.obj
 0001:0003d200       _GLee_Lazy_glDisablei@8    0043e200 f   cinder:GLee.obj
 0001:0003d230       _GLee_Lazy_glIsEnabledi@8  0043e230 f   cinder:GLee.obj
 0001:0003d260       _GLee_Lazy_glBeginTransformFeedback@4 0043e260 f   cinder:GLee.obj
 0001:0003d280       _GLee_Lazy_glEndTransformFeedback@0 0043e280 f   cinder:GLee.obj
 0001:0003d2a0       _GLee_Lazy_glBindBufferRange@20 0043e2a0 f   cinder:GLee.obj
 0001:0003d2d0       _GLee_Lazy_glBindBufferBase@12 0043e2d0 f   cinder:GLee.obj
 0001:0003d300       _GLee_Lazy_glTransformFeedbackVaryings@16 0043e300 f   cinder:GLee.obj
 0001:0003d330       _GLee_Lazy_glGetTransformFeedbackVarying@12 0043e330 f   cinder:GLee.obj
 0001:0003d360       _GLee_Lazy_glClampColor@8  0043e360 f   cinder:GLee.obj
 0001:0003d390       _GLee_Lazy_glBeginConditionalRender@8 0043e390 f   cinder:GLee.obj
 0001:0003d3c0       _GLee_Lazy_glEndConditionalRender@0 0043e3c0 f   cinder:GLee.obj
 0001:0003d3e0       _GLee_Lazy_glVertexAttribI1i@8 0043e3e0 f   cinder:GLee.obj
 0001:0003d410       _GLee_Lazy_glVertexAttribI2i@12 0043e410 f   cinder:GLee.obj
 0001:0003d440       _GLee_Lazy_glVertexAttribI3i@16 0043e440 f   cinder:GLee.obj
 0001:0003d470       _GLee_Lazy_glVertexAttribI4i@20 0043e470 f   cinder:GLee.obj
 0001:0003d4a0       _GLee_Lazy_glVertexAttribI1ui@8 0043e4a0 f   cinder:GLee.obj
 0001:0003d4d0       _GLee_Lazy_glVertexAttribI2ui@12 0043e4d0 f   cinder:GLee.obj
 0001:0003d500       _GLee_Lazy_glVertexAttribI3ui@16 0043e500 f   cinder:GLee.obj
 0001:0003d530       _GLee_Lazy_glVertexAttribI4ui@20 0043e530 f   cinder:GLee.obj
 0001:0003d560       _GLee_Lazy_glVertexAttribI1iv@8 0043e560 f   cinder:GLee.obj
 0001:0003d590       _GLee_Lazy_glVertexAttribI2iv@8 0043e590 f   cinder:GLee.obj
 0001:0003d5c0       _GLee_Lazy_glVertexAttribI3iv@8 0043e5c0 f   cinder:GLee.obj
 0001:0003d5f0       _GLee_Lazy_glVertexAttribI4iv@8 0043e5f0 f   cinder:GLee.obj
 0001:0003d620       _GLee_Lazy_glVertexAttribI1uiv@8 0043e620 f   cinder:GLee.obj
 0001:0003d650       _GLee_Lazy_glVertexAttribI2uiv@8 0043e650 f   cinder:GLee.obj
 0001:0003d680       _GLee_Lazy_glVertexAttribI3uiv@8 0043e680 f   cinder:GLee.obj
 0001:0003d6b0       _GLee_Lazy_glVertexAttribI4uiv@8 0043e6b0 f   cinder:GLee.obj
 0001:0003d6e0       _GLee_Lazy_glVertexAttribI4bv@8 0043e6e0 f   cinder:GLee.obj
 0001:0003d710       _GLee_Lazy_glVertexAttribI4sv@8 0043e710 f   cinder:GLee.obj
 0001:0003d740       _GLee_Lazy_glVertexAttribI4ubv@8 0043e740 f   cinder:GLee.obj
 0001:0003d770       _GLee_Lazy_glVertexAttribI4usv@8 0043e770 f   cinder:GLee.obj
 0001:0003d7a0       _GLee_Lazy_glVertexAttribIPointer@20 0043e7a0 f   cinder:GLee.obj
 0001:0003d7d0       _GLee_Lazy_glGetVertexAttribIiv@12 0043e7d0 f   cinder:GLee.obj
 0001:0003d800       _GLee_Lazy_glGetVertexAttribIuiv@12 0043e800 f   cinder:GLee.obj
 0001:0003d830       _GLee_Lazy_glGetUniformuiv@12 0043e830 f   cinder:GLee.obj
 0001:0003d860       _GLee_Lazy_glBindFragDataLocation@12 0043e860 f   cinder:GLee.obj
 0001:0003d890       _GLee_Lazy_glGetFragDataLocation@8 0043e890 f   cinder:GLee.obj
 0001:0003d8c0       _GLee_Lazy_glUniform1ui@8  0043e8c0 f   cinder:GLee.obj
 0001:0003d8f0       _GLee_Lazy_glUniform2ui@12 0043e8f0 f   cinder:GLee.obj
 0001:0003d920       _GLee_Lazy_glUniform3ui@16 0043e920 f   cinder:GLee.obj
 0001:0003d950       _GLee_Lazy_glUniform4ui@20 0043e950 f   cinder:GLee.obj
 0001:0003d980       _GLee_Lazy_glUniform1uiv@12 0043e980 f   cinder:GLee.obj
 0001:0003d9b0       _GLee_Lazy_glUniform2uiv@12 0043e9b0 f   cinder:GLee.obj
 0001:0003d9e0       _GLee_Lazy_glUniform3uiv@12 0043e9e0 f   cinder:GLee.obj
 0001:0003da10       _GLee_Lazy_glUniform4uiv@12 0043ea10 f   cinder:GLee.obj
 0001:0003da40       _GLee_Lazy_glTexParameterIiv@12 0043ea40 f   cinder:GLee.obj
 0001:0003da70       _GLee_Lazy_glTexParameterIuiv@12 0043ea70 f   cinder:GLee.obj
 0001:0003daa0       _GLee_Lazy_glGetTexParameterIiv@12 0043eaa0 f   cinder:GLee.obj
 0001:0003dad0       _GLee_Lazy_glGetTexParameterIuiv@12 0043ead0 f   cinder:GLee.obj
 0001:0003db00       _GLee_Lazy_glClearBufferiv@12 0043eb00 f   cinder:GLee.obj
 0001:0003db30       _GLee_Lazy_glClearBufferuiv@12 0043eb30 f   cinder:GLee.obj
 0001:0003db60       _GLee_Lazy_glClearBufferfv@12 0043eb60 f   cinder:GLee.obj
 0001:0003db90       _GLee_Lazy_glClearBufferfi@16 0043eb90 f   cinder:GLee.obj
 0001:0003dbc0       _GLee_Lazy_glGetStringi@8  0043ebc0 f   cinder:GLee.obj
 0001:0003dbf0       _GLee_Lazy_glActiveTextureARB@4 0043ebf0 f   cinder:GLee.obj
 0001:0003dc10       _GLee_Lazy_glClientActiveTextureARB@4 0043ec10 f   cinder:GLee.obj
 0001:0003dc30       _GLee_Lazy_glMultiTexCoord1dARB@12 0043ec30 f   cinder:GLee.obj
 0001:0003dc60       _GLee_Lazy_glMultiTexCoord1dvARB@8 0043ec60 f   cinder:GLee.obj
 0001:0003dc90       _GLee_Lazy_glMultiTexCoord1fARB@8 0043ec90 f   cinder:GLee.obj
 0001:0003dcc0       _GLee_Lazy_glMultiTexCoord1fvARB@8 0043ecc0 f   cinder:GLee.obj
 0001:0003dcf0       _GLee_Lazy_glMultiTexCoord1iARB@8 0043ecf0 f   cinder:GLee.obj
 0001:0003dd20       _GLee_Lazy_glMultiTexCoord1ivARB@8 0043ed20 f   cinder:GLee.obj
 0001:0003dd50       _GLee_Lazy_glMultiTexCoord1sARB@8 0043ed50 f   cinder:GLee.obj
 0001:0003dd80       _GLee_Lazy_glMultiTexCoord1svARB@8 0043ed80 f   cinder:GLee.obj
 0001:0003ddb0       _GLee_Lazy_glMultiTexCoord2dARB@20 0043edb0 f   cinder:GLee.obj
 0001:0003dde0       _GLee_Lazy_glMultiTexCoord2dvARB@8 0043ede0 f   cinder:GLee.obj
 0001:0003de10       _GLee_Lazy_glMultiTexCoord2fARB@12 0043ee10 f   cinder:GLee.obj
 0001:0003de40       _GLee_Lazy_glMultiTexCoord2fvARB@8 0043ee40 f   cinder:GLee.obj
 0001:0003de70       _GLee_Lazy_glMultiTexCoord2iARB@12 0043ee70 f   cinder:GLee.obj
 0001:0003dea0       _GLee_Lazy_glMultiTexCoord2ivARB@8 0043eea0 f   cinder:GLee.obj
 0001:0003ded0       _GLee_Lazy_glMultiTexCoord2sARB@12 0043eed0 f   cinder:GLee.obj
 0001:0003df00       _GLee_Lazy_glMultiTexCoord2svARB@8 0043ef00 f   cinder:GLee.obj
 0001:0003df30       _GLee_Lazy_glMultiTexCoord3dARB@28 0043ef30 f   cinder:GLee.obj
 0001:0003df70       _GLee_Lazy_glMultiTexCoord3dvARB@8 0043ef70 f   cinder:GLee.obj
 0001:0003dfa0       _GLee_Lazy_glMultiTexCoord3fARB@16 0043efa0 f   cinder:GLee.obj
 0001:0003dfe0       _GLee_Lazy_glMultiTexCoord3fvARB@8 0043efe0 f   cinder:GLee.obj
 0001:0003e010       _GLee_Lazy_glMultiTexCoord3iARB@16 0043f010 f   cinder:GLee.obj
 0001:0003e040       _GLee_Lazy_glMultiTexCoord3ivARB@8 0043f040 f   cinder:GLee.obj
 0001:0003e070       _GLee_Lazy_glMultiTexCoord3sARB@16 0043f070 f   cinder:GLee.obj
 0001:0003e0a0       _GLee_Lazy_glMultiTexCoord3svARB@8 0043f0a0 f   cinder:GLee.obj
 0001:0003e0d0       _GLee_Lazy_glMultiTexCoord4dARB@36 0043f0d0 f   cinder:GLee.obj
 0001:0003e120       _GLee_Lazy_glMultiTexCoord4dvARB@8 0043f120 f   cinder:GLee.obj
 0001:0003e150       _GLee_Lazy_glMultiTexCoord4fARB@20 0043f150 f   cinder:GLee.obj
 0001:0003e190       _GLee_Lazy_glMultiTexCoord4fvARB@8 0043f190 f   cinder:GLee.obj
 0001:0003e1c0       _GLee_Lazy_glMultiTexCoord4iARB@20 0043f1c0 f   cinder:GLee.obj
 0001:0003e1f0       _GLee_Lazy_glMultiTexCoord4ivARB@8 0043f1f0 f   cinder:GLee.obj
 0001:0003e220       _GLee_Lazy_glMultiTexCoord4sARB@20 0043f220 f   cinder:GLee.obj
 0001:0003e260       _GLee_Lazy_glMultiTexCoord4svARB@8 0043f260 f   cinder:GLee.obj
 0001:0003e290       _GLee_Lazy_glLoadTransposeMatrixfARB@4 0043f290 f   cinder:GLee.obj
 0001:0003e2b0       _GLee_Lazy_glLoadTransposeMatrixdARB@4 0043f2b0 f   cinder:GLee.obj
 0001:0003e2d0       _GLee_Lazy_glMultTransposeMatrixfARB@4 0043f2d0 f   cinder:GLee.obj
 0001:0003e2f0       _GLee_Lazy_glMultTransposeMatrixdARB@4 0043f2f0 f   cinder:GLee.obj
 0001:0003e310       _GLee_Lazy_glSampleCoverageARB@8 0043f310 f   cinder:GLee.obj
 0001:0003e340       _GLee_Lazy_glCompressedTexImage3DARB@36 0043f340 f   cinder:GLee.obj
 0001:0003e380       _GLee_Lazy_glCompressedTexImage2DARB@32 0043f380 f   cinder:GLee.obj
 0001:0003e3c0       _GLee_Lazy_glCompressedTexImage1DARB@28 0043f3c0 f   cinder:GLee.obj
 0001:0003e400       _GLee_Lazy_glCompressedTexSubImage3DARB@44 0043f400 f   cinder:GLee.obj
 0001:0003e450       _GLee_Lazy_glCompressedTexSubImage2DARB@36 0043f450 f   cinder:GLee.obj
 0001:0003e490       _GLee_Lazy_glCompressedTexSubImage1DARB@28 0043f490 f   cinder:GLee.obj
 0001:0003e4d0       _GLee_Lazy_glGetCompressedTexImageARB@12 0043f4d0 f   cinder:GLee.obj
 0001:0003e500       _GLee_Lazy_glPointParameterfARB@8 0043f500 f   cinder:GLee.obj
 0001:0003e530       _GLee_Lazy_glPointParameterfvARB@8 0043f530 f   cinder:GLee.obj
 0001:0003e560       _GLee_Lazy_glWeightbvARB@8 0043f560 f   cinder:GLee.obj
 0001:0003e590       _GLee_Lazy_glWeightsvARB@8 0043f590 f   cinder:GLee.obj
 0001:0003e5c0       _GLee_Lazy_glWeightivARB@8 0043f5c0 f   cinder:GLee.obj
 0001:0003e5f0       _GLee_Lazy_glWeightfvARB@8 0043f5f0 f   cinder:GLee.obj
 0001:0003e620       _GLee_Lazy_glWeightdvARB@8 0043f620 f   cinder:GLee.obj
 0001:0003e650       _GLee_Lazy_glWeightubvARB@8 0043f650 f   cinder:GLee.obj
 0001:0003e680       _GLee_Lazy_glWeightusvARB@8 0043f680 f   cinder:GLee.obj
 0001:0003e6b0       _GLee_Lazy_glWeightuivARB@8 0043f6b0 f   cinder:GLee.obj
 0001:0003e6e0       _GLee_Lazy_glWeightPointerARB@16 0043f6e0 f   cinder:GLee.obj
 0001:0003e710       _GLee_Lazy_glVertexBlendARB@4 0043f710 f   cinder:GLee.obj
 0001:0003e730       _GLee_Lazy_glCurrentPaletteMatrixARB@4 0043f730 f   cinder:GLee.obj
 0001:0003e750       _GLee_Lazy_glMatrixIndexubvARB@8 0043f750 f   cinder:GLee.obj
 0001:0003e780       _GLee_Lazy_glMatrixIndexusvARB@8 0043f780 f   cinder:GLee.obj
 0001:0003e7b0       _GLee_Lazy_glMatrixIndexuivARB@8 0043f7b0 f   cinder:GLee.obj
 0001:0003e7e0       _GLee_Lazy_glMatrixIndexPointerARB@16 0043f7e0 f   cinder:GLee.obj
 0001:0003e810       _GLee_Lazy_glWindowPos2dARB@16 0043f810 f   cinder:GLee.obj
 0001:0003e840       _GLee_Lazy_glWindowPos2dvARB@4 0043f840 f   cinder:GLee.obj
 0001:0003e860       _GLee_Lazy_glWindowPos2fARB@8 0043f860 f   cinder:GLee.obj
 0001:0003e890       _GLee_Lazy_glWindowPos2fvARB@4 0043f890 f   cinder:GLee.obj
 0001:0003e8b0       _GLee_Lazy_glWindowPos2iARB@8 0043f8b0 f   cinder:GLee.obj
 0001:0003e8e0       _GLee_Lazy_glWindowPos2ivARB@4 0043f8e0 f   cinder:GLee.obj
 0001:0003e900       _GLee_Lazy_glWindowPos2sARB@8 0043f900 f   cinder:GLee.obj
 0001:0003e930       _GLee_Lazy_glWindowPos2svARB@4 0043f930 f   cinder:GLee.obj
 0001:0003e950       _GLee_Lazy_glWindowPos3dARB@24 0043f950 f   cinder:GLee.obj
 0001:0003e990       _GLee_Lazy_glWindowPos3dvARB@4 0043f990 f   cinder:GLee.obj
 0001:0003e9b0       _GLee_Lazy_glWindowPos3fARB@12 0043f9b0 f   cinder:GLee.obj
 0001:0003e9e0       _GLee_Lazy_glWindowPos3fvARB@4 0043f9e0 f   cinder:GLee.obj
 0001:0003ea00       _GLee_Lazy_glWindowPos3iARB@12 0043fa00 f   cinder:GLee.obj
 0001:0003ea30       _GLee_Lazy_glWindowPos3ivARB@4 0043fa30 f   cinder:GLee.obj
 0001:0003ea50       _GLee_Lazy_glWindowPos3sARB@12 0043fa50 f   cinder:GLee.obj
 0001:0003ea80       _GLee_Lazy_glWindowPos3svARB@4 0043fa80 f   cinder:GLee.obj
 0001:0003eaa0       _GLee_Lazy_glVertexAttrib1dARB@12 0043faa0 f   cinder:GLee.obj
 0001:0003ead0       _GLee_Lazy_glVertexAttrib1dvARB@8 0043fad0 f   cinder:GLee.obj
 0001:0003eb00       _GLee_Lazy_glVertexAttrib1fARB@8 0043fb00 f   cinder:GLee.obj
 0001:0003eb30       _GLee_Lazy_glVertexAttrib1fvARB@8 0043fb30 f   cinder:GLee.obj
 0001:0003eb60       _GLee_Lazy_glVertexAttrib1sARB@8 0043fb60 f   cinder:GLee.obj
 0001:0003eb90       _GLee_Lazy_glVertexAttrib1svARB@8 0043fb90 f   cinder:GLee.obj
 0001:0003ebc0       _GLee_Lazy_glVertexAttrib2dARB@20 0043fbc0 f   cinder:GLee.obj
 0001:0003ebf0       _GLee_Lazy_glVertexAttrib2dvARB@8 0043fbf0 f   cinder:GLee.obj
 0001:0003ec20       _GLee_Lazy_glVertexAttrib2fARB@12 0043fc20 f   cinder:GLee.obj
 0001:0003ec50       _GLee_Lazy_glVertexAttrib2fvARB@8 0043fc50 f   cinder:GLee.obj
 0001:0003ec80       _GLee_Lazy_glVertexAttrib2sARB@12 0043fc80 f   cinder:GLee.obj
 0001:0003ecb0       _GLee_Lazy_glVertexAttrib2svARB@8 0043fcb0 f   cinder:GLee.obj
 0001:0003ece0       _GLee_Lazy_glVertexAttrib3dARB@28 0043fce0 f   cinder:GLee.obj
 0001:0003ed20       _GLee_Lazy_glVertexAttrib3dvARB@8 0043fd20 f   cinder:GLee.obj
 0001:0003ed50       _GLee_Lazy_glVertexAttrib3fARB@16 0043fd50 f   cinder:GLee.obj
 0001:0003ed90       _GLee_Lazy_glVertexAttrib3fvARB@8 0043fd90 f   cinder:GLee.obj
 0001:0003edc0       _GLee_Lazy_glVertexAttrib3sARB@16 0043fdc0 f   cinder:GLee.obj
 0001:0003edf0       _GLee_Lazy_glVertexAttrib3svARB@8 0043fdf0 f   cinder:GLee.obj
 0001:0003ee20       _GLee_Lazy_glVertexAttrib4NbvARB@8 0043fe20 f   cinder:GLee.obj
 0001:0003ee50       _GLee_Lazy_glVertexAttrib4NivARB@8 0043fe50 f   cinder:GLee.obj
 0001:0003ee80       _GLee_Lazy_glVertexAttrib4NsvARB@8 0043fe80 f   cinder:GLee.obj
 0001:0003eeb0       _GLee_Lazy_glVertexAttrib4NubARB@20 0043feb0 f   cinder:GLee.obj
 0001:0003eef0       _GLee_Lazy_glVertexAttrib4NubvARB@8 0043fef0 f   cinder:GLee.obj
 0001:0003ef20       _GLee_Lazy_glVertexAttrib4NuivARB@8 0043ff20 f   cinder:GLee.obj
 0001:0003ef50       _GLee_Lazy_glVertexAttrib4NusvARB@8 0043ff50 f   cinder:GLee.obj
 0001:0003ef80       _GLee_Lazy_glVertexAttrib4bvARB@8 0043ff80 f   cinder:GLee.obj
 0001:0003efb0       _GLee_Lazy_glVertexAttrib4dARB@36 0043ffb0 f   cinder:GLee.obj
 0001:0003f000       _GLee_Lazy_glVertexAttrib4dvARB@8 00440000 f   cinder:GLee.obj
 0001:0003f030       _GLee_Lazy_glVertexAttrib4fARB@20 00440030 f   cinder:GLee.obj
 0001:0003f070       _GLee_Lazy_glVertexAttrib4fvARB@8 00440070 f   cinder:GLee.obj
 0001:0003f0a0       _GLee_Lazy_glVertexAttrib4ivARB@8 004400a0 f   cinder:GLee.obj
 0001:0003f0d0       _GLee_Lazy_glVertexAttrib4sARB@20 004400d0 f   cinder:GLee.obj
 0001:0003f110       _GLee_Lazy_glVertexAttrib4svARB@8 00440110 f   cinder:GLee.obj
 0001:0003f140       _GLee_Lazy_glVertexAttrib4ubvARB@8 00440140 f   cinder:GLee.obj
 0001:0003f170       _GLee_Lazy_glVertexAttrib4uivARB@8 00440170 f   cinder:GLee.obj
 0001:0003f1a0       _GLee_Lazy_glVertexAttrib4usvARB@8 004401a0 f   cinder:GLee.obj
 0001:0003f1d0       _GLee_Lazy_glVertexAttribPointerARB@24 004401d0 f   cinder:GLee.obj
 0001:0003f210       _GLee_Lazy_glEnableVertexAttribArrayARB@4 00440210 f   cinder:GLee.obj
 0001:0003f230       _GLee_Lazy_glDisableVertexAttribArrayARB@4 00440230 f   cinder:GLee.obj
 0001:0003f250       _GLee_Lazy_glProgramStringARB@16 00440250 f   cinder:GLee.obj
 0001:0003f280       _GLee_Lazy_glBindProgramARB@8 00440280 f   cinder:GLee.obj
 0001:0003f2b0       _GLee_Lazy_glDeleteProgramsARB@8 004402b0 f   cinder:GLee.obj
 0001:0003f2e0       _GLee_Lazy_glGenProgramsARB@8 004402e0 f   cinder:GLee.obj
 0001:0003f310       _GLee_Lazy_glProgramEnvParameter4dARB@40 00440310 f   cinder:GLee.obj
 0001:0003f360       _GLee_Lazy_glProgramEnvParameter4dvARB@12 00440360 f   cinder:GLee.obj
 0001:0003f390       _GLee_Lazy_glProgramEnvParameter4fARB@24 00440390 f   cinder:GLee.obj
 0001:0003f3d0       _GLee_Lazy_glProgramEnvParameter4fvARB@12 004403d0 f   cinder:GLee.obj
 0001:0003f400       _GLee_Lazy_glProgramLocalParameter4dARB@40 00440400 f   cinder:GLee.obj
 0001:0003f450       _GLee_Lazy_glProgramLocalParameter4dvARB@12 00440450 f   cinder:GLee.obj
 0001:0003f480       _GLee_Lazy_glProgramLocalParameter4fARB@24 00440480 f   cinder:GLee.obj
 0001:0003f4c0       _GLee_Lazy_glProgramLocalParameter4fvARB@12 004404c0 f   cinder:GLee.obj
 0001:0003f4f0       _GLee_Lazy_glGetProgramEnvParameterdvARB@12 004404f0 f   cinder:GLee.obj
 0001:0003f520       _GLee_Lazy_glGetProgramEnvParameterfvARB@12 00440520 f   cinder:GLee.obj
 0001:0003f550       _GLee_Lazy_glGetProgramLocalParameterdvARB@12 00440550 f   cinder:GLee.obj
 0001:0003f580       _GLee_Lazy_glGetProgramLocalParameterfvARB@12 00440580 f   cinder:GLee.obj
 0001:0003f5b0       _GLee_Lazy_glGetProgramivARB@12 004405b0 f   cinder:GLee.obj
 0001:0003f5e0       _GLee_Lazy_glGetProgramStringARB@12 004405e0 f   cinder:GLee.obj
 0001:0003f610       _GLee_Lazy_glGetVertexAttribdvARB@12 00440610 f   cinder:GLee.obj
 0001:0003f640       _GLee_Lazy_glGetVertexAttribfvARB@12 00440640 f   cinder:GLee.obj
 0001:0003f670       _GLee_Lazy_glGetVertexAttribivARB@12 00440670 f   cinder:GLee.obj
 0001:0003f6a0       _GLee_Lazy_glGetVertexAttribPointervARB@12 004406a0 f   cinder:GLee.obj
 0001:0003f6d0       _GLee_Lazy_glIsProgramARB@4 004406d0 f   cinder:GLee.obj
 0001:0003f700       _GLee_Lazy_glBindBufferARB@8 00440700 f   cinder:GLee.obj
 0001:0003f730       _GLee_Lazy_glDeleteBuffersARB@8 00440730 f   cinder:GLee.obj
 0001:0003f760       _GLee_Lazy_glGenBuffersARB@8 00440760 f   cinder:GLee.obj
 0001:0003f790       _GLee_Lazy_glIsBufferARB@4 00440790 f   cinder:GLee.obj
 0001:0003f7c0       _GLee_Lazy_glBufferDataARB@16 004407c0 f   cinder:GLee.obj
 0001:0003f7f0       _GLee_Lazy_glBufferSubDataARB@16 004407f0 f   cinder:GLee.obj
 0001:0003f820       _GLee_Lazy_glGetBufferSubDataARB@16 00440820 f   cinder:GLee.obj
 0001:0003f850       _GLee_Lazy_glMapBufferARB@8 00440850 f   cinder:GLee.obj
 0001:0003f880       _GLee_Lazy_glUnmapBufferARB@4 00440880 f   cinder:GLee.obj
 0001:0003f8b0       _GLee_Lazy_glGetBufferParameterivARB@12 004408b0 f   cinder:GLee.obj
 0001:0003f8e0       _GLee_Lazy_glGetBufferPointervARB@12 004408e0 f   cinder:GLee.obj
 0001:0003f910       _GLee_Lazy_glGenQueriesARB@8 00440910 f   cinder:GLee.obj
 0001:0003f940       _GLee_Lazy_glDeleteQueriesARB@8 00440940 f   cinder:GLee.obj
 0001:0003f970       _GLee_Lazy_glIsQueryARB@4  00440970 f   cinder:GLee.obj
 0001:0003f9a0       _GLee_Lazy_glBeginQueryARB@8 004409a0 f   cinder:GLee.obj
 0001:0003f9d0       _GLee_Lazy_glEndQueryARB@4 004409d0 f   cinder:GLee.obj
 0001:0003f9f0       _GLee_Lazy_glGetQueryivARB@12 004409f0 f   cinder:GLee.obj
 0001:0003fa20       _GLee_Lazy_glGetQueryObjectivARB@12 00440a20 f   cinder:GLee.obj
 0001:0003fa50       _GLee_Lazy_glGetQueryObjectuivARB@12 00440a50 f   cinder:GLee.obj
 0001:0003fa80       _GLee_Lazy_glDeleteObjectARB@4 00440a80 f   cinder:GLee.obj
 0001:0003faa0       _GLee_Lazy_glGetHandleARB@4 00440aa0 f   cinder:GLee.obj
 0001:0003fad0       _GLee_Lazy_glDetachObjectARB@8 00440ad0 f   cinder:GLee.obj
 0001:0003fb00       _GLee_Lazy_glCreateShaderObjectARB@4 00440b00 f   cinder:GLee.obj
 0001:0003fb30       _GLee_Lazy_glShaderSourceARB@16 00440b30 f   cinder:GLee.obj
 0001:0003fb60       _GLee_Lazy_glCompileShaderARB@4 00440b60 f   cinder:GLee.obj
 0001:0003fb80       _GLee_Lazy_glCreateProgramObjectARB@0 00440b80 f   cinder:GLee.obj
 0001:0003fba0       _GLee_Lazy_glAttachObjectARB@8 00440ba0 f   cinder:GLee.obj
 0001:0003fbd0       _GLee_Lazy_glLinkProgramARB@4 00440bd0 f   cinder:GLee.obj
 0001:0003fbf0       _GLee_Lazy_glUseProgramObjectARB@4 00440bf0 f   cinder:GLee.obj
 0001:0003fc10       _GLee_Lazy_glValidateProgramARB@4 00440c10 f   cinder:GLee.obj
 0001:0003fc30       _GLee_Lazy_glUniform1fARB@8 00440c30 f   cinder:GLee.obj
 0001:0003fc60       _GLee_Lazy_glUniform2fARB@12 00440c60 f   cinder:GLee.obj
 0001:0003fc90       _GLee_Lazy_glUniform3fARB@16 00440c90 f   cinder:GLee.obj
 0001:0003fcd0       _GLee_Lazy_glUniform4fARB@20 00440cd0 f   cinder:GLee.obj
 0001:0003fd10       _GLee_Lazy_glUniform1iARB@8 00440d10 f   cinder:GLee.obj
 0001:0003fd40       _GLee_Lazy_glUniform2iARB@12 00440d40 f   cinder:GLee.obj
 0001:0003fd70       _GLee_Lazy_glUniform3iARB@16 00440d70 f   cinder:GLee.obj
 0001:0003fda0       _GLee_Lazy_glUniform4iARB@20 00440da0 f   cinder:GLee.obj
 0001:0003fdd0       _GLee_Lazy_glUniform1fvARB@12 00440dd0 f   cinder:GLee.obj
 0001:0003fe00       _GLee_Lazy_glUniform2fvARB@12 00440e00 f   cinder:GLee.obj
 0001:0003fe30       _GLee_Lazy_glUniform3fvARB@12 00440e30 f   cinder:GLee.obj
 0001:0003fe60       _GLee_Lazy_glUniform4fvARB@12 00440e60 f   cinder:GLee.obj
 0001:0003fe90       _GLee_Lazy_glUniform1ivARB@12 00440e90 f   cinder:GLee.obj
 0001:0003fec0       _GLee_Lazy_glUniform2ivARB@12 00440ec0 f   cinder:GLee.obj
 0001:0003fef0       _GLee_Lazy_glUniform3ivARB@12 00440ef0 f   cinder:GLee.obj
 0001:0003ff20       _GLee_Lazy_glUniform4ivARB@12 00440f20 f   cinder:GLee.obj
 0001:0003ff50       _GLee_Lazy_glUniformMatrix2fvARB@16 00440f50 f   cinder:GLee.obj
 0001:0003ff80       _GLee_Lazy_glUniformMatrix3fvARB@16 00440f80 f   cinder:GLee.obj
 0001:0003ffb0       _GLee_Lazy_glUniformMatrix4fvARB@16 00440fb0 f   cinder:GLee.obj
 0001:0003ffe0       _GLee_Lazy_glGetObjectParameterfvARB@12 00440fe0 f   cinder:GLee.obj
 0001:00040010       _GLee_Lazy_glGetObjectParameterivARB@12 00441010 f   cinder:GLee.obj
 0001:00040040       _GLee_Lazy_glGetInfoLogARB@16 00441040 f   cinder:GLee.obj
 0001:00040070       _GLee_Lazy_glGetAttachedObjectsARB@16 00441070 f   cinder:GLee.obj
 0001:000400a0       _GLee_Lazy_glGetUniformLocationARB@8 004410a0 f   cinder:GLee.obj
 0001:000400d0       _GLee_Lazy_glGetActiveUniformARB@28 004410d0 f   cinder:GLee.obj
 0001:00040110       _GLee_Lazy_glGetUniformfvARB@12 00441110 f   cinder:GLee.obj
 0001:00040140       _GLee_Lazy_glGetUniformivARB@12 00441140 f   cinder:GLee.obj
 0001:00040170       _GLee_Lazy_glGetShaderSourceARB@16 00441170 f   cinder:GLee.obj
 0001:000401a0       _GLee_Lazy_glBindAttribLocationARB@12 004411a0 f   cinder:GLee.obj
 0001:000401d0       _GLee_Lazy_glGetActiveAttribARB@28 004411d0 f   cinder:GLee.obj
 0001:00040210       _GLee_Lazy_glGetAttribLocationARB@8 00441210 f   cinder:GLee.obj
 0001:00040240       _GLee_Lazy_glDrawBuffersARB@8 00441240 f   cinder:GLee.obj
 0001:00040270       _GLee_Lazy_glClampColorARB@8 00441270 f   cinder:GLee.obj
 0001:000402a0       _GLee_Lazy_glDrawArraysInstancedARB@16 004412a0 f   cinder:GLee.obj
 0001:000402d0       _GLee_Lazy_glDrawElementsInstancedARB@20 004412d0 f   cinder:GLee.obj
 0001:00040300       _GLee_Lazy_glIsRenderbuffer@4 00441300 f   cinder:GLee.obj
 0001:00040330       _GLee_Lazy_glBindRenderbuffer@8 00441330 f   cinder:GLee.obj
 0001:00040360       _GLee_Lazy_glDeleteRenderbuffers@8 00441360 f   cinder:GLee.obj
 0001:00040390       _GLee_Lazy_glGenRenderbuffers@8 00441390 f   cinder:GLee.obj
 0001:000403c0       _GLee_Lazy_glRenderbufferStorage@16 004413c0 f   cinder:GLee.obj
 0001:000403f0       _GLee_Lazy_glGetRenderbufferParameteriv@12 004413f0 f   cinder:GLee.obj
 0001:00040420       _GLee_Lazy_glIsFramebuffer@4 00441420 f   cinder:GLee.obj
 0001:00040450       _GLee_Lazy_glBindFramebuffer@8 00441450 f   cinder:GLee.obj
 0001:00040480       _GLee_Lazy_glDeleteFramebuffers@8 00441480 f   cinder:GLee.obj
 0001:000404b0       _GLee_Lazy_glGenFramebuffers@8 004414b0 f   cinder:GLee.obj
 0001:000404e0       _GLee_Lazy_glCheckFramebufferStatus@4 004414e0 f   cinder:GLee.obj
 0001:00040510       _GLee_Lazy_glFramebufferTexture1D@20 00441510 f   cinder:GLee.obj
 0001:00040540       _GLee_Lazy_glFramebufferTexture2D@20 00441540 f   cinder:GLee.obj
 0001:00040570       _GLee_Lazy_glFramebufferTexture3D@24 00441570 f   cinder:GLee.obj
 0001:000405b0       _GLee_Lazy_glFramebufferRenderbuffer@16 004415b0 f   cinder:GLee.obj
 0001:000405e0       _GLee_Lazy_glGetFramebufferAttachmentParameteriv@16 004415e0 f   cinder:GLee.obj
 0001:00040610       _GLee_Lazy_glGenerateMipmap@4 00441610 f   cinder:GLee.obj
 0001:00040630       _GLee_Lazy_glBlitFramebuffer@40 00441630 f   cinder:GLee.obj
 0001:00040680       _GLee_Lazy_glRenderbufferStorageMultisample@20 00441680 f   cinder:GLee.obj
 0001:000406b0       _GLee_Lazy_glFramebufferTextureLayer@20 004416b0 f   cinder:GLee.obj
 0001:000406e0       _GLee_Lazy_glProgramParameteriARB@12 004416e0 f   cinder:GLee.obj
 0001:00040710       _GLee_Lazy_glFramebufferTextureARB@16 00441710 f   cinder:GLee.obj
 0001:00040740       _GLee_Lazy_glFramebufferTextureLayerARB@20 00441740 f   cinder:GLee.obj
 0001:00040770       _GLee_Lazy_glFramebufferTextureFaceARB@20 00441770 f   cinder:GLee.obj
 0001:000407a0       _GLee_Lazy_glVertexAttribDivisor@8 004417a0 f   cinder:GLee.obj
 0001:000407d0       _GLee_Lazy_glMapBufferRange@16 004417d0 f   cinder:GLee.obj
 0001:00040800       _GLee_Lazy_glFlushMappedBufferRange@12 00441800 f   cinder:GLee.obj
 0001:00040830       _GLee_Lazy_glTexBufferARB@12 00441830 f   cinder:GLee.obj
 0001:00040860       _GLee_Lazy_glBindVertexArray@4 00441860 f   cinder:GLee.obj
 0001:00040880       _GLee_Lazy_glDeleteVertexArrays@8 00441880 f   cinder:GLee.obj
 0001:000408b0       _GLee_Lazy_glGenVertexArrays@8 004418b0 f   cinder:GLee.obj
 0001:000408e0       _GLee_Lazy_glIsVertexArray@4 004418e0 f   cinder:GLee.obj
 0001:00040910       _GLee_Lazy_glBlendColorEXT@16 00441910 f   cinder:GLee.obj
 0001:00040950       _GLee_Lazy_glPolygonOffsetEXT@8 00441950 f   cinder:GLee.obj
 0001:00040980       _GLee_Lazy_glTexImage3DEXT@40 00441980 f   cinder:GLee.obj
 0001:000409d0       _GLee_Lazy_glTexSubImage3DEXT@44 004419d0 f   cinder:GLee.obj
 0001:00040a20       _GLee_Lazy_glGetTexFilterFuncSGIS@12 00441a20 f   cinder:GLee.obj
 0001:00040a50       _GLee_Lazy_glTexFilterFuncSGIS@16 00441a50 f   cinder:GLee.obj
 0001:00040a80       _GLee_Lazy_glTexSubImage1DEXT@28 00441a80 f   cinder:GLee.obj
 0001:00040ac0       _GLee_Lazy_glTexSubImage2DEXT@36 00441ac0 f   cinder:GLee.obj
 0001:00040b00       _GLee_Lazy_glCopyTexImage1DEXT@28 00441b00 f   cinder:GLee.obj
 0001:00040b40       _GLee_Lazy_glCopyTexImage2DEXT@32 00441b40 f   cinder:GLee.obj
 0001:00040b80       _GLee_Lazy_glCopyTexSubImage1DEXT@24 00441b80 f   cinder:GLee.obj
 0001:00040bc0       _GLee_Lazy_glCopyTexSubImage2DEXT@32 00441bc0 f   cinder:GLee.obj
 0001:00040c00       _GLee_Lazy_glCopyTexSubImage3DEXT@36 00441c00 f   cinder:GLee.obj
 0001:00040c40       _GLee_Lazy_glGetHistogramEXT@20 00441c40 f   cinder:GLee.obj
 0001:00040c70       _GLee_Lazy_glGetHistogramParameterfvEXT@12 00441c70 f   cinder:GLee.obj
 0001:00040ca0       _GLee_Lazy_glGetHistogramParameterivEXT@12 00441ca0 f   cinder:GLee.obj
 0001:00040cd0       _GLee_Lazy_glGetMinmaxEXT@20 00441cd0 f   cinder:GLee.obj
 0001:00040d00       _GLee_Lazy_glGetMinmaxParameterfvEXT@12 00441d00 f   cinder:GLee.obj
 0001:00040d30       _GLee_Lazy_glGetMinmaxParameterivEXT@12 00441d30 f   cinder:GLee.obj
 0001:00040d60       _GLee_Lazy_glHistogramEXT@16 00441d60 f   cinder:GLee.obj
 0001:00040d90       _GLee_Lazy_glMinmaxEXT@12  00441d90 f   cinder:GLee.obj
 0001:00040dc0       _GLee_Lazy_glResetHistogramEXT@4 00441dc0 f   cinder:GLee.obj
 0001:00040de0       _GLee_Lazy_glResetMinmaxEXT@4 00441de0 f   cinder:GLee.obj
 0001:00040e00       _GLee_Lazy_glConvolutionFilter1DEXT@24 00441e00 f   cinder:GLee.obj
 0001:00040e40       _GLee_Lazy_glConvolutionFilter2DEXT@28 00441e40 f   cinder:GLee.obj
 0001:00040e80       _GLee_Lazy_glConvolutionParameterfEXT@12 00441e80 f   cinder:GLee.obj
 0001:00040eb0       _GLee_Lazy_glConvolutionParameterfvEXT@12 00441eb0 f   cinder:GLee.obj
 0001:00040ee0       _GLee_Lazy_glConvolutionParameteriEXT@12 00441ee0 f   cinder:GLee.obj
 0001:00040f10       _GLee_Lazy_glConvolutionParameterivEXT@12 00441f10 f   cinder:GLee.obj
 0001:00040f40       _GLee_Lazy_glCopyConvolutionFilter1DEXT@20 00441f40 f   cinder:GLee.obj
 0001:00040f70       _GLee_Lazy_glCopyConvolutionFilter2DEXT@24 00441f70 f   cinder:GLee.obj
 0001:00040fb0       _GLee_Lazy_glGetConvolutionFilterEXT@16 00441fb0 f   cinder:GLee.obj
 0001:00040fe0       _GLee_Lazy_glGetConvolutionParameterfvEXT@12 00441fe0 f   cinder:GLee.obj
 0001:00041010       _GLee_Lazy_glGetConvolutionParameterivEXT@12 00442010 f   cinder:GLee.obj
 0001:00041040       _GLee_Lazy_glGetSeparableFilterEXT@24 00442040 f   cinder:GLee.obj
 0001:00041080       _GLee_Lazy_glSeparableFilter2DEXT@32 00442080 f   cinder:GLee.obj
 0001:000410c0       _GLee_Lazy_glColorTableSGI@24 004420c0 f   cinder:GLee.obj
 0001:00041100       _GLee_Lazy_glColorTableParameterfvSGI@12 00442100 f   cinder:GLee.obj
 0001:00041130       _GLee_Lazy_glColorTableParameterivSGI@12 00442130 f   cinder:GLee.obj
 0001:00041160       _GLee_Lazy_glCopyColorTableSGI@20 00442160 f   cinder:GLee.obj
 0001:00041190       _GLee_Lazy_glGetColorTableSGI@16 00442190 f   cinder:GLee.obj
 0001:000411c0       _GLee_Lazy_glGetColorTableParameterfvSGI@12 004421c0 f   cinder:GLee.obj
 0001:000411f0       _GLee_Lazy_glGetColorTableParameterivSGI@12 004421f0 f   cinder:GLee.obj
 0001:00041220       _GLee_Lazy_glPixelTexGenParameteriSGIS@8 00442220 f   cinder:GLee.obj
 0001:00041250       _GLee_Lazy_glPixelTexGenParameterivSGIS@8 00442250 f   cinder:GLee.obj
 0001:00041280       _GLee_Lazy_glPixelTexGenParameterfSGIS@8 00442280 f   cinder:GLee.obj
 0001:000412b0       _GLee_Lazy_glPixelTexGenParameterfvSGIS@8 004422b0 f   cinder:GLee.obj
 0001:000412e0       _GLee_Lazy_glGetPixelTexGenParameterivSGIS@8 004422e0 f   cinder:GLee.obj
 0001:00041310       _GLee_Lazy_glGetPixelTexGenParameterfvSGIS@8 00442310 f   cinder:GLee.obj
 0001:00041340       _GLee_Lazy_glPixelTexGenSGIX@4 00442340 f   cinder:GLee.obj
 0001:00041360       _GLee_Lazy_glTexImage4DSGIS@44 00442360 f   cinder:GLee.obj
 0001:000413b0       _GLee_Lazy_glTexSubImage4DSGIS@52 004423b0 f   cinder:GLee.obj
 0001:00041400       _GLee_Lazy_glAreTexturesResidentEXT@12 00442400 f   cinder:GLee.obj
 0001:00041430       _GLee_Lazy_glBindTextureEXT@8 00442430 f   cinder:GLee.obj
 0001:00041460       _GLee_Lazy_glDeleteTexturesEXT@8 00442460 f   cinder:GLee.obj
 0001:00041490       _GLee_Lazy_glGenTexturesEXT@8 00442490 f   cinder:GLee.obj
 0001:000414c0       _GLee_Lazy_glIsTextureEXT@4 004424c0 f   cinder:GLee.obj
 0001:000414f0       _GLee_Lazy_glPrioritizeTexturesEXT@12 004424f0 f   cinder:GLee.obj
 0001:00041520       _GLee_Lazy_glDetailTexFuncSGIS@12 00442520 f   cinder:GLee.obj
 0001:00041550       _GLee_Lazy_glGetDetailTexFuncSGIS@8 00442550 f   cinder:GLee.obj
 0001:00041580       _GLee_Lazy_glSharpenTexFuncSGIS@12 00442580 f   cinder:GLee.obj
 0001:000415b0       _GLee_Lazy_glGetSharpenTexFuncSGIS@8 004425b0 f   cinder:GLee.obj
 0001:000415e0       _GLee_Lazy_glSampleMaskSGIS@8 004425e0 f   cinder:GLee.obj
 0001:00041610       _GLee_Lazy_glSamplePatternSGIS@4 00442610 f   cinder:GLee.obj
 0001:00041630       _GLee_Lazy_glArrayElementEXT@4 00442630 f   cinder:GLee.obj
 0001:00041650       _GLee_Lazy_glColorPointerEXT@20 00442650 f   cinder:GLee.obj
 0001:00041680       _GLee_Lazy_glDrawArraysEXT@12 00442680 f   cinder:GLee.obj
 0001:000416b0       _GLee_Lazy_glEdgeFlagPointerEXT@12 004426b0 f   cinder:GLee.obj
 0001:000416e0       _GLee_Lazy_glGetPointervEXT@8 004426e0 f   cinder:GLee.obj
 0001:00041710       _GLee_Lazy_glIndexPointerEXT@16 00442710 f   cinder:GLee.obj
 0001:00041740       _GLee_Lazy_glNormalPointerEXT@16 00442740 f   cinder:GLee.obj
 0001:00041770       _GLee_Lazy_glTexCoordPointerEXT@20 00442770 f   cinder:GLee.obj
 0001:000417a0       _GLee_Lazy_glVertexPointerEXT@20 004427a0 f   cinder:GLee.obj
 0001:000417d0       _GLee_Lazy_glBlendEquationEXT@4 004427d0 f   cinder:GLee.obj
 0001:000417f0       _GLee_Lazy_glSpriteParameterfSGIX@8 004427f0 f   cinder:GLee.obj
 0001:00041820       _GLee_Lazy_glSpriteParameterfvSGIX@8 00442820 f   cinder:GLee.obj
 0001:00041850       _GLee_Lazy_glSpriteParameteriSGIX@8 00442850 f   cinder:GLee.obj
 0001:00041880       _GLee_Lazy_glSpriteParameterivSGIX@8 00442880 f   cinder:GLee.obj
 0001:000418b0       _GLee_Lazy_glPointParameterfEXT@8 004428b0 f   cinder:GLee.obj
 0001:000418e0       _GLee_Lazy_glPointParameterfvEXT@8 004428e0 f   cinder:GLee.obj
 0001:00041910       _GLee_Lazy_glPointParameterfSGIS@8 00442910 f   cinder:GLee.obj
 0001:00041940       _GLee_Lazy_glPointParameterfvSGIS@8 00442940 f   cinder:GLee.obj
 0001:00041970       _GLee_Lazy_glGetInstrumentsSGIX@0 00442970 f   cinder:GLee.obj
 0001:00041990       _GLee_Lazy_glInstrumentsBufferSGIX@8 00442990 f   cinder:GLee.obj
 0001:000419c0       _GLee_Lazy_glPollInstrumentsSGIX@4 004429c0 f   cinder:GLee.obj
 0001:000419f0       _GLee_Lazy_glReadInstrumentsSGIX@4 004429f0 f   cinder:GLee.obj
 0001:00041a10       _GLee_Lazy_glStartInstrumentsSGIX@0 00442a10 f   cinder:GLee.obj
 0001:00041a30       _GLee_Lazy_glStopInstrumentsSGIX@4 00442a30 f   cinder:GLee.obj
 0001:00041a50       _GLee_Lazy_glFrameZoomSGIX@4 00442a50 f   cinder:GLee.obj
 0001:00041a70       _GLee_Lazy_glTagSampleBufferSGIX@0 00442a70 f   cinder:GLee.obj
 0001:00041a90       _GLee_Lazy_glDeformationMap3dSGIX@80 00442a90 f   cinder:GLee.obj
 0001:00041b00       _GLee_Lazy_glDeformationMap3fSGIX@56 00442b00 f   cinder:GLee.obj
 0001:00041b70       _GLee_Lazy_glDeformSGIX@4  00442b70 f   cinder:GLee.obj
 0001:00041b90       _GLee_Lazy_glLoadIdentityDeformationMapSGIX@4 00442b90 f   cinder:GLee.obj
 0001:00041bb0       _GLee_Lazy_glReferencePlaneSGIX@4 00442bb0 f   cinder:GLee.obj
 0001:00041bd0       _GLee_Lazy_glFlushRasterSGIX@0 00442bd0 f   cinder:GLee.obj
 0001:00041bf0       _GLee_Lazy_glFogFuncSGIS@8 00442bf0 f   cinder:GLee.obj
 0001:00041c20       _GLee_Lazy_glGetFogFuncSGIS@4 00442c20 f   cinder:GLee.obj
 0001:00041c40       _GLee_Lazy_glImageTransformParameteriHP@12 00442c40 f   cinder:GLee.obj
 0001:00041c70       _GLee_Lazy_glImageTransformParameterfHP@12 00442c70 f   cinder:GLee.obj
 0001:00041ca0       _GLee_Lazy_glImageTransformParameterivHP@12 00442ca0 f   cinder:GLee.obj
 0001:00041cd0       _GLee_Lazy_glImageTransformParameterfvHP@12 00442cd0 f   cinder:GLee.obj
 0001:00041d00       _GLee_Lazy_glGetImageTransformParameterivHP@12 00442d00 f   cinder:GLee.obj
 0001:00041d30       _GLee_Lazy_glGetImageTransformParameterfvHP@12 00442d30 f   cinder:GLee.obj
 0001:00041d60       _GLee_Lazy_glColorSubTableEXT@24 00442d60 f   cinder:GLee.obj
 0001:00041da0       _GLee_Lazy_glCopyColorSubTableEXT@20 00442da0 f   cinder:GLee.obj
 0001:00041dd0       _GLee_Lazy_glHintPGI@8     00442dd0 f   cinder:GLee.obj
 0001:00041e00       _GLee_Lazy_glColorTableEXT@24 00442e00 f   cinder:GLee.obj
 0001:00041e40       _GLee_Lazy_glGetColorTableEXT@16 00442e40 f   cinder:GLee.obj
 0001:00041e70       _GLee_Lazy_glGetColorTableParameterivEXT@12 00442e70 f   cinder:GLee.obj
 0001:00041ea0       _GLee_Lazy_glGetColorTableParameterfvEXT@12 00442ea0 f   cinder:GLee.obj
 0001:00041ed0       _GLee_Lazy_glGetListParameterfvSGIX@12 00442ed0 f   cinder:GLee.obj
 0001:00041f00       _GLee_Lazy_glGetListParameterivSGIX@12 00442f00 f   cinder:GLee.obj
 0001:00041f30       _GLee_Lazy_glListParameterfSGIX@12 00442f30 f   cinder:GLee.obj
 0001:00041f60       _GLee_Lazy_glListParameterfvSGIX@12 00442f60 f   cinder:GLee.obj
 0001:00041f90       _GLee_Lazy_glListParameteriSGIX@12 00442f90 f   cinder:GLee.obj
 0001:00041fc0       _GLee_Lazy_glListParameterivSGIX@12 00442fc0 f   cinder:GLee.obj
 0001:00041ff0       _GLee_Lazy_glIndexMaterialEXT@8 00442ff0 f   cinder:GLee.obj
 0001:00042020       _GLee_Lazy_glIndexFuncEXT@8 00443020 f   cinder:GLee.obj
 0001:00042050       _GLee_Lazy_glLockArraysEXT@8 00443050 f   cinder:GLee.obj
 0001:00042080       _GLee_Lazy_glUnlockArraysEXT@0 00443080 f   cinder:GLee.obj
 0001:000420a0       _GLee_Lazy_glCullParameterdvEXT@8 004430a0 f   cinder:GLee.obj
 0001:000420d0       _GLee_Lazy_glCullParameterfvEXT@8 004430d0 f   cinder:GLee.obj
 0001:00042100       _GLee_Lazy_glFragmentColorMaterialSGIX@8 00443100 f   cinder:GLee.obj
 0001:00042130       _GLee_Lazy_glFragmentLightfSGIX@12 00443130 f   cinder:GLee.obj
 0001:00042160       _GLee_Lazy_glFragmentLightfvSGIX@12 00443160 f   cinder:GLee.obj
 0001:00042190       _GLee_Lazy_glFragmentLightiSGIX@12 00443190 f   cinder:GLee.obj
 0001:000421c0       _GLee_Lazy_glFragmentLightivSGIX@12 004431c0 f   cinder:GLee.obj
 0001:000421f0       _GLee_Lazy_glFragmentLightModelfSGIX@8 004431f0 f   cinder:GLee.obj
 0001:00042220       _GLee_Lazy_glFragmentLightModelfvSGIX@8 00443220 f   cinder:GLee.obj
 0001:00042250       _GLee_Lazy_glFragmentLightModeliSGIX@8 00443250 f   cinder:GLee.obj
 0001:00042280       _GLee_Lazy_glFragmentLightModelivSGIX@8 00443280 f   cinder:GLee.obj
 0001:000422b0       _GLee_Lazy_glFragmentMaterialfSGIX@12 004432b0 f   cinder:GLee.obj
 0001:000422e0       _GLee_Lazy_glFragmentMaterialfvSGIX@12 004432e0 f   cinder:GLee.obj
 0001:00042310       _GLee_Lazy_glFragmentMaterialiSGIX@12 00443310 f   cinder:GLee.obj
 0001:00042340       _GLee_Lazy_glFragmentMaterialivSGIX@12 00443340 f   cinder:GLee.obj
 0001:00042370       _GLee_Lazy_glGetFragmentLightfvSGIX@12 00443370 f   cinder:GLee.obj
 0001:000423a0       _GLee_Lazy_glGetFragmentLightivSGIX@12 004433a0 f   cinder:GLee.obj
 0001:000423d0       _GLee_Lazy_glGetFragmentMaterialfvSGIX@12 004433d0 f   cinder:GLee.obj
 0001:00042400       _GLee_Lazy_glGetFragmentMaterialivSGIX@12 00443400 f   cinder:GLee.obj
 0001:00042430       _GLee_Lazy_glLightEnviSGIX@8 00443430 f   cinder:GLee.obj
 0001:00042460       _GLee_Lazy_glDrawRangeElementsEXT@24 00443460 f   cinder:GLee.obj
 0001:000424a0       _GLee_Lazy_glApplyTextureEXT@4 004434a0 f   cinder:GLee.obj
 0001:000424c0       _GLee_Lazy_glTextureLightEXT@4 004434c0 f   cinder:GLee.obj
 0001:000424e0       _GLee_Lazy_glTextureMaterialEXT@8 004434e0 f   cinder:GLee.obj
 0001:00042510       _GLee_Lazy_glAsyncMarkerSGIX@4 00443510 f   cinder:GLee.obj
 0001:00042530       _GLee_Lazy_glFinishAsyncSGIX@4 00443530 f   cinder:GLee.obj
 0001:00042560       _GLee_Lazy_glPollAsyncSGIX@4 00443560 f   cinder:GLee.obj
 0001:00042590       _GLee_Lazy_glGenAsyncMarkersSGIX@4 00443590 f   cinder:GLee.obj
 0001:000425c0       _GLee_Lazy_glDeleteAsyncMarkersSGIX@8 004435c0 f   cinder:GLee.obj
 0001:000425f0       _GLee_Lazy_glIsAsyncMarkerSGIX@4 004435f0 f   cinder:GLee.obj
 0001:00042620       _GLee_Lazy_glVertexPointervINTEL@12 00443620 f   cinder:GLee.obj
 0001:00042650       _GLee_Lazy_glNormalPointervINTEL@8 00443650 f   cinder:GLee.obj
 0001:00042680       _GLee_Lazy_glColorPointervINTEL@12 00443680 f   cinder:GLee.obj
 0001:000426b0       _GLee_Lazy_glTexCoordPointervINTEL@12 004436b0 f   cinder:GLee.obj
 0001:000426e0       _GLee_Lazy_glPixelTransformParameteriEXT@12 004436e0 f   cinder:GLee.obj
 0001:00042710       _GLee_Lazy_glPixelTransformParameterfEXT@12 00443710 f   cinder:GLee.obj
 0001:00042740       _GLee_Lazy_glPixelTransformParameterivEXT@12 00443740 f   cinder:GLee.obj
 0001:00042770       _GLee_Lazy_glPixelTransformParameterfvEXT@12 00443770 f   cinder:GLee.obj
 0001:000427a0       _GLee_Lazy_glSecondaryColor3bEXT@12 004437a0 f   cinder:GLee.obj
 0001:000427d0       _GLee_Lazy_glSecondaryColor3bvEXT@4 004437d0 f   cinder:GLee.obj
 0001:000427f0       _GLee_Lazy_glSecondaryColor3dEXT@24 004437f0 f   cinder:GLee.obj
 0001:00042830       _GLee_Lazy_glSecondaryColor3dvEXT@4 00443830 f   cinder:GLee.obj
 0001:00042850       _GLee_Lazy_glSecondaryColor3fEXT@12 00443850 f   cinder:GLee.obj
 0001:00042880       _GLee_Lazy_glSecondaryColor3fvEXT@4 00443880 f   cinder:GLee.obj
 0001:000428a0       _GLee_Lazy_glSecondaryColor3iEXT@12 004438a0 f   cinder:GLee.obj
 0001:000428d0       _GLee_Lazy_glSecondaryColor3ivEXT@4 004438d0 f   cinder:GLee.obj
 0001:000428f0       _GLee_Lazy_glSecondaryColor3sEXT@12 004438f0 f   cinder:GLee.obj
 0001:00042920       _GLee_Lazy_glSecondaryColor3svEXT@4 00443920 f   cinder:GLee.obj
 0001:00042940       _GLee_Lazy_glSecondaryColor3ubEXT@12 00443940 f   cinder:GLee.obj
 0001:00042970       _GLee_Lazy_glSecondaryColor3ubvEXT@4 00443970 f   cinder:GLee.obj
 0001:00042990       _GLee_Lazy_glSecondaryColor3uiEXT@12 00443990 f   cinder:GLee.obj
 0001:000429c0       _GLee_Lazy_glSecondaryColor3uivEXT@4 004439c0 f   cinder:GLee.obj
 0001:000429e0       _GLee_Lazy_glSecondaryColor3usEXT@12 004439e0 f   cinder:GLee.obj
 0001:00042a10       _GLee_Lazy_glSecondaryColor3usvEXT@4 00443a10 f   cinder:GLee.obj
 0001:00042a30       _GLee_Lazy_glSecondaryColorPointerEXT@16 00443a30 f   cinder:GLee.obj
 0001:00042a60       _GLee_Lazy_glTextureNormalEXT@4 00443a60 f   cinder:GLee.obj
 0001:00042a80       _GLee_Lazy_glMultiDrawArraysEXT@16 00443a80 f   cinder:GLee.obj
 0001:00042ab0       _GLee_Lazy_glMultiDrawElementsEXT@20 00443ab0 f   cinder:GLee.obj
 0001:00042ae0       _GLee_Lazy_glFogCoordfEXT@4 00443ae0 f   cinder:GLee.obj
 0001:00042b00       _GLee_Lazy_glFogCoordfvEXT@4 00443b00 f   cinder:GLee.obj
 0001:00042b20       _GLee_Lazy_glFogCoorddEXT@8 00443b20 f   cinder:GLee.obj
 0001:00042b50       _GLee_Lazy_glFogCoorddvEXT@4 00443b50 f   cinder:GLee.obj
 0001:00042b70       _GLee_Lazy_glFogCoordPointerEXT@12 00443b70 f   cinder:GLee.obj
 0001:00042ba0       _GLee_Lazy_glTangent3bEXT@12 00443ba0 f   cinder:GLee.obj
 0001:00042bd0       _GLee_Lazy_glTangent3bvEXT@4 00443bd0 f   cinder:GLee.obj
 0001:00042bf0       _GLee_Lazy_glTangent3dEXT@24 00443bf0 f   cinder:GLee.obj
 0001:00042c30       _GLee_Lazy_glTangent3dvEXT@4 00443c30 f   cinder:GLee.obj
 0001:00042c50       _GLee_Lazy_glTangent3fEXT@12 00443c50 f   cinder:GLee.obj
 0001:00042c80       _GLee_Lazy_glTangent3fvEXT@4 00443c80 f   cinder:GLee.obj
 0001:00042ca0       _GLee_Lazy_glTangent3iEXT@12 00443ca0 f   cinder:GLee.obj
 0001:00042cd0       _GLee_Lazy_glTangent3ivEXT@4 00443cd0 f   cinder:GLee.obj
 0001:00042cf0       _GLee_Lazy_glTangent3sEXT@12 00443cf0 f   cinder:GLee.obj
 0001:00042d20       _GLee_Lazy_glTangent3svEXT@4 00443d20 f   cinder:GLee.obj
 0001:00042d40       _GLee_Lazy_glBinormal3bEXT@12 00443d40 f   cinder:GLee.obj
 0001:00042d70       _GLee_Lazy_glBinormal3bvEXT@4 00443d70 f   cinder:GLee.obj
 0001:00042d90       _GLee_Lazy_glBinormal3dEXT@24 00443d90 f   cinder:GLee.obj
 0001:00042dd0       _GLee_Lazy_glBinormal3dvEXT@4 00443dd0 f   cinder:GLee.obj
 0001:00042df0       _GLee_Lazy_glBinormal3fEXT@12 00443df0 f   cinder:GLee.obj
 0001:00042e20       _GLee_Lazy_glBinormal3fvEXT@4 00443e20 f   cinder:GLee.obj
 0001:00042e40       _GLee_Lazy_glBinormal3iEXT@12 00443e40 f   cinder:GLee.obj
 0001:00042e70       _GLee_Lazy_glBinormal3ivEXT@4 00443e70 f   cinder:GLee.obj
 0001:00042e90       _GLee_Lazy_glBinormal3sEXT@12 00443e90 f   cinder:GLee.obj
 0001:00042ec0       _GLee_Lazy_glBinormal3svEXT@4 00443ec0 f   cinder:GLee.obj
 0001:00042ee0       _GLee_Lazy_glTangentPointerEXT@12 00443ee0 f   cinder:GLee.obj
 0001:00042f10       _GLee_Lazy_glBinormalPointerEXT@12 00443f10 f   cinder:GLee.obj
 0001:00042f40       _GLee_Lazy_glFinishTextureSUNX@0 00443f40 f   cinder:GLee.obj
 0001:00042f60       _GLee_Lazy_glGlobalAlphaFactorbSUN@4 00443f60 f   cinder:GLee.obj
 0001:00042f80       _GLee_Lazy_glGlobalAlphaFactorsSUN@4 00443f80 f   cinder:GLee.obj
 0001:00042fa0       _GLee_Lazy_glGlobalAlphaFactoriSUN@4 00443fa0 f   cinder:GLee.obj
 0001:00042fc0       _GLee_Lazy_glGlobalAlphaFactorfSUN@4 00443fc0 f   cinder:GLee.obj
 0001:00042fe0       _GLee_Lazy_glGlobalAlphaFactordSUN@8 00443fe0 f   cinder:GLee.obj
 0001:00043010       _GLee_Lazy_glGlobalAlphaFactorubSUN@4 00444010 f   cinder:GLee.obj
 0001:00043030       _GLee_Lazy_glGlobalAlphaFactorusSUN@4 00444030 f   cinder:GLee.obj
 0001:00043050       _GLee_Lazy_glGlobalAlphaFactoruiSUN@4 00444050 f   cinder:GLee.obj
 0001:00043070       _GLee_Lazy_glReplacementCodeuiSUN@4 00444070 f   cinder:GLee.obj
 0001:00043090       _GLee_Lazy_glReplacementCodeusSUN@4 00444090 f   cinder:GLee.obj
 0001:000430b0       _GLee_Lazy_glReplacementCodeubSUN@4 004440b0 f   cinder:GLee.obj
 0001:000430d0       _GLee_Lazy_glReplacementCodeuivSUN@4 004440d0 f   cinder:GLee.obj
 0001:000430f0       _GLee_Lazy_glReplacementCodeusvSUN@4 004440f0 f   cinder:GLee.obj
 0001:00043110       _GLee_Lazy_glReplacementCodeubvSUN@4 00444110 f   cinder:GLee.obj
 0001:00043130       _GLee_Lazy_glReplacementCodePointerSUN@12 00444130 f   cinder:GLee.obj
 0001:00043160       _GLee_Lazy_glColor4ubVertex2fSUN@24 00444160 f   cinder:GLee.obj
 0001:000431a0       _GLee_Lazy_glColor4ubVertex2fvSUN@8 004441a0 f   cinder:GLee.obj
 0001:000431d0       _GLee_Lazy_glColor4ubVertex3fSUN@28 004441d0 f   cinder:GLee.obj
 0001:00043220       _GLee_Lazy_glColor4ubVertex3fvSUN@8 00444220 f   cinder:GLee.obj
 0001:00043250       _GLee_Lazy_glColor3fVertex3fSUN@24 00444250 f   cinder:GLee.obj
 0001:000432a0       _GLee_Lazy_glColor3fVertex3fvSUN@8 004442a0 f   cinder:GLee.obj
 0001:000432d0       _GLee_Lazy_glNormal3fVertex3fSUN@24 004442d0 f   cinder:GLee.obj
 0001:00043320       _GLee_Lazy_glNormal3fVertex3fvSUN@8 00444320 f   cinder:GLee.obj
 0001:00043350       _GLee_Lazy_glColor4fNormal3fVertex3fSUN@40 00444350 f   cinder:GLee.obj
 0001:000433b0       _GLee_Lazy_glColor4fNormal3fVertex3fvSUN@12 004443b0 f   cinder:GLee.obj
 0001:000433e0       _GLee_Lazy_glTexCoord2fVertex3fSUN@20 004443e0 f   cinder:GLee.obj
 0001:00043420       _GLee_Lazy_glTexCoord2fVertex3fvSUN@8 00444420 f   cinder:GLee.obj
 0001:00043450       _GLee_Lazy_glTexCoord4fVertex4fSUN@32 00444450 f   cinder:GLee.obj
 0001:000434b0       _GLee_Lazy_glTexCoord4fVertex4fvSUN@8 004444b0 f   cinder:GLee.obj
 0001:000434e0       _GLee_Lazy_glTexCoord2fColor4ubVertex3fSUN@36 004444e0 f   cinder:GLee.obj
 0001:00043530       _GLee_Lazy_glTexCoord2fColor4ubVertex3fvSUN@12 00444530 f   cinder:GLee.obj
 0001:00043560       _GLee_Lazy_glTexCoord2fColor3fVertex3fSUN@32 00444560 f   cinder:GLee.obj
 0001:000435c0       _GLee_Lazy_glTexCoord2fColor3fVertex3fvSUN@12 004445c0 f   cinder:GLee.obj
 0001:000435f0       _GLee_Lazy_glTexCoord2fNormal3fVertex3fSUN@32 004445f0 f   cinder:GLee.obj
 0001:00043650       _GLee_Lazy_glTexCoord2fNormal3fVertex3fvSUN@12 00444650 f   cinder:GLee.obj
 0001:00043680       _GLee_Lazy_glTexCoord2fColor4fNormal3fVertex3fSUN@48 00444680 f   cinder:GLee.obj
 0001:000436f0       _GLee_Lazy_glTexCoord2fColor4fNormal3fVertex3fvSUN@16 004446f0 f   cinder:GLee.obj
 0001:00043720       _GLee_Lazy_glTexCoord4fColor4fNormal3fVertex4fSUN@60 00444720 f   cinder:GLee.obj
 0001:000437b0       _GLee_Lazy_glTexCoord4fColor4fNormal3fVertex4fvSUN@16 004447b0 f   cinder:GLee.obj
 0001:000437e0       _GLee_Lazy_glReplacementCodeuiVertex3fSUN@16 004447e0 f   cinder:GLee.obj
 0001:00043820       _GLee_Lazy_glReplacementCodeuiVertex3fvSUN@8 00444820 f   cinder:GLee.obj
 0001:00043850       _GLee_Lazy_glReplacementCodeuiColor4ubVertex3fSUN@32 00444850 f   cinder:GLee.obj
 0001:000438a0       _GLee_Lazy_glReplacementCodeuiColor4ubVertex3fvSUN@12 004448a0 f   cinder:GLee.obj
 0001:000438d0       _GLee_Lazy_glReplacementCodeuiColor3fVertex3fSUN@28 004448d0 f   cinder:GLee.obj
 0001:00043920       _GLee_Lazy_glReplacementCodeuiColor3fVertex3fvSUN@12 00444920 f   cinder:GLee.obj
 0001:00043950       _GLee_Lazy_glReplacementCodeuiNormal3fVertex3fSUN@28 00444950 f   cinder:GLee.obj
 0001:000439a0       _GLee_Lazy_glReplacementCodeuiNormal3fVertex3fvSUN@12 004449a0 f   cinder:GLee.obj
 0001:000439d0       _GLee_Lazy_glReplacementCodeuiColor4fNormal3fVertex3fSUN@44 004449d0 f   cinder:GLee.obj
 0001:00043a40       _GLee_Lazy_glReplacementCodeuiColor4fNormal3fVertex3fvSUN@16 00444a40 f   cinder:GLee.obj
 0001:00043a70       _GLee_Lazy_glReplacementCodeuiTexCoord2fVertex3fSUN@24 00444a70 f   cinder:GLee.obj
 0001:00043ab0       _GLee_Lazy_glReplacementCodeuiTexCoord2fVertex3fvSUN@12 00444ab0 f   cinder:GLee.obj
 0001:00043ae0       _GLee_Lazy_glReplacementCodeuiTexCoord2fNormal3fVertex3fSUN@36 00444ae0 f   cinder:GLee.obj
 0001:00043b40       _GLee_Lazy_glReplacementCodeuiTexCoord2fNormal3fVertex3fvSUN@16 00444b40 f   cinder:GLee.obj
 0001:00043b70       _GLee_Lazy_glReplacementCodeuiTexCoord2fColor4fNormal3fVertex3fSUN@52 00444b70 f   cinder:GLee.obj
 0001:00043bf0       _GLee_Lazy_glReplacementCodeuiTexCoord2fColor4fNormal3fVertex3fvSUN@20 00444bf0 f   cinder:GLee.obj
 0001:00043c20       _GLee_Lazy_glBlendFuncSeparateEXT@16 00444c20 f   cinder:GLee.obj
 0001:00043c50       _GLee_Lazy_glVertexWeightfEXT@4 00444c50 f   cinder:GLee.obj
 0001:00043c70       _GLee_Lazy_glVertexWeightfvEXT@4 00444c70 f   cinder:GLee.obj
 0001:00043c90       _GLee_Lazy_glVertexWeightPointerEXT@16 00444c90 f   cinder:GLee.obj
 0001:00043cc0       _GLee_Lazy_glFlushVertexArrayRangeNV@0 00444cc0 f   cinder:GLee.obj
 0001:00043ce0       _GLee_Lazy_glVertexArrayRangeNV@8 00444ce0 f   cinder:GLee.obj
 0001:00043d10       _GLee_Lazy_glCombinerParameterfvNV@8 00444d10 f   cinder:GLee.obj
 0001:00043d40       _GLee_Lazy_glCombinerParameterfNV@8 00444d40 f   cinder:GLee.obj
 0001:00043d70       _GLee_Lazy_glCombinerParameterivNV@8 00444d70 f   cinder:GLee.obj
 0001:00043da0       _GLee_Lazy_glCombinerParameteriNV@8 00444da0 f   cinder:GLee.obj
 0001:00043dd0       _GLee_Lazy_glCombinerInputNV@24 00444dd0 f   cinder:GLee.obj
 0001:00043e10       _GLee_Lazy_glCombinerOutputNV@40 00444e10 f   cinder:GLee.obj
 0001:00043e60       _GLee_Lazy_glFinalCombinerInputNV@16 00444e60 f   cinder:GLee.obj
 0001:00043e90       _GLee_Lazy_glGetCombinerInputParameterfvNV@20 00444e90 f   cinder:GLee.obj
 0001:00043ec0       _GLee_Lazy_glGetCombinerInputParameterivNV@20 00444ec0 f   cinder:GLee.obj
 0001:00043ef0       _GLee_Lazy_glGetCombinerOutputParameterfvNV@16 00444ef0 f   cinder:GLee.obj
 0001:00043f20       _GLee_Lazy_glGetCombinerOutputParameterivNV@16 00444f20 f   cinder:GLee.obj
 0001:00043f50       _GLee_Lazy_glGetFinalCombinerInputParameterfvNV@12 00444f50 f   cinder:GLee.obj
 0001:00043f80       _GLee_Lazy_glGetFinalCombinerInputParameterivNV@12 00444f80 f   cinder:GLee.obj
 0001:00043fb0       _GLee_Lazy_glResizeBuffersMESA@0 00444fb0 f   cinder:GLee.obj
 0001:00043fd0       _GLee_Lazy_glWindowPos2dMESA@16 00444fd0 f   cinder:GLee.obj
 0001:00044000       _GLee_Lazy_glWindowPos2dvMESA@4 00445000 f   cinder:GLee.obj
 0001:00044020       _GLee_Lazy_glWindowPos2fMESA@8 00445020 f   cinder:GLee.obj
 0001:00044050       _GLee_Lazy_glWindowPos2fvMESA@4 00445050 f   cinder:GLee.obj
 0001:00044070       _GLee_Lazy_glWindowPos2iMESA@8 00445070 f   cinder:GLee.obj
 0001:000440a0       _GLee_Lazy_glWindowPos2ivMESA@4 004450a0 f   cinder:GLee.obj
 0001:000440c0       _GLee_Lazy_glWindowPos2sMESA@8 004450c0 f   cinder:GLee.obj
 0001:000440f0       _GLee_Lazy_glWindowPos2svMESA@4 004450f0 f   cinder:GLee.obj
 0001:00044110       _GLee_Lazy_glWindowPos3dMESA@24 00445110 f   cinder:GLee.obj
 0001:00044150       _GLee_Lazy_glWindowPos3dvMESA@4 00445150 f   cinder:GLee.obj
 0001:00044170       _GLee_Lazy_glWindowPos3fMESA@12 00445170 f   cinder:GLee.obj
 0001:000441a0       _GLee_Lazy_glWindowPos3fvMESA@4 004451a0 f   cinder:GLee.obj
 0001:000441c0       _GLee_Lazy_glWindowPos3iMESA@12 004451c0 f   cinder:GLee.obj
 0001:000441f0       _GLee_Lazy_glWindowPos3ivMESA@4 004451f0 f   cinder:GLee.obj
 0001:00044210       _GLee_Lazy_glWindowPos3sMESA@12 00445210 f   cinder:GLee.obj
 0001:00044240       _GLee_Lazy_glWindowPos3svMESA@4 00445240 f   cinder:GLee.obj
 0001:00044260       _GLee_Lazy_glWindowPos4dMESA@32 00445260 f   cinder:GLee.obj
 0001:000442a0       _GLee_Lazy_glWindowPos4dvMESA@4 004452a0 f   cinder:GLee.obj
 0001:000442c0       _GLee_Lazy_glWindowPos4fMESA@16 004452c0 f   cinder:GLee.obj
 0001:00044300       _GLee_Lazy_glWindowPos4fvMESA@4 00445300 f   cinder:GLee.obj
 0001:00044320       _GLee_Lazy_glWindowPos4iMESA@16 00445320 f   cinder:GLee.obj
 0001:00044350       _GLee_Lazy_glWindowPos4ivMESA@4 00445350 f   cinder:GLee.obj
 0001:00044370       _GLee_Lazy_glWindowPos4sMESA@16 00445370 f   cinder:GLee.obj
 0001:000443a0       _GLee_Lazy_glWindowPos4svMESA@4 004453a0 f   cinder:GLee.obj
 0001:000443c0       _GLee_Lazy_glMultiModeDrawArraysIBM@20 004453c0 f   cinder:GLee.obj
 0001:000443f0       _GLee_Lazy_glMultiModeDrawElementsIBM@24 004453f0 f   cinder:GLee.obj
 0001:00044430       _GLee_Lazy_glColorPointerListIBM@20 00445430 f   cinder:GLee.obj
 0001:00044460       _GLee_Lazy_glSecondaryColorPointerListIBM@20 00445460 f   cinder:GLee.obj
 0001:00044490       _GLee_Lazy_glEdgeFlagPointerListIBM@12 00445490 f   cinder:GLee.obj
 0001:000444c0       _GLee_Lazy_glFogCoordPointerListIBM@16 004454c0 f   cinder:GLee.obj
 0001:000444f0       _GLee_Lazy_glIndexPointerListIBM@16 004454f0 f   cinder:GLee.obj
 0001:00044520       _GLee_Lazy_glNormalPointerListIBM@16 00445520 f   cinder:GLee.obj
 0001:00044550       _GLee_Lazy_glTexCoordPointerListIBM@20 00445550 f   cinder:GLee.obj
 0001:00044580       _GLee_Lazy_glVertexPointerListIBM@20 00445580 f   cinder:GLee.obj
 0001:000445b0       _GLee_Lazy_glTbufferMask3DFX@4 004455b0 f   cinder:GLee.obj
 0001:000445d0       _GLee_Lazy_glSampleMaskEXT@8 004455d0 f   cinder:GLee.obj
 0001:00044600       _GLee_Lazy_glSamplePatternEXT@4 00445600 f   cinder:GLee.obj
 0001:00044620       _GLee_Lazy_glTextureColorMaskSGIS@16 00445620 f   cinder:GLee.obj
 0001:00044650       _GLee_Lazy_glDeleteFencesNV@8 00445650 f   cinder:GLee.obj
 0001:00044680       _GLee_Lazy_glGenFencesNV@8 00445680 f   cinder:GLee.obj
 0001:000446b0       _GLee_Lazy_glIsFenceNV@4   004456b0 f   cinder:GLee.obj
 0001:000446e0       _GLee_Lazy_glTestFenceNV@4 004456e0 f   cinder:GLee.obj
 0001:00044710       _GLee_Lazy_glGetFenceivNV@12 00445710 f   cinder:GLee.obj
 0001:00044740       _GLee_Lazy_glFinishFenceNV@4 00445740 f   cinder:GLee.obj
 0001:00044760       _GLee_Lazy_glSetFenceNV@8  00445760 f   cinder:GLee.obj
 0001:00044790       _GLee_Lazy_glMapControlPointsNV@36 00445790 f   cinder:GLee.obj
 0001:000447d0       _GLee_Lazy_glMapParameterivNV@12 004457d0 f   cinder:GLee.obj
 0001:00044800       _GLee_Lazy_glMapParameterfvNV@12 00445800 f   cinder:GLee.obj
 0001:00044830       _GLee_Lazy_glGetMapControlPointsNV@28 00445830 f   cinder:GLee.obj
 0001:00044870       _GLee_Lazy_glGetMapParameterivNV@12 00445870 f   cinder:GLee.obj
 0001:000448a0       _GLee_Lazy_glGetMapParameterfvNV@12 004458a0 f   cinder:GLee.obj
 0001:000448d0       _GLee_Lazy_glGetMapAttribParameterivNV@16 004458d0 f   cinder:GLee.obj
 0001:00044900       _GLee_Lazy_glGetMapAttribParameterfvNV@16 00445900 f   cinder:GLee.obj
 0001:00044930       _GLee_Lazy_glEvalMapsNV@8  00445930 f   cinder:GLee.obj
 0001:00044960       _GLee_Lazy_glCombinerStageParameterfvNV@12 00445960 f   cinder:GLee.obj
 0001:00044990       _GLee_Lazy_glGetCombinerStageParameterfvNV@12 00445990 f   cinder:GLee.obj
 0001:000449c0       _GLee_Lazy_glAreProgramsResidentNV@12 004459c0 f   cinder:GLee.obj
 0001:000449f0       _GLee_Lazy_glBindProgramNV@8 004459f0 f   cinder:GLee.obj
 0001:00044a20       _GLee_Lazy_glDeleteProgramsNV@8 00445a20 f   cinder:GLee.obj
 0001:00044a50       _GLee_Lazy_glExecuteProgramNV@12 00445a50 f   cinder:GLee.obj
 0001:00044a80       _GLee_Lazy_glGenProgramsNV@8 00445a80 f   cinder:GLee.obj
 0001:00044ab0       _GLee_Lazy_glGetProgramParameterdvNV@16 00445ab0 f   cinder:GLee.obj
 0001:00044ae0       _GLee_Lazy_glGetProgramParameterfvNV@16 00445ae0 f   cinder:GLee.obj
 0001:00044b10       _GLee_Lazy_glGetProgramivNV@12 00445b10 f   cinder:GLee.obj
 0001:00044b40       _GLee_Lazy_glGetProgramStringNV@12 00445b40 f   cinder:GLee.obj
 0001:00044b70       _GLee_Lazy_glGetTrackMatrixivNV@16 00445b70 f   cinder:GLee.obj
 0001:00044ba0       _GLee_Lazy_glGetVertexAttribdvNV@12 00445ba0 f   cinder:GLee.obj
 0001:00044bd0       _GLee_Lazy_glGetVertexAttribfvNV@12 00445bd0 f   cinder:GLee.obj
 0001:00044c00       _GLee_Lazy_glGetVertexAttribivNV@12 00445c00 f   cinder:GLee.obj
 0001:00044c30       _GLee_Lazy_glGetVertexAttribPointervNV@12 00445c30 f   cinder:GLee.obj
 0001:00044c60       _GLee_Lazy_glIsProgramNV@4 00445c60 f   cinder:GLee.obj
 0001:00044c90       _GLee_Lazy_glLoadProgramNV@16 00445c90 f   cinder:GLee.obj
 0001:00044cc0       _GLee_Lazy_glProgramParameter4dNV@40 00445cc0 f   cinder:GLee.obj
 0001:00044d10       _GLee_Lazy_glProgramParameter4dvNV@12 00445d10 f   cinder:GLee.obj
 0001:00044d40       _GLee_Lazy_glProgramParameter4fNV@24 00445d40 f   cinder:GLee.obj
 0001:00044d80       _GLee_Lazy_glProgramParameter4fvNV@12 00445d80 f   cinder:GLee.obj
 0001:00044db0       _GLee_Lazy_glProgramParameters4dvNV@16 00445db0 f   cinder:GLee.obj
 0001:00044de0       _GLee_Lazy_glProgramParameters4fvNV@16 00445de0 f   cinder:GLee.obj
 0001:00044e10       _GLee_Lazy_glRequestResidentProgramsNV@8 00445e10 f   cinder:GLee.obj
 0001:00044e40       _GLee_Lazy_glTrackMatrixNV@16 00445e40 f   cinder:GLee.obj
 0001:00044e70       _GLee_Lazy_glVertexAttribPointerNV@20 00445e70 f   cinder:GLee.obj
 0001:00044ea0       _GLee_Lazy_glVertexAttrib1dNV@12 00445ea0 f   cinder:GLee.obj
 0001:00044ed0       _GLee_Lazy_glVertexAttrib1dvNV@8 00445ed0 f   cinder:GLee.obj
 0001:00044f00       _GLee_Lazy_glVertexAttrib1fNV@8 00445f00 f   cinder:GLee.obj
 0001:00044f30       _GLee_Lazy_glVertexAttrib1fvNV@8 00445f30 f   cinder:GLee.obj
 0001:00044f60       _GLee_Lazy_glVertexAttrib1sNV@8 00445f60 f   cinder:GLee.obj
 0001:00044f90       _GLee_Lazy_glVertexAttrib1svNV@8 00445f90 f   cinder:GLee.obj
 0001:00044fc0       _GLee_Lazy_glVertexAttrib2dNV@20 00445fc0 f   cinder:GLee.obj
 0001:00044ff0       _GLee_Lazy_glVertexAttrib2dvNV@8 00445ff0 f   cinder:GLee.obj
 0001:00045020       _GLee_Lazy_glVertexAttrib2fNV@12 00446020 f   cinder:GLee.obj
 0001:00045050       _GLee_Lazy_glVertexAttrib2fvNV@8 00446050 f   cinder:GLee.obj
 0001:00045080       _GLee_Lazy_glVertexAttrib2sNV@12 00446080 f   cinder:GLee.obj
 0001:000450b0       _GLee_Lazy_glVertexAttrib2svNV@8 004460b0 f   cinder:GLee.obj
 0001:000450e0       _GLee_Lazy_glVertexAttrib3dNV@28 004460e0 f   cinder:GLee.obj
 0001:00045120       _GLee_Lazy_glVertexAttrib3dvNV@8 00446120 f   cinder:GLee.obj
 0001:00045150       _GLee_Lazy_glVertexAttrib3fNV@16 00446150 f   cinder:GLee.obj
 0001:00045190       _GLee_Lazy_glVertexAttrib3fvNV@8 00446190 f   cinder:GLee.obj
 0001:000451c0       _GLee_Lazy_glVertexAttrib3sNV@16 004461c0 f   cinder:GLee.obj
 0001:000451f0       _GLee_Lazy_glVertexAttrib3svNV@8 004461f0 f   cinder:GLee.obj
 0001:00045220       _GLee_Lazy_glVertexAttrib4dNV@36 00446220 f   cinder:GLee.obj
 0001:00045270       _GLee_Lazy_glVertexAttrib4dvNV@8 00446270 f   cinder:GLee.obj
 0001:000452a0       _GLee_Lazy_glVertexAttrib4fNV@20 004462a0 f   cinder:GLee.obj
 0001:000452e0       _GLee_Lazy_glVertexAttrib4fvNV@8 004462e0 f   cinder:GLee.obj
 0001:00045310       _GLee_Lazy_glVertexAttrib4sNV@20 00446310 f   cinder:GLee.obj
 0001:00045350       _GLee_Lazy_glVertexAttrib4svNV@8 00446350 f   cinder:GLee.obj
 0001:00045380       _GLee_Lazy_glVertexAttrib4ubNV@20 00446380 f   cinder:GLee.obj
 0001:000453c0       _GLee_Lazy_glVertexAttrib4ubvNV@8 004463c0 f   cinder:GLee.obj
 0001:000453f0       _GLee_Lazy_glVertexAttribs1dvNV@12 004463f0 f   cinder:GLee.obj
 0001:00045420       _GLee_Lazy_glVertexAttribs1fvNV@12 00446420 f   cinder:GLee.obj
 0001:00045450       _GLee_Lazy_glVertexAttribs1svNV@12 00446450 f   cinder:GLee.obj
 0001:00045480       _GLee_Lazy_glVertexAttribs2dvNV@12 00446480 f   cinder:GLee.obj
 0001:000454b0       _GLee_Lazy_glVertexAttribs2fvNV@12 004464b0 f   cinder:GLee.obj
 0001:000454e0       _GLee_Lazy_glVertexAttribs2svNV@12 004464e0 f   cinder:GLee.obj
 0001:00045510       _GLee_Lazy_glVertexAttribs3dvNV@12 00446510 f   cinder:GLee.obj
 0001:00045540       _GLee_Lazy_glVertexAttribs3fvNV@12 00446540 f   cinder:GLee.obj
 0001:00045570       _GLee_Lazy_glVertexAttribs3svNV@12 00446570 f   cinder:GLee.obj
 0001:000455a0       _GLee_Lazy_glVertexAttribs4dvNV@12 004465a0 f   cinder:GLee.obj
 0001:000455d0       _GLee_Lazy_glVertexAttribs4fvNV@12 004465d0 f   cinder:GLee.obj
 0001:00045600       _GLee_Lazy_glVertexAttribs4svNV@12 00446600 f   cinder:GLee.obj
 0001:00045630       _GLee_Lazy_glVertexAttribs4ubvNV@12 00446630 f   cinder:GLee.obj
 0001:00045660       _GLee_Lazy_glTexBumpParameterivATI@8 00446660 f   cinder:GLee.obj
 0001:00045690       _GLee_Lazy_glTexBumpParameterfvATI@8 00446690 f   cinder:GLee.obj
 0001:000456c0       _GLee_Lazy_glGetTexBumpParameterivATI@8 004466c0 f   cinder:GLee.obj
 0001:000456f0       _GLee_Lazy_glGetTexBumpParameterfvATI@8 004466f0 f   cinder:GLee.obj
 0001:00045720       _GLee_Lazy_glGenFragmentShadersATI@4 00446720 f   cinder:GLee.obj
 0001:00045750       _GLee_Lazy_glBindFragmentShaderATI@4 00446750 f   cinder:GLee.obj
 0001:00045770       _GLee_Lazy_glDeleteFragmentShaderATI@4 00446770 f   cinder:GLee.obj
 0001:00045790       _GLee_Lazy_glBeginFragmentShaderATI@0 00446790 f   cinder:GLee.obj
 0001:000457b0       _GLee_Lazy_glEndFragmentShaderATI@0 004467b0 f   cinder:GLee.obj
 0001:000457d0       _GLee_Lazy_glPassTexCoordATI@12 004467d0 f   cinder:GLee.obj
 0001:00045800       _GLee_Lazy_glSampleMapATI@12 00446800 f   cinder:GLee.obj
 0001:00045830       _GLee_Lazy_glColorFragmentOp1ATI@28 00446830 f   cinder:GLee.obj
 0001:00045870       _GLee_Lazy_glColorFragmentOp2ATI@40 00446870 f   cinder:GLee.obj
 0001:000458c0       _GLee_Lazy_glColorFragmentOp3ATI@52 004468c0 f   cinder:GLee.obj
 0001:00045910       _GLee_Lazy_glAlphaFragmentOp1ATI@24 00446910 f   cinder:GLee.obj
 0001:00045950       _GLee_Lazy_glAlphaFragmentOp2ATI@36 00446950 f   cinder:GLee.obj
 0001:00045990       _GLee_Lazy_glAlphaFragmentOp3ATI@48 00446990 f   cinder:GLee.obj
 0001:000459e0       _GLee_Lazy_glSetFragmentShaderConstantATI@8 004469e0 f   cinder:GLee.obj
 0001:00045a10       _GLee_Lazy_glPNTrianglesiATI@8 00446a10 f   cinder:GLee.obj
 0001:00045a40       _GLee_Lazy_glPNTrianglesfATI@8 00446a40 f   cinder:GLee.obj
 0001:00045a70       _GLee_Lazy_glNewObjectBufferATI@12 00446a70 f   cinder:GLee.obj
 0001:00045aa0       _GLee_Lazy_glIsObjectBufferATI@4 00446aa0 f   cinder:GLee.obj
 0001:00045ad0       _GLee_Lazy_glUpdateObjectBufferATI@20 00446ad0 f   cinder:GLee.obj
 0001:00045b00       _GLee_Lazy_glGetObjectBufferfvATI@12 00446b00 f   cinder:GLee.obj
 0001:00045b30       _GLee_Lazy_glGetObjectBufferivATI@12 00446b30 f   cinder:GLee.obj
 0001:00045b60       _GLee_Lazy_glFreeObjectBufferATI@4 00446b60 f   cinder:GLee.obj
 0001:00045b80       _GLee_Lazy_glArrayObjectATI@24 00446b80 f   cinder:GLee.obj
 0001:00045bc0       _GLee_Lazy_glGetArrayObjectfvATI@12 00446bc0 f   cinder:GLee.obj
 0001:00045bf0       _GLee_Lazy_glGetArrayObjectivATI@12 00446bf0 f   cinder:GLee.obj
 0001:00045c20       _GLee_Lazy_glVariantArrayObjectATI@20 00446c20 f   cinder:GLee.obj
 0001:00045c50       _GLee_Lazy_glGetVariantArrayObjectfvATI@12 00446c50 f   cinder:GLee.obj
 0001:00045c80       _GLee_Lazy_glGetVariantArrayObjectivATI@12 00446c80 f   cinder:GLee.obj
 0001:00045cb0       _GLee_Lazy_glBeginVertexShaderEXT@0 00446cb0 f   cinder:GLee.obj
 0001:00045cd0       _GLee_Lazy_glEndVertexShaderEXT@0 00446cd0 f   cinder:GLee.obj
 0001:00045cf0       _GLee_Lazy_glBindVertexShaderEXT@4 00446cf0 f   cinder:GLee.obj
 0001:00045d10       _GLee_Lazy_glGenVertexShadersEXT@4 00446d10 f   cinder:GLee.obj
 0001:00045d40       _GLee_Lazy_glDeleteVertexShaderEXT@4 00446d40 f   cinder:GLee.obj
 0001:00045d60       _GLee_Lazy_glShaderOp1EXT@12 00446d60 f   cinder:GLee.obj
 0001:00045d90       _GLee_Lazy_glShaderOp2EXT@16 00446d90 f   cinder:GLee.obj
 0001:00045dc0       _GLee_Lazy_glShaderOp3EXT@20 00446dc0 f   cinder:GLee.obj
 0001:00045df0       _GLee_Lazy_glSwizzleEXT@24 00446df0 f   cinder:GLee.obj
 0001:00045e30       _GLee_Lazy_glWriteMaskEXT@24 00446e30 f   cinder:GLee.obj
 0001:00045e70       _GLee_Lazy_glInsertComponentEXT@12 00446e70 f   cinder:GLee.obj
 0001:00045ea0       _GLee_Lazy_glExtractComponentEXT@12 00446ea0 f   cinder:GLee.obj
 0001:00045ed0       _GLee_Lazy_glGenSymbolsEXT@16 00446ed0 f   cinder:GLee.obj
 0001:00045f00       _GLee_Lazy_glSetInvariantEXT@12 00446f00 f   cinder:GLee.obj
 0001:00045f30       _GLee_Lazy_glSetLocalConstantEXT@12 00446f30 f   cinder:GLee.obj
 0001:00045f60       _GLee_Lazy_glVariantbvEXT@8 00446f60 f   cinder:GLee.obj
 0001:00045f90       _GLee_Lazy_glVariantsvEXT@8 00446f90 f   cinder:GLee.obj
 0001:00045fc0       _GLee_Lazy_glVariantivEXT@8 00446fc0 f   cinder:GLee.obj
 0001:00045ff0       _GLee_Lazy_glVariantfvEXT@8 00446ff0 f   cinder:GLee.obj
 0001:00046020       _GLee_Lazy_glVariantdvEXT@8 00447020 f   cinder:GLee.obj
 0001:00046050       _GLee_Lazy_glVariantubvEXT@8 00447050 f   cinder:GLee.obj
 0001:00046080       _GLee_Lazy_glVariantusvEXT@8 00447080 f   cinder:GLee.obj
 0001:000460b0       _GLee_Lazy_glVariantuivEXT@8 004470b0 f   cinder:GLee.obj
 0001:000460e0       _GLee_Lazy_glVariantPointerEXT@16 004470e0 f   cinder:GLee.obj
 0001:00046110       _GLee_Lazy_glEnableVariantClientStateEXT@4 00447110 f   cinder:GLee.obj
 0001:00046130       _GLee_Lazy_glDisableVariantClientStateEXT@4 00447130 f   cinder:GLee.obj
 0001:00046150       _GLee_Lazy_glBindLightParameterEXT@8 00447150 f   cinder:GLee.obj
 0001:00046180       _GLee_Lazy_glBindMaterialParameterEXT@8 00447180 f   cinder:GLee.obj
 0001:000461b0       _GLee_Lazy_glBindTexGenParameterEXT@12 004471b0 f   cinder:GLee.obj
 0001:000461e0       _GLee_Lazy_glBindTextureUnitParameterEXT@8 004471e0 f   cinder:GLee.obj
 0001:00046210       _GLee_Lazy_glBindParameterEXT@4 00447210 f   cinder:GLee.obj
 0001:00046240       _GLee_Lazy_glIsVariantEnabledEXT@8 00447240 f   cinder:GLee.obj
 0001:00046270       _GLee_Lazy_glGetVariantBooleanvEXT@12 00447270 f   cinder:GLee.obj
 0001:000462a0       _GLee_Lazy_glGetVariantIntegervEXT@12 004472a0 f   cinder:GLee.obj
 0001:000462d0       _GLee_Lazy_glGetVariantFloatvEXT@12 004472d0 f   cinder:GLee.obj
 0001:00046300       _GLee_Lazy_glGetVariantPointervEXT@12 00447300 f   cinder:GLee.obj
 0001:00046330       _GLee_Lazy_glGetInvariantBooleanvEXT@12 00447330 f   cinder:GLee.obj
 0001:00046360       _GLee_Lazy_glGetInvariantIntegervEXT@12 00447360 f   cinder:GLee.obj
 0001:00046390       _GLee_Lazy_glGetInvariantFloatvEXT@12 00447390 f   cinder:GLee.obj
 0001:000463c0       _GLee_Lazy_glGetLocalConstantBooleanvEXT@12 004473c0 f   cinder:GLee.obj
 0001:000463f0       _GLee_Lazy_glGetLocalConstantIntegervEXT@12 004473f0 f   cinder:GLee.obj
 0001:00046420       _GLee_Lazy_glGetLocalConstantFloatvEXT@12 00447420 f   cinder:GLee.obj
 0001:00046450       _GLee_Lazy_glVertexStream1sATI@8 00447450 f   cinder:GLee.obj
 0001:00046480       _GLee_Lazy_glVertexStream1svATI@8 00447480 f   cinder:GLee.obj
 0001:000464b0       _GLee_Lazy_glVertexStream1iATI@8 004474b0 f   cinder:GLee.obj
 0001:000464e0       _GLee_Lazy_glVertexStream1ivATI@8 004474e0 f   cinder:GLee.obj
 0001:00046510       _GLee_Lazy_glVertexStream1fATI@8 00447510 f   cinder:GLee.obj
 0001:00046540       _GLee_Lazy_glVertexStream1fvATI@8 00447540 f   cinder:GLee.obj
 0001:00046570       _GLee_Lazy_glVertexStream1dATI@12 00447570 f   cinder:GLee.obj
 0001:000465a0       _GLee_Lazy_glVertexStream1dvATI@8 004475a0 f   cinder:GLee.obj
 0001:000465d0       _GLee_Lazy_glVertexStream2sATI@12 004475d0 f   cinder:GLee.obj
 0001:00046600       _GLee_Lazy_glVertexStream2svATI@8 00447600 f   cinder:GLee.obj
 0001:00046630       _GLee_Lazy_glVertexStream2iATI@12 00447630 f   cinder:GLee.obj
 0001:00046660       _GLee_Lazy_glVertexStream2ivATI@8 00447660 f   cinder:GLee.obj
 0001:00046690       _GLee_Lazy_glVertexStream2fATI@12 00447690 f   cinder:GLee.obj
 0001:000466c0       _GLee_Lazy_glVertexStream2fvATI@8 004476c0 f   cinder:GLee.obj
 0001:000466f0       _GLee_Lazy_glVertexStream2dATI@20 004476f0 f   cinder:GLee.obj
 0001:00046720       _GLee_Lazy_glVertexStream2dvATI@8 00447720 f   cinder:GLee.obj
 0001:00046750       _GLee_Lazy_glVertexStream3sATI@16 00447750 f   cinder:GLee.obj
 0001:00046780       _GLee_Lazy_glVertexStream3svATI@8 00447780 f   cinder:GLee.obj
 0001:000467b0       _GLee_Lazy_glVertexStream3iATI@16 004477b0 f   cinder:GLee.obj
 0001:000467e0       _GLee_Lazy_glVertexStream3ivATI@8 004477e0 f   cinder:GLee.obj
 0001:00046810       _GLee_Lazy_glVertexStream3fATI@16 00447810 f   cinder:GLee.obj
 0001:00046850       _GLee_Lazy_glVertexStream3fvATI@8 00447850 f   cinder:GLee.obj
 0001:00046880       _GLee_Lazy_glVertexStream3dATI@28 00447880 f   cinder:GLee.obj
 0001:000468c0       _GLee_Lazy_glVertexStream3dvATI@8 004478c0 f   cinder:GLee.obj
 0001:000468f0       _GLee_Lazy_glVertexStream4sATI@20 004478f0 f   cinder:GLee.obj
 0001:00046930       _GLee_Lazy_glVertexStream4svATI@8 00447930 f   cinder:GLee.obj
 0001:00046960       _GLee_Lazy_glVertexStream4iATI@20 00447960 f   cinder:GLee.obj
 0001:00046990       _GLee_Lazy_glVertexStream4ivATI@8 00447990 f   cinder:GLee.obj
 0001:000469c0       _GLee_Lazy_glVertexStream4fATI@20 004479c0 f   cinder:GLee.obj
 0001:00046a00       _GLee_Lazy_glVertexStream4fvATI@8 00447a00 f   cinder:GLee.obj
 0001:00046a30       _GLee_Lazy_glVertexStream4dATI@36 00447a30 f   cinder:GLee.obj
 0001:00046a80       _GLee_Lazy_glVertexStream4dvATI@8 00447a80 f   cinder:GLee.obj
 0001:00046ab0       _GLee_Lazy_glNormalStream3bATI@16 00447ab0 f   cinder:GLee.obj
 0001:00046ae0       _GLee_Lazy_glNormalStream3bvATI@8 00447ae0 f   cinder:GLee.obj
 0001:00046b10       _GLee_Lazy_glNormalStream3sATI@16 00447b10 f   cinder:GLee.obj
 0001:00046b40       _GLee_Lazy_glNormalStream3svATI@8 00447b40 f   cinder:GLee.obj
 0001:00046b70       _GLee_Lazy_glNormalStream3iATI@16 00447b70 f   cinder:GLee.obj
 0001:00046ba0       _GLee_Lazy_glNormalStream3ivATI@8 00447ba0 f   cinder:GLee.obj
 0001:00046bd0       _GLee_Lazy_glNormalStream3fATI@16 00447bd0 f   cinder:GLee.obj
 0001:00046c10       _GLee_Lazy_glNormalStream3fvATI@8 00447c10 f   cinder:GLee.obj
 0001:00046c40       _GLee_Lazy_glNormalStream3dATI@28 00447c40 f   cinder:GLee.obj
 0001:00046c80       _GLee_Lazy_glNormalStream3dvATI@8 00447c80 f   cinder:GLee.obj
 0001:00046cb0       _GLee_Lazy_glClientActiveVertexStreamATI@4 00447cb0 f   cinder:GLee.obj
 0001:00046cd0       _GLee_Lazy_glVertexBlendEnviATI@8 00447cd0 f   cinder:GLee.obj
 0001:00046d00       _GLee_Lazy_glVertexBlendEnvfATI@8 00447d00 f   cinder:GLee.obj
 0001:00046d30       _GLee_Lazy_glElementPointerATI@8 00447d30 f   cinder:GLee.obj
 0001:00046d60       _GLee_Lazy_glDrawElementArrayATI@8 00447d60 f   cinder:GLee.obj
 0001:00046d90       _GLee_Lazy_glDrawRangeElementArrayATI@16 00447d90 f   cinder:GLee.obj
 0001:00046dc0       _GLee_Lazy_glDrawMeshArraysSUN@16 00447dc0 f   cinder:GLee.obj
 0001:00046df0       _GLee_Lazy_glGenOcclusionQueriesNV@8 00447df0 f   cinder:GLee.obj
 0001:00046e20       _GLee_Lazy_glDeleteOcclusionQueriesNV@8 00447e20 f   cinder:GLee.obj
 0001:00046e50       _GLee_Lazy_glIsOcclusionQueryNV@4 00447e50 f   cinder:GLee.obj
 0001:00046e80       _GLee_Lazy_glBeginOcclusionQueryNV@4 00447e80 f   cinder:GLee.obj
 0001:00046ea0       _GLee_Lazy_glEndOcclusionQueryNV@0 00447ea0 f   cinder:GLee.obj
 0001:00046ec0       _GLee_Lazy_glGetOcclusionQueryivNV@12 00447ec0 f   cinder:GLee.obj
 0001:00046ef0       _GLee_Lazy_glGetOcclusionQueryuivNV@12 00447ef0 f   cinder:GLee.obj
 0001:00046f20       _GLee_Lazy_glPointParameteriNV@8 00447f20 f   cinder:GLee.obj
 0001:00046f50       _GLee_Lazy_glPointParameterivNV@8 00447f50 f   cinder:GLee.obj
 0001:00046f80       _GLee_Lazy_glActiveStencilFaceEXT@4 00447f80 f   cinder:GLee.obj
 0001:00046fa0       _GLee_Lazy_glElementPointerAPPLE@8 00447fa0 f   cinder:GLee.obj
 0001:00046fd0       _GLee_Lazy_glDrawElementArrayAPPLE@12 00447fd0 f   cinder:GLee.obj
 0001:00047000       _GLee_Lazy_glDrawRangeElementArrayAPPLE@20 00448000 f   cinder:GLee.obj
 0001:00047030       _GLee_Lazy_glMultiDrawElementArrayAPPLE@16 00448030 f   cinder:GLee.obj
 0001:00047060       _GLee_Lazy_glMultiDrawRangeElementArrayAPPLE@24 00448060 f   cinder:GLee.obj
 0001:000470a0       _GLee_Lazy_glGenFencesAPPLE@8 004480a0 f   cinder:GLee.obj
 0001:000470d0       _GLee_Lazy_glDeleteFencesAPPLE@8 004480d0 f   cinder:GLee.obj
 0001:00047100       _GLee_Lazy_glSetFenceAPPLE@4 00448100 f   cinder:GLee.obj
 0001:00047120       _GLee_Lazy_glIsFenceAPPLE@4 00448120 f   cinder:GLee.obj
 0001:00047150       _GLee_Lazy_glTestFenceAPPLE@4 00448150 f   cinder:GLee.obj
 0001:00047180       _GLee_Lazy_glFinishFenceAPPLE@4 00448180 f   cinder:GLee.obj
 0001:000471a0       _GLee_Lazy_glTestObjectAPPLE@8 004481a0 f   cinder:GLee.obj
 0001:000471d0       _GLee_Lazy_glFinishObjectAPPLE@8 004481d0 f   cinder:GLee.obj
 0001:00047200       _GLee_Lazy_glBindVertexArrayAPPLE@4 00448200 f   cinder:GLee.obj
 0001:00047220       _GLee_Lazy_glDeleteVertexArraysAPPLE@8 00448220 f   cinder:GLee.obj
 0001:00047250       _GLee_Lazy_glGenVertexArraysAPPLE@8 00448250 f   cinder:GLee.obj
 0001:00047280       _GLee_Lazy_glIsVertexArrayAPPLE@4 00448280 f   cinder:GLee.obj
 0001:000472b0       _GLee_Lazy_glVertexArrayRangeAPPLE@8 004482b0 f   cinder:GLee.obj
 0001:000472e0       _GLee_Lazy_glFlushVertexArrayRangeAPPLE@8 004482e0 f   cinder:GLee.obj
 0001:00047310       _GLee_Lazy_glVertexArrayParameteriAPPLE@8 00448310 f   cinder:GLee.obj
 0001:00047340       _GLee_Lazy_glDrawBuffersATI@8 00448340 f   cinder:GLee.obj
 0001:00047370       _GLee_Lazy_glProgramNamedParameter4fNV@28 00448370 f   cinder:GLee.obj
 0001:000473c0       _GLee_Lazy_glProgramNamedParameter4dNV@44 004483c0 f   cinder:GLee.obj
 0001:00047410       _GLee_Lazy_glProgramNamedParameter4fvNV@16 00448410 f   cinder:GLee.obj
 0001:00047440       _GLee_Lazy_glProgramNamedParameter4dvNV@16 00448440 f   cinder:GLee.obj
 0001:00047470       _GLee_Lazy_glGetProgramNamedParameterfvNV@16 00448470 f   cinder:GLee.obj
 0001:000474a0       _GLee_Lazy_glGetProgramNamedParameterdvNV@16 004484a0 f   cinder:GLee.obj
 0001:000474d0       _GLee_Lazy_glVertex2hNV@8  004484d0 f   cinder:GLee.obj
 0001:00047500       _GLee_Lazy_glVertex2hvNV@4 00448500 f   cinder:GLee.obj
 0001:00047520       _GLee_Lazy_glVertex3hNV@12 00448520 f   cinder:GLee.obj
 0001:00047550       _GLee_Lazy_glVertex3hvNV@4 00448550 f   cinder:GLee.obj
 0001:00047570       _GLee_Lazy_glVertex4hNV@16 00448570 f   cinder:GLee.obj
 0001:000475a0       _GLee_Lazy_glVertex4hvNV@4 004485a0 f   cinder:GLee.obj
 0001:000475c0       _GLee_Lazy_glNormal3hNV@12 004485c0 f   cinder:GLee.obj
 0001:000475f0       _GLee_Lazy_glNormal3hvNV@4 004485f0 f   cinder:GLee.obj
 0001:00047610       _GLee_Lazy_glColor3hNV@12  00448610 f   cinder:GLee.obj
 0001:00047640       _GLee_Lazy_glColor3hvNV@4  00448640 f   cinder:GLee.obj
 0001:00047660       _GLee_Lazy_glColor4hNV@16  00448660 f   cinder:GLee.obj
 0001:00047690       _GLee_Lazy_glColor4hvNV@4  00448690 f   cinder:GLee.obj
 0001:000476b0       _GLee_Lazy_glTexCoord1hNV@4 004486b0 f   cinder:GLee.obj
 0001:000476d0       _GLee_Lazy_glTexCoord1hvNV@4 004486d0 f   cinder:GLee.obj
 0001:000476f0       _GLee_Lazy_glTexCoord2hNV@8 004486f0 f   cinder:GLee.obj
 0001:00047720       _GLee_Lazy_glTexCoord2hvNV@4 00448720 f   cinder:GLee.obj
 0001:00047740       _GLee_Lazy_glTexCoord3hNV@12 00448740 f   cinder:GLee.obj
 0001:00047770       _GLee_Lazy_glTexCoord3hvNV@4 00448770 f   cinder:GLee.obj
 0001:00047790       _GLee_Lazy_glTexCoord4hNV@16 00448790 f   cinder:GLee.obj
 0001:000477c0       _GLee_Lazy_glTexCoord4hvNV@4 004487c0 f   cinder:GLee.obj
 0001:000477e0       _GLee_Lazy_glMultiTexCoord1hNV@8 004487e0 f   cinder:GLee.obj
 0001:00047810       _GLee_Lazy_glMultiTexCoord1hvNV@8 00448810 f   cinder:GLee.obj
 0001:00047840       _GLee_Lazy_glMultiTexCoord2hNV@12 00448840 f   cinder:GLee.obj
 0001:00047870       _GLee_Lazy_glMultiTexCoord2hvNV@8 00448870 f   cinder:GLee.obj
 0001:000478a0       _GLee_Lazy_glMultiTexCoord3hNV@16 004488a0 f   cinder:GLee.obj
 0001:000478d0       _GLee_Lazy_glMultiTexCoord3hvNV@8 004488d0 f   cinder:GLee.obj
 0001:00047900       _GLee_Lazy_glMultiTexCoord4hNV@20 00448900 f   cinder:GLee.obj
 0001:00047940       _GLee_Lazy_glMultiTexCoord4hvNV@8 00448940 f   cinder:GLee.obj
 0001:00047970       _GLee_Lazy_glFogCoordhNV@4 00448970 f   cinder:GLee.obj
 0001:00047990       _GLee_Lazy_glFogCoordhvNV@4 00448990 f   cinder:GLee.obj
 0001:000479b0       _GLee_Lazy_glSecondaryColor3hNV@12 004489b0 f   cinder:GLee.obj
 0001:000479e0       _GLee_Lazy_glSecondaryColor3hvNV@4 004489e0 f   cinder:GLee.obj
 0001:00047a00       _GLee_Lazy_glVertexWeighthNV@4 00448a00 f   cinder:GLee.obj
 0001:00047a20       _GLee_Lazy_glVertexWeighthvNV@4 00448a20 f   cinder:GLee.obj
 0001:00047a40       _GLee_Lazy_glVertexAttrib1hNV@8 00448a40 f   cinder:GLee.obj
 0001:00047a70       _GLee_Lazy_glVertexAttrib1hvNV@8 00448a70 f   cinder:GLee.obj
 0001:00047aa0       _GLee_Lazy_glVertexAttrib2hNV@12 00448aa0 f   cinder:GLee.obj
 0001:00047ad0       _GLee_Lazy_glVertexAttrib2hvNV@8 00448ad0 f   cinder:GLee.obj
 0001:00047b00       _GLee_Lazy_glVertexAttrib3hNV@16 00448b00 f   cinder:GLee.obj
 0001:00047b30       _GLee_Lazy_glVertexAttrib3hvNV@8 00448b30 f   cinder:GLee.obj
 0001:00047b60       _GLee_Lazy_glVertexAttrib4hNV@20 00448b60 f   cinder:GLee.obj
 0001:00047ba0       _GLee_Lazy_glVertexAttrib4hvNV@8 00448ba0 f   cinder:GLee.obj
 0001:00047bd0       _GLee_Lazy_glVertexAttribs1hvNV@12 00448bd0 f   cinder:GLee.obj
 0001:00047c00       _GLee_Lazy_glVertexAttribs2hvNV@12 00448c00 f   cinder:GLee.obj
 0001:00047c30       _GLee_Lazy_glVertexAttribs3hvNV@12 00448c30 f   cinder:GLee.obj
 0001:00047c60       _GLee_Lazy_glVertexAttribs4hvNV@12 00448c60 f   cinder:GLee.obj
 0001:00047c90       _GLee_Lazy_glPixelDataRangeNV@12 00448c90 f   cinder:GLee.obj
 0001:00047cc0       _GLee_Lazy_glFlushPixelDataRangeNV@4 00448cc0 f   cinder:GLee.obj
 0001:00047ce0       _GLee_Lazy_glPrimitiveRestartNV@0 00448ce0 f   cinder:GLee.obj
 0001:00047d00       _GLee_Lazy_glPrimitiveRestartIndexNV@4 00448d00 f   cinder:GLee.obj
 0001:00047d20       _GLee_Lazy_glMapObjectBufferATI@4 00448d20 f   cinder:GLee.obj
 0001:00047d50       _GLee_Lazy_glUnmapObjectBufferATI@4 00448d50 f   cinder:GLee.obj
 0001:00047d70       _GLee_Lazy_glStencilOpSeparateATI@16 00448d70 f   cinder:GLee.obj
 0001:00047da0       _GLee_Lazy_glStencilFuncSeparateATI@16 00448da0 f   cinder:GLee.obj
 0001:00047dd0       _GLee_Lazy_glVertexAttribArrayObjectATI@28 00448dd0 f   cinder:GLee.obj
 0001:00047e10       _GLee_Lazy_glGetVertexAttribArrayObjectfvATI@12 00448e10 f   cinder:GLee.obj
 0001:00047e40       _GLee_Lazy_glGetVertexAttribArrayObjectivATI@12 00448e40 f   cinder:GLee.obj
 0001:00047e70       _GLee_Lazy_glDepthBoundsEXT@16 00448e70 f   cinder:GLee.obj
 0001:00047ea0       _GLee_Lazy_glBlendEquationSeparateEXT@8 00448ea0 f   cinder:GLee.obj
 0001:00047ed0       _GLee_Lazy_glIsRenderbufferEXT@4 00448ed0 f   cinder:GLee.obj
 0001:00047f00       _GLee_Lazy_glBindRenderbufferEXT@8 00448f00 f   cinder:GLee.obj
 0001:00047f30       _GLee_Lazy_glDeleteRenderbuffersEXT@8 00448f30 f   cinder:GLee.obj
 0001:00047f60       _GLee_Lazy_glGenRenderbuffersEXT@8 00448f60 f   cinder:GLee.obj
 0001:00047f90       _GLee_Lazy_glRenderbufferStorageEXT@16 00448f90 f   cinder:GLee.obj
 0001:00047fc0       _GLee_Lazy_glGetRenderbufferParameterivEXT@12 00448fc0 f   cinder:GLee.obj
 0001:00047ff0       _GLee_Lazy_glIsFramebufferEXT@4 00448ff0 f   cinder:GLee.obj
 0001:00048020       _GLee_Lazy_glBindFramebufferEXT@8 00449020 f   cinder:GLee.obj
 0001:00048050       _GLee_Lazy_glDeleteFramebuffersEXT@8 00449050 f   cinder:GLee.obj
 0001:00048080       _GLee_Lazy_glGenFramebuffersEXT@8 00449080 f   cinder:GLee.obj
 0001:000480b0       _GLee_Lazy_glCheckFramebufferStatusEXT@4 004490b0 f   cinder:GLee.obj
 0001:000480e0       _GLee_Lazy_glFramebufferTexture1DEXT@20 004490e0 f   cinder:GLee.obj
 0001:00048110       _GLee_Lazy_glFramebufferTexture2DEXT@20 00449110 f   cinder:GLee.obj
 0001:00048140       _GLee_Lazy_glFramebufferTexture3DEXT@24 00449140 f   cinder:GLee.obj
 0001:00048180       _GLee_Lazy_glFramebufferRenderbufferEXT@16 00449180 f   cinder:GLee.obj
 0001:000481b0       _GLee_Lazy_glGetFramebufferAttachmentParameterivEXT@16 004491b0 f   cinder:GLee.obj
 0001:000481e0       _GLee_Lazy_glGenerateMipmapEXT@4 004491e0 f   cinder:GLee.obj
 0001:00048200       _GLee_Lazy_glStringMarkerGREMEDY@8 00449200 f   cinder:GLee.obj
 0001:00048230       _GLee_Lazy_glStencilClearTagEXT@8 00449230 f   cinder:GLee.obj
 0001:00048260       _GLee_Lazy_glBlitFramebufferEXT@40 00449260 f   cinder:GLee.obj
 0001:000482b0       _GLee_Lazy_glRenderbufferStorageMultisampleEXT@20 004492b0 f   cinder:GLee.obj
 0001:000482e0       _GLee_Lazy_glGetQueryObjecti64vEXT@12 004492e0 f   cinder:GLee.obj
 0001:00048310       _GLee_Lazy_glGetQueryObjectui64vEXT@12 00449310 f   cinder:GLee.obj
 0001:00048340       _GLee_Lazy_glProgramEnvParameters4fvEXT@16 00449340 f   cinder:GLee.obj
 0001:00048370       _GLee_Lazy_glProgramLocalParameters4fvEXT@16 00449370 f   cinder:GLee.obj
 0001:000483a0       _GLee_Lazy_glBufferParameteriAPPLE@12 004493a0 f   cinder:GLee.obj
 0001:000483d0       _GLee_Lazy_glFlushMappedBufferRangeAPPLE@12 004493d0 f   cinder:GLee.obj
 0001:00048400       _GLee_Lazy_glGetUniformuivEXT@12 00449400 f   cinder:GLee.obj
 0001:00048430       _GLee_Lazy_glBindFragDataLocationEXT@12 00449430 f   cinder:GLee.obj
 0001:00048460       _GLee_Lazy_glGetFragDataLocationEXT@8 00449460 f   cinder:GLee.obj
 0001:00048490       _GLee_Lazy_glUniform1uiEXT@8 00449490 f   cinder:GLee.obj
 0001:000484c0       _GLee_Lazy_glUniform2uiEXT@12 004494c0 f   cinder:GLee.obj
 0001:000484f0       _GLee_Lazy_glUniform3uiEXT@16 004494f0 f   cinder:GLee.obj
 0001:00048520       _GLee_Lazy_glUniform4uiEXT@20 00449520 f   cinder:GLee.obj
 0001:00048550       _GLee_Lazy_glUniform1uivEXT@12 00449550 f   cinder:GLee.obj
 0001:00048580       _GLee_Lazy_glUniform2uivEXT@12 00449580 f   cinder:GLee.obj
 0001:000485b0       _GLee_Lazy_glUniform3uivEXT@12 004495b0 f   cinder:GLee.obj
 0001:000485e0       _GLee_Lazy_glUniform4uivEXT@12 004495e0 f   cinder:GLee.obj
 0001:00048610       _GLee_Lazy_glDrawArraysInstancedEXT@16 00449610 f   cinder:GLee.obj
 0001:00048640       _GLee_Lazy_glDrawElementsInstancedEXT@20 00449640 f   cinder:GLee.obj
 0001:00048670       _GLee_Lazy_glTexBufferEXT@12 00449670 f   cinder:GLee.obj
 0001:000486a0       _GLee_Lazy_glDepthRangedNV@16 004496a0 f   cinder:GLee.obj
 0001:000486d0       _GLee_Lazy_glClearDepthdNV@8 004496d0 f   cinder:GLee.obj
 0001:00048700       _GLee_Lazy_glDepthBoundsdNV@16 00449700 f   cinder:GLee.obj
 0001:00048730       _GLee_Lazy_glRenderbufferStorageMultisampleCoverageNV@24 00449730 f   cinder:GLee.obj
 0001:00048770       _GLee_Lazy_glProgramBufferParametersfvNV@20 00449770 f   cinder:GLee.obj
 0001:000487a0       _GLee_Lazy_glProgramBufferParametersIivNV@20 004497a0 f   cinder:GLee.obj
 0001:000487d0       _GLee_Lazy_glProgramBufferParametersIuivNV@20 004497d0 f   cinder:GLee.obj
 0001:00048800       _GLee_Lazy_glColorMaskIndexedEXT@20 00449800 f   cinder:GLee.obj
 0001:00048840       _GLee_Lazy_glGetBooleanIndexedvEXT@12 00449840 f   cinder:GLee.obj
 0001:00048870       _GLee_Lazy_glGetIntegerIndexedvEXT@12 00449870 f   cinder:GLee.obj
 0001:000488a0       _GLee_Lazy_glEnableIndexedEXT@8 004498a0 f   cinder:GLee.obj
 0001:000488d0       _GLee_Lazy_glDisableIndexedEXT@8 004498d0 f   cinder:GLee.obj
 0001:00048900       _GLee_Lazy_glIsEnabledIndexedEXT@8 00449900 f   cinder:GLee.obj
 0001:00048930       _GLee_Lazy_glBeginTransformFeedbackNV@4 00449930 f   cinder:GLee.obj
 0001:00048950       _GLee_Lazy_glEndTransformFeedbackNV@0 00449950 f   cinder:GLee.obj
 0001:00048970       _GLee_Lazy_glTransformFeedbackAttribsNV@12 00449970 f   cinder:GLee.obj
 0001:000489a0       _GLee_Lazy_glBindBufferRangeNV@20 004499a0 f   cinder:GLee.obj
 0001:000489d0       _GLee_Lazy_glBindBufferOffsetNV@16 004499d0 f   cinder:GLee.obj
 0001:00048a00       _GLee_Lazy_glBindBufferBaseNV@12 00449a00 f   cinder:GLee.obj
 0001:00048a30       _GLee_Lazy_glTransformFeedbackVaryingsNV@16 00449a30 f   cinder:GLee.obj
 0001:00048a60       _GLee_Lazy_glActiveVaryingNV@8 00449a60 f   cinder:GLee.obj
 0001:00048a90       _GLee_Lazy_glGetVaryingLocationNV@8 00449a90 f   cinder:GLee.obj
 0001:00048ac0       _GLee_Lazy_glGetActiveVaryingNV@28 00449ac0 f   cinder:GLee.obj
 0001:00048b00       _GLee_Lazy_glGetTransformFeedbackVaryingNV@12 00449b00 f   cinder:GLee.obj
 0001:00048b30       _GLee_Lazy_glUniformBufferEXT@12 00449b30 f   cinder:GLee.obj
 0001:00048b60       _GLee_Lazy_glGetUniformBufferSizeEXT@8 00449b60 f   cinder:GLee.obj
 0001:00048b90       _GLee_Lazy_glGetUniformOffsetEXT@8 00449b90 f   cinder:GLee.obj
 0001:00048bc0       _GLee_Lazy_glTexParameterIivEXT@12 00449bc0 f   cinder:GLee.obj
 0001:00048bf0       _GLee_Lazy_glTexParameterIuivEXT@12 00449bf0 f   cinder:GLee.obj
 0001:00048c20       _GLee_Lazy_glGetTexParameterIivEXT@12 00449c20 f   cinder:GLee.obj
 0001:00048c50       _GLee_Lazy_glGetTexParameterIuivEXT@12 00449c50 f   cinder:GLee.obj
 0001:00048c80       _GLee_Lazy_glClearColorIiEXT@16 00449c80 f   cinder:GLee.obj
 0001:00048cb0       _GLee_Lazy_glClearColorIuiEXT@16 00449cb0 f   cinder:GLee.obj
 0001:00048ce0       _GLee_Lazy_glFrameTerminatorGREMEDY@0 00449ce0 f   cinder:GLee.obj
 0001:00048d00       _GLee_Lazy_glBeginConditionalRenderNV@8 00449d00 f   cinder:GLee.obj
 0001:00048d30       _GLee_Lazy_glEndConditionalRenderNV@0 00449d30 f   cinder:GLee.obj
 0001:00048d50       _GLee_Lazy_glBeginTransformFeedbackEXT@4 00449d50 f   cinder:GLee.obj
 0001:00048d70       _GLee_Lazy_glEndTransformFeedbackEXT@0 00449d70 f   cinder:GLee.obj
 0001:00048d90       _GLee_Lazy_glBindBufferRangeEXT@20 00449d90 f   cinder:GLee.obj
 0001:00048dc0       _GLee_Lazy_glBindBufferOffsetEXT@16 00449dc0 f   cinder:GLee.obj
 0001:00048df0       _GLee_Lazy_glBindBufferBaseEXT@12 00449df0 f   cinder:GLee.obj
 0001:00048e20       _GLee_Lazy_glTransformFeedbackVaryingsEXT@16 00449e20 f   cinder:GLee.obj
 0001:00048e50       _GLee_Lazy_glGetTransformFeedbackVaryingEXT@12 00449e50 f   cinder:GLee.obj
 0001:00048e80       _GLee_Lazy_glClientAttribDefaultEXT@4 00449e80 f   cinder:GLee.obj
 0001:00048ea0       _GLee_Lazy_glPushClientAttribDefaultEXT@4 00449ea0 f   cinder:GLee.obj
 0001:00048ec0       _GLee_Lazy_glMatrixLoadfEXT@8 00449ec0 f   cinder:GLee.obj
 0001:00048ef0       _GLee_Lazy_glMatrixLoaddEXT@8 00449ef0 f   cinder:GLee.obj
 0001:00048f20       _GLee_Lazy_glMatrixMultfEXT@8 00449f20 f   cinder:GLee.obj
 0001:00048f50       _GLee_Lazy_glMatrixMultdEXT@8 00449f50 f   cinder:GLee.obj
 0001:00048f80       _GLee_Lazy_glMatrixLoadIdentityEXT@4 00449f80 f   cinder:GLee.obj
 0001:00048fa0       _GLee_Lazy_glMatrixRotatefEXT@20 00449fa0 f   cinder:GLee.obj
 0001:00048fe0       _GLee_Lazy_glMatrixRotatedEXT@36 00449fe0 f   cinder:GLee.obj
 0001:00049030       _GLee_Lazy_glMatrixScalefEXT@16 0044a030 f   cinder:GLee.obj
 0001:00049070       _GLee_Lazy_glMatrixScaledEXT@28 0044a070 f   cinder:GLee.obj
 0001:000490b0       _GLee_Lazy_glMatrixTranslatefEXT@16 0044a0b0 f   cinder:GLee.obj
 0001:000490f0       _GLee_Lazy_glMatrixTranslatedEXT@28 0044a0f0 f   cinder:GLee.obj
 0001:00049130       _GLee_Lazy_glMatrixFrustumEXT@52 0044a130 f   cinder:GLee.obj
 0001:00049190       _GLee_Lazy_glMatrixOrthoEXT@52 0044a190 f   cinder:GLee.obj
 0001:000491f0       _GLee_Lazy_glMatrixPopEXT@4 0044a1f0 f   cinder:GLee.obj
 0001:00049210       _GLee_Lazy_glMatrixPushEXT@4 0044a210 f   cinder:GLee.obj
 0001:00049230       _GLee_Lazy_glMatrixLoadTransposefEXT@8 0044a230 f   cinder:GLee.obj
 0001:00049260       _GLee_Lazy_glMatrixLoadTransposedEXT@8 0044a260 f   cinder:GLee.obj
 0001:00049290       _GLee_Lazy_glMatrixMultTransposefEXT@8 0044a290 f   cinder:GLee.obj
 0001:000492c0       _GLee_Lazy_glMatrixMultTransposedEXT@8 0044a2c0 f   cinder:GLee.obj
 0001:000492f0       _GLee_Lazy_glTextureParameterfEXT@16 0044a2f0 f   cinder:GLee.obj
 0001:00049320       _GLee_Lazy_glTextureParameterfvEXT@16 0044a320 f   cinder:GLee.obj
 0001:00049350       _GLee_Lazy_glTextureParameteriEXT@16 0044a350 f   cinder:GLee.obj
 0001:00049380       _GLee_Lazy_glTextureParameterivEXT@16 0044a380 f   cinder:GLee.obj
 0001:000493b0       _GLee_Lazy_glTextureImage1DEXT@36 0044a3b0 f   cinder:GLee.obj
 0001:000493f0       _GLee_Lazy_glTextureImage2DEXT@40 0044a3f0 f   cinder:GLee.obj
 0001:00049440       _GLee_Lazy_glTextureSubImage1DEXT@32 0044a440 f   cinder:GLee.obj
 0001:00049480       _GLee_Lazy_glTextureSubImage2DEXT@40 0044a480 f   cinder:GLee.obj
 0001:000494d0       _GLee_Lazy_glCopyTextureImage1DEXT@32 0044a4d0 f   cinder:GLee.obj
 0001:00049510       _GLee_Lazy_glCopyTextureImage2DEXT@36 0044a510 f   cinder:GLee.obj
 0001:00049550       _GLee_Lazy_glCopyTextureSubImage1DEXT@28 0044a550 f   cinder:GLee.obj
 0001:00049590       _GLee_Lazy_glCopyTextureSubImage2DEXT@36 0044a590 f   cinder:GLee.obj
 0001:000495d0       _GLee_Lazy_glGetTextureImageEXT@24 0044a5d0 f   cinder:GLee.obj
 0001:00049610       _GLee_Lazy_glGetTextureParameterfvEXT@16 0044a610 f   cinder:GLee.obj
 0001:00049640       _GLee_Lazy_glGetTextureParameterivEXT@16 0044a640 f   cinder:GLee.obj
 0001:00049670       _GLee_Lazy_glGetTextureLevelParameterfvEXT@20 0044a670 f   cinder:GLee.obj
 0001:000496a0       _GLee_Lazy_glGetTextureLevelParameterivEXT@20 0044a6a0 f   cinder:GLee.obj
 0001:000496d0       _GLee_Lazy_glTextureImage3DEXT@44 0044a6d0 f   cinder:GLee.obj
 0001:00049720       _GLee_Lazy_glTextureSubImage3DEXT@48 0044a720 f   cinder:GLee.obj
 0001:00049770       _GLee_Lazy_glCopyTextureSubImage3DEXT@40 0044a770 f   cinder:GLee.obj
 0001:000497c0       _GLee_Lazy_glMultiTexParameterfEXT@16 0044a7c0 f   cinder:GLee.obj
 0001:000497f0       _GLee_Lazy_glMultiTexParameterfvEXT@16 0044a7f0 f   cinder:GLee.obj
 0001:00049820       _GLee_Lazy_glMultiTexParameteriEXT@16 0044a820 f   cinder:GLee.obj
 0001:00049850       _GLee_Lazy_glMultiTexParameterivEXT@16 0044a850 f   cinder:GLee.obj
 0001:00049880       _GLee_Lazy_glMultiTexImage1DEXT@36 0044a880 f   cinder:GLee.obj
 0001:000498c0       _GLee_Lazy_glMultiTexImage2DEXT@40 0044a8c0 f   cinder:GLee.obj
 0001:00049910       _GLee_Lazy_glMultiTexSubImage1DEXT@32 0044a910 f   cinder:GLee.obj
 0001:00049950       _GLee_Lazy_glMultiTexSubImage2DEXT@40 0044a950 f   cinder:GLee.obj
 0001:000499a0       _GLee_Lazy_glCopyMultiTexImage1DEXT@32 0044a9a0 f   cinder:GLee.obj
 0001:000499e0       _GLee_Lazy_glCopyMultiTexImage2DEXT@36 0044a9e0 f   cinder:GLee.obj
 0001:00049a20       _GLee_Lazy_glCopyMultiTexSubImage1DEXT@28 0044aa20 f   cinder:GLee.obj
 0001:00049a60       _GLee_Lazy_glCopyMultiTexSubImage2DEXT@36 0044aa60 f   cinder:GLee.obj
 0001:00049aa0       _GLee_Lazy_glGetMultiTexImageEXT@24 0044aaa0 f   cinder:GLee.obj
 0001:00049ae0       _GLee_Lazy_glGetMultiTexParameterfvEXT@16 0044aae0 f   cinder:GLee.obj
 0001:00049b10       _GLee_Lazy_glGetMultiTexParameterivEXT@16 0044ab10 f   cinder:GLee.obj
 0001:00049b40       _GLee_Lazy_glGetMultiTexLevelParameterfvEXT@20 0044ab40 f   cinder:GLee.obj
 0001:00049b70       _GLee_Lazy_glGetMultiTexLevelParameterivEXT@20 0044ab70 f   cinder:GLee.obj
 0001:00049ba0       _GLee_Lazy_glMultiTexImage3DEXT@44 0044aba0 f   cinder:GLee.obj
 0001:00049bf0       _GLee_Lazy_glMultiTexSubImage3DEXT@48 0044abf0 f   cinder:GLee.obj
 0001:00049c40       _GLee_Lazy_glCopyMultiTexSubImage3DEXT@40 0044ac40 f   cinder:GLee.obj
 0001:00049c90       _GLee_Lazy_glBindMultiTextureEXT@12 0044ac90 f   cinder:GLee.obj
 0001:00049cc0       _GLee_Lazy_glEnableClientStateIndexedEXT@8 0044acc0 f   cinder:GLee.obj
 0001:00049cf0       _GLee_Lazy_glDisableClientStateIndexedEXT@8 0044acf0 f   cinder:GLee.obj
 0001:00049d20       _GLee_Lazy_glMultiTexCoordPointerEXT@20 0044ad20 f   cinder:GLee.obj
 0001:00049d50       _GLee_Lazy_glMultiTexEnvfEXT@16 0044ad50 f   cinder:GLee.obj
 0001:00049d80       _GLee_Lazy_glMultiTexEnvfvEXT@16 0044ad80 f   cinder:GLee.obj
 0001:00049db0       _GLee_Lazy_glMultiTexEnviEXT@16 0044adb0 f   cinder:GLee.obj
 0001:00049de0       _GLee_Lazy_glMultiTexEnvivEXT@16 0044ade0 f   cinder:GLee.obj
 0001:00049e10       _GLee_Lazy_glMultiTexGendEXT@20 0044ae10 f   cinder:GLee.obj
 0001:00049e40       _GLee_Lazy_glMultiTexGendvEXT@16 0044ae40 f   cinder:GLee.obj
 0001:00049e70       _GLee_Lazy_glMultiTexGenfEXT@16 0044ae70 f   cinder:GLee.obj
 0001:00049ea0       _GLee_Lazy_glMultiTexGenfvEXT@16 0044aea0 f   cinder:GLee.obj
 0001:00049ed0       _GLee_Lazy_glMultiTexGeniEXT@16 0044aed0 f   cinder:GLee.obj
 0001:00049f00       _GLee_Lazy_glMultiTexGenivEXT@16 0044af00 f   cinder:GLee.obj
 0001:00049f30       _GLee_Lazy_glGetMultiTexEnvfvEXT@16 0044af30 f   cinder:GLee.obj
 0001:00049f60       _GLee_Lazy_glGetMultiTexEnvivEXT@16 0044af60 f   cinder:GLee.obj
 0001:00049f90       _GLee_Lazy_glGetMultiTexGendvEXT@16 0044af90 f   cinder:GLee.obj
 0001:00049fc0       _GLee_Lazy_glGetMultiTexGenfvEXT@16 0044afc0 f   cinder:GLee.obj
 0001:00049ff0       _GLee_Lazy_glGetMultiTexGenivEXT@16 0044aff0 f   cinder:GLee.obj
 0001:0004a020       _GLee_Lazy_glGetFloatIndexedvEXT@12 0044b020 f   cinder:GLee.obj
 0001:0004a050       _GLee_Lazy_glGetDoubleIndexedvEXT@12 0044b050 f   cinder:GLee.obj
 0001:0004a080       _GLee_Lazy_glGetPointerIndexedvEXT@12 0044b080 f   cinder:GLee.obj
 0001:0004a0b0       _GLee_Lazy_glCompressedTextureImage3DEXT@40 0044b0b0 f   cinder:GLee.obj
 0001:0004a100       _GLee_Lazy_glCompressedTextureImage2DEXT@36 0044b100 f   cinder:GLee.obj
 0001:0004a140       _GLee_Lazy_glCompressedTextureImage1DEXT@32 0044b140 f   cinder:GLee.obj
 0001:0004a180       _GLee_Lazy_glCompressedTextureSubImage3DEXT@48 0044b180 f   cinder:GLee.obj
 0001:0004a1d0       _GLee_Lazy_glCompressedTextureSubImage2DEXT@40 0044b1d0 f   cinder:GLee.obj
 0001:0004a220       _GLee_Lazy_glCompressedTextureSubImage1DEXT@32 0044b220 f   cinder:GLee.obj
 0001:0004a260       _GLee_Lazy_glGetCompressedTextureImageEXT@16 0044b260 f   cinder:GLee.obj
 0001:0004a290       _GLee_Lazy_glCompressedMultiTexImage3DEXT@40 0044b290 f   cinder:GLee.obj
 0001:0004a2e0       _GLee_Lazy_glCompressedMultiTexImage2DEXT@36 0044b2e0 f   cinder:GLee.obj
 0001:0004a320       _GLee_Lazy_glCompressedMultiTexImage1DEXT@32 0044b320 f   cinder:GLee.obj
 0001:0004a360       _GLee_Lazy_glCompressedMultiTexSubImage3DEXT@48 0044b360 f   cinder:GLee.obj
 0001:0004a3b0       _GLee_Lazy_glCompressedMultiTexSubImage2DEXT@40 0044b3b0 f   cinder:GLee.obj
 0001:0004a400       _GLee_Lazy_glCompressedMultiTexSubImage1DEXT@32 0044b400 f   cinder:GLee.obj
 0001:0004a440       _GLee_Lazy_glGetCompressedMultiTexImageEXT@16 0044b440 f   cinder:GLee.obj
 0001:0004a470       _GLee_Lazy_glNamedProgramStringEXT@20 0044b470 f   cinder:GLee.obj
 0001:0004a4a0       _GLee_Lazy_glNamedProgramLocalParameter4dEXT@44 0044b4a0 f   cinder:GLee.obj
 0001:0004a4f0       _GLee_Lazy_glNamedProgramLocalParameter4dvEXT@16 0044b4f0 f   cinder:GLee.obj
 0001:0004a520       _GLee_Lazy_glNamedProgramLocalParameter4fEXT@28 0044b520 f   cinder:GLee.obj
 0001:0004a570       _GLee_Lazy_glNamedProgramLocalParameter4fvEXT@16 0044b570 f   cinder:GLee.obj
 0001:0004a5a0       _GLee_Lazy_glGetNamedProgramLocalParameterdvEXT@16 0044b5a0 f   cinder:GLee.obj
 0001:0004a5d0       _GLee_Lazy_glGetNamedProgramLocalParameterfvEXT@16 0044b5d0 f   cinder:GLee.obj
 0001:0004a600       _GLee_Lazy_glGetNamedProgramivEXT@16 0044b600 f   cinder:GLee.obj
 0001:0004a630       _GLee_Lazy_glGetNamedProgramStringEXT@16 0044b630 f   cinder:GLee.obj
 0001:0004a660       _GLee_Lazy_glNamedProgramLocalParameters4fvEXT@20 0044b660 f   cinder:GLee.obj
 0001:0004a690       _GLee_Lazy_glNamedProgramLocalParameterI4iEXT@28 0044b690 f   cinder:GLee.obj
 0001:0004a6d0       _GLee_Lazy_glNamedProgramLocalParameterI4ivEXT@16 0044b6d0 f   cinder:GLee.obj
 0001:0004a700       _GLee_Lazy_glNamedProgramLocalParametersI4ivEXT@20 0044b700 f   cinder:GLee.obj
 0001:0004a730       _GLee_Lazy_glNamedProgramLocalParameterI4uiEXT@28 0044b730 f   cinder:GLee.obj
 0001:0004a770       _GLee_Lazy_glNamedProgramLocalParameterI4uivEXT@16 0044b770 f   cinder:GLee.obj
 0001:0004a7a0       _GLee_Lazy_glNamedProgramLocalParametersI4uivEXT@20 0044b7a0 f   cinder:GLee.obj
 0001:0004a7d0       _GLee_Lazy_glGetNamedProgramLocalParameterIivEXT@16 0044b7d0 f   cinder:GLee.obj
 0001:0004a800       _GLee_Lazy_glGetNamedProgramLocalParameterIuivEXT@16 0044b800 f   cinder:GLee.obj
 0001:0004a830       _GLee_Lazy_glTextureParameterIivEXT@16 0044b830 f   cinder:GLee.obj
 0001:0004a860       _GLee_Lazy_glTextureParameterIuivEXT@16 0044b860 f   cinder:GLee.obj
 0001:0004a890       _GLee_Lazy_glGetTextureParameterIivEXT@16 0044b890 f   cinder:GLee.obj
 0001:0004a8c0       _GLee_Lazy_glGetTextureParameterIuivEXT@16 0044b8c0 f   cinder:GLee.obj
 0001:0004a8f0       _GLee_Lazy_glMultiTexParameterIivEXT@16 0044b8f0 f   cinder:GLee.obj
 0001:0004a920       _GLee_Lazy_glMultiTexParameterIuivEXT@16 0044b920 f   cinder:GLee.obj
 0001:0004a950       _GLee_Lazy_glGetMultiTexParameterIivEXT@16 0044b950 f   cinder:GLee.obj
 0001:0004a980       _GLee_Lazy_glGetMultiTexParameterIuivEXT@16 0044b980 f   cinder:GLee.obj
 0001:0004a9b0       _GLee_Lazy_glProgramUniform1fEXT@12 0044b9b0 f   cinder:GLee.obj
 0001:0004a9e0       _GLee_Lazy_glProgramUniform2fEXT@16 0044b9e0 f   cinder:GLee.obj
 0001:0004aa10       _GLee_Lazy_glProgramUniform3fEXT@20 0044ba10 f   cinder:GLee.obj
 0001:0004aa50       _GLee_Lazy_glProgramUniform4fEXT@24 0044ba50 f   cinder:GLee.obj
 0001:0004aa90       _GLee_Lazy_glProgramUniform1iEXT@12 0044ba90 f   cinder:GLee.obj
 0001:0004aac0       _GLee_Lazy_glProgramUniform2iEXT@16 0044bac0 f   cinder:GLee.obj
 0001:0004aaf0       _GLee_Lazy_glProgramUniform3iEXT@20 0044baf0 f   cinder:GLee.obj
 0001:0004ab20       _GLee_Lazy_glProgramUniform4iEXT@24 0044bb20 f   cinder:GLee.obj
 0001:0004ab60       _GLee_Lazy_glProgramUniform1fvEXT@16 0044bb60 f   cinder:GLee.obj
 0001:0004ab90       _GLee_Lazy_glProgramUniform2fvEXT@16 0044bb90 f   cinder:GLee.obj
 0001:0004abc0       _GLee_Lazy_glProgramUniform3fvEXT@16 0044bbc0 f   cinder:GLee.obj
 0001:0004abf0       _GLee_Lazy_glProgramUniform4fvEXT@16 0044bbf0 f   cinder:GLee.obj
 0001:0004ac20       _GLee_Lazy_glProgramUniform1ivEXT@16 0044bc20 f   cinder:GLee.obj
 0001:0004ac50       _GLee_Lazy_glProgramUniform2ivEXT@16 0044bc50 f   cinder:GLee.obj
 0001:0004ac80       _GLee_Lazy_glProgramUniform3ivEXT@16 0044bc80 f   cinder:GLee.obj
 0001:0004acb0       _GLee_Lazy_glProgramUniform4ivEXT@16 0044bcb0 f   cinder:GLee.obj
 0001:0004ace0       _GLee_Lazy_glProgramUniformMatrix2fvEXT@20 0044bce0 f   cinder:GLee.obj
 0001:0004ad10       _GLee_Lazy_glProgramUniformMatrix3fvEXT@20 0044bd10 f   cinder:GLee.obj
 0001:0004ad40       _GLee_Lazy_glProgramUniformMatrix4fvEXT@20 0044bd40 f   cinder:GLee.obj
 0001:0004ad70       _GLee_Lazy_glProgramUniformMatrix2x3fvEXT@20 0044bd70 f   cinder:GLee.obj
 0001:0004ada0       _GLee_Lazy_glProgramUniformMatrix3x2fvEXT@20 0044bda0 f   cinder:GLee.obj
 0001:0004add0       _GLee_Lazy_glProgramUniformMatrix2x4fvEXT@20 0044bdd0 f   cinder:GLee.obj
 0001:0004ae00       _GLee_Lazy_glProgramUniformMatrix4x2fvEXT@20 0044be00 f   cinder:GLee.obj
 0001:0004ae30       _GLee_Lazy_glProgramUniformMatrix3x4fvEXT@20 0044be30 f   cinder:GLee.obj
 0001:0004ae60       _GLee_Lazy_glProgramUniformMatrix4x3fvEXT@20 0044be60 f   cinder:GLee.obj
 0001:0004ae90       _GLee_Lazy_glProgramUniform1uiEXT@12 0044be90 f   cinder:GLee.obj
 0001:0004aec0       _GLee_Lazy_glProgramUniform2uiEXT@16 0044bec0 f   cinder:GLee.obj
 0001:0004aef0       _GLee_Lazy_glProgramUniform3uiEXT@20 0044bef0 f   cinder:GLee.obj
 0001:0004af20       _GLee_Lazy_glProgramUniform4uiEXT@24 0044bf20 f   cinder:GLee.obj
 0001:0004af60       _GLee_Lazy_glProgramUniform1uivEXT@16 0044bf60 f   cinder:GLee.obj
 0001:0004af90       _GLee_Lazy_glProgramUniform2uivEXT@16 0044bf90 f   cinder:GLee.obj
 0001:0004afc0       _GLee_Lazy_glProgramUniform3uivEXT@16 0044bfc0 f   cinder:GLee.obj
 0001:0004aff0       _GLee_Lazy_glProgramUniform4uivEXT@16 0044bff0 f   cinder:GLee.obj
 0001:0004b020       _GLee_Lazy_glNamedBufferDataEXT@16 0044c020 f   cinder:GLee.obj
 0001:0004b050       _GLee_Lazy_glNamedBufferSubDataEXT@16 0044c050 f   cinder:GLee.obj
 0001:0004b080       _GLee_Lazy_glMapNamedBufferEXT@8 0044c080 f   cinder:GLee.obj
 0001:0004b0b0       _GLee_Lazy_glUnmapNamedBufferEXT@4 0044c0b0 f   cinder:GLee.obj
 0001:0004b0e0       _GLee_Lazy_glGetNamedBufferParameterivEXT@12 0044c0e0 f   cinder:GLee.obj
 0001:0004b110       _GLee_Lazy_glGetNamedBufferPointervEXT@12 0044c110 f   cinder:GLee.obj
 0001:0004b140       _GLee_Lazy_glGetNamedBufferSubDataEXT@16 0044c140 f   cinder:GLee.obj
 0001:0004b170       _GLee_Lazy_glTextureBufferEXT@16 0044c170 f   cinder:GLee.obj
 0001:0004b1a0       _GLee_Lazy_glMultiTexBufferEXT@16 0044c1a0 f   cinder:GLee.obj
 0001:0004b1d0       _GLee_Lazy_glNamedRenderbufferStorageEXT@16 0044c1d0 f   cinder:GLee.obj
 0001:0004b200       _GLee_Lazy_glGetNamedRenderbufferParameterivEXT@12 0044c200 f   cinder:GLee.obj
 0001:0004b230       _GLee_Lazy_glCheckNamedFramebufferStatusEXT@8 0044c230 f   cinder:GLee.obj
 0001:0004b260       _GLee_Lazy_glNamedFramebufferTexture1DEXT@20 0044c260 f   cinder:GLee.obj
 0001:0004b290       _GLee_Lazy_glNamedFramebufferTexture2DEXT@20 0044c290 f   cinder:GLee.obj
 0001:0004b2c0       _GLee_Lazy_glNamedFramebufferTexture3DEXT@24 0044c2c0 f   cinder:GLee.obj
 0001:0004b300       _GLee_Lazy_glNamedFramebufferRenderbufferEXT@16 0044c300 f   cinder:GLee.obj
 0001:0004b330       _GLee_Lazy_glGetNamedFramebufferAttachmentParameterivEXT@16 0044c330 f   cinder:GLee.obj
 0001:0004b360       _GLee_Lazy_glGenerateTextureMipmapEXT@8 0044c360 f   cinder:GLee.obj
 0001:0004b390       _GLee_Lazy_glGenerateMultiTexMipmapEXT@8 0044c390 f   cinder:GLee.obj
 0001:0004b3c0       _GLee_Lazy_glFramebufferDrawBufferEXT@8 0044c3c0 f   cinder:GLee.obj
 0001:0004b3f0       _GLee_Lazy_glFramebufferDrawBuffersEXT@12 0044c3f0 f   cinder:GLee.obj
 0001:0004b420       _GLee_Lazy_glFramebufferReadBufferEXT@8 0044c420 f   cinder:GLee.obj
 0001:0004b450       _GLee_Lazy_glGetFramebufferParameterivEXT@12 0044c450 f   cinder:GLee.obj
 0001:0004b480       _GLee_Lazy_glNamedRenderbufferStorageMultisampleEXT@20 0044c480 f   cinder:GLee.obj
 0001:0004b4b0       _GLee_Lazy_glNamedRenderbufferStorageMultisampleCoverageEXT@24 0044c4b0 f   cinder:GLee.obj
 0001:0004b4f0       _GLee_Lazy_glNamedFramebufferTextureEXT@16 0044c4f0 f   cinder:GLee.obj
 0001:0004b520       _GLee_Lazy_glNamedFramebufferTextureLayerEXT@20 0044c520 f   cinder:GLee.obj
 0001:0004b550       _GLee_Lazy_glNamedFramebufferTextureFaceEXT@20 0044c550 f   cinder:GLee.obj
 0001:0004b580       _GLee_Lazy_glTextureRenderbufferEXT@12 0044c580 f   cinder:GLee.obj
 0001:0004b5b0       _GLee_Lazy_glMultiTexRenderbufferEXT@12 0044c5b0 f   cinder:GLee.obj
 0001:0004b5e0       _GLee_Lazy_glGetMultisamplefvNV@12 0044c5e0 f   cinder:GLee.obj
 0001:0004b610       _GLee_Lazy_glSampleMaskIndexedNV@8 0044c610 f   cinder:GLee.obj
 0001:0004b640       _GLee_Lazy_glTexRenderbufferNV@8 0044c640 f   cinder:GLee.obj
 0001:0004b670       _GLee_Lazy_glBindTransformFeedbackNV@8 0044c670 f   cinder:GLee.obj
 0001:0004b6a0       _GLee_Lazy_glDeleteTransformFeedbacksNV@8 0044c6a0 f   cinder:GLee.obj
 0001:0004b6d0       _GLee_Lazy_glGenTransformFeedbacksNV@8 0044c6d0 f   cinder:GLee.obj
 0001:0004b700       _GLee_Lazy_glIsTransformFeedbackNV@4 0044c700 f   cinder:GLee.obj
 0001:0004b730       _GLee_Lazy_glPauseTransformFeedbackNV@0 0044c730 f   cinder:GLee.obj
 0001:0004b750       _GLee_Lazy_glResumeTransformFeedbackNV@0 0044c750 f   cinder:GLee.obj
 0001:0004b770       _GLee_Lazy_glDrawTransformFeedbackNV@8 0044c770 f   cinder:GLee.obj
 0001:0004b7a0       _GLee_Lazy_glBlendFuncSeparateINGR@16 0044c7a0 f   cinder:GLee.obj
 0001:0004b7d0       _GLee_Lazy_glIglooInterfaceSGIX@8 0044c7d0 f   cinder:GLee.obj
 0001:0004b800       _GLee_Lazy_glFragmentLightModeliEXT@8 0044c800 f   cinder:GLee.obj
 0001:0004b830       _GLee_Lazy_glFragmentLightModelfEXT@8 0044c830 f   cinder:GLee.obj
 0001:0004b860       _GLee_Lazy_glFragmentLightModelivEXT@8 0044c860 f   cinder:GLee.obj
 0001:0004b890       _GLee_Lazy_glFragmentLightModelfvEXT@8 0044c890 f   cinder:GLee.obj
 0001:0004b8c0       _GLee_Lazy_glFragmentLightiEXT@12 0044c8c0 f   cinder:GLee.obj
 0001:0004b8f0       _GLee_Lazy_glFragmentLightfEXT@12 0044c8f0 f   cinder:GLee.obj
 0001:0004b920       _GLee_Lazy_glFragmentLightivEXT@12 0044c920 f   cinder:GLee.obj
 0001:0004b950       _GLee_Lazy_glFragmentLightfvEXT@12 0044c950 f   cinder:GLee.obj
 0001:0004b980       _GLee_Lazy_glGetFragmentLightivEXT@12 0044c980 f   cinder:GLee.obj
 0001:0004b9b0       _GLee_Lazy_glGetFragmentLightfvEXT@12 0044c9b0 f   cinder:GLee.obj
 0001:0004b9e0       _GLee_Lazy_glFragmentMaterialfEXT@12 0044c9e0 f   cinder:GLee.obj
 0001:0004ba10       _GLee_Lazy_glFragmentMaterialiEXT@12 0044ca10 f   cinder:GLee.obj
 0001:0004ba40       _GLee_Lazy_glFragmentMaterialfvEXT@12 0044ca40 f   cinder:GLee.obj
 0001:0004ba70       _GLee_Lazy_glFragmentMaterialivEXT@12 0044ca70 f   cinder:GLee.obj
 0001:0004baa0       _GLee_Lazy_glFragmentColorMaterialEXT@8 0044caa0 f   cinder:GLee.obj
 0001:0004bad0       _GLee_Lazy_glGetFragmentMaterialfvEXT@12 0044cad0 f   cinder:GLee.obj
 0001:0004bb00       _GLee_Lazy_glGetFragmentMaterialivEXT@12 0044cb00 f   cinder:GLee.obj
 0001:0004bb30       _GLee_Lazy_glLightEnviEXT@8 0044cb30 f   cinder:GLee.obj
 0001:0004bb60       _GLee_Lazy_glProgramParameteriEXT@12 0044cb60 f   cinder:GLee.obj
 0001:0004bb90       _GLee_Lazy_glFramebufferTextureEXT@16 0044cb90 f   cinder:GLee.obj
 0001:0004bbc0       _GLee_Lazy_glFramebufferTextureLayerEXT@20 0044cbc0 f   cinder:GLee.obj
 0001:0004bbf0       _GLee_Lazy_glFramebufferTextureFaceEXT@20 0044cbf0 f   cinder:GLee.obj
 0001:0004bc20       _GLee_Lazy_glBeginSceneEXT@0 0044cc20 f   cinder:GLee.obj
 0001:0004bc40       _GLee_Lazy_glEndSceneEXT@0 0044cc40 f   cinder:GLee.obj
 0001:0004bc60       _GLee_Lazy_glProgramLocalParameterI4iNV@24 0044cc60 f   cinder:GLee.obj
 0001:0004bca0       _GLee_Lazy_glProgramLocalParameterI4ivNV@12 0044cca0 f   cinder:GLee.obj
 0001:0004bcd0       _GLee_Lazy_glProgramLocalParametersI4ivNV@16 0044ccd0 f   cinder:GLee.obj
 0001:0004bd00       _GLee_Lazy_glProgramLocalParameterI4uiNV@24 0044cd00 f   cinder:GLee.obj
 0001:0004bd40       _GLee_Lazy_glProgramLocalParameterI4uivNV@12 0044cd40 f   cinder:GLee.obj
 0001:0004bd70       _GLee_Lazy_glProgramLocalParametersI4uivNV@16 0044cd70 f   cinder:GLee.obj
 0001:0004bda0       _GLee_Lazy_glProgramEnvParameterI4iNV@24 0044cda0 f   cinder:GLee.obj
 0001:0004bde0       _GLee_Lazy_glProgramEnvParameterI4ivNV@12 0044cde0 f   cinder:GLee.obj
 0001:0004be10       _GLee_Lazy_glProgramEnvParametersI4ivNV@16 0044ce10 f   cinder:GLee.obj
 0001:0004be40       _GLee_Lazy_glProgramEnvParameterI4uiNV@24 0044ce40 f   cinder:GLee.obj
 0001:0004be80       _GLee_Lazy_glProgramEnvParameterI4uivNV@12 0044ce80 f   cinder:GLee.obj
 0001:0004beb0       _GLee_Lazy_glProgramEnvParametersI4uivNV@16 0044ceb0 f   cinder:GLee.obj
 0001:0004bee0       _GLee_Lazy_glGetProgramLocalParameterIivNV@12 0044cee0 f   cinder:GLee.obj
 0001:0004bf10       _GLee_Lazy_glGetProgramLocalParameterIuivNV@12 0044cf10 f   cinder:GLee.obj
 0001:0004bf40       _GLee_Lazy_glGetProgramEnvParameterIivNV@12 0044cf40 f   cinder:GLee.obj
 0001:0004bf70       _GLee_Lazy_glGetProgramEnvParameterIuivNV@12 0044cf70 f   cinder:GLee.obj
 0001:0004bfa0       _GLee_Lazy_glVertexAttribI2iEXT@12 0044cfa0 f   cinder:GLee.obj
 0001:0004bfd0       _GLee_Lazy_glVertexAttribI3iEXT@16 0044cfd0 f   cinder:GLee.obj
 0001:0004c000       _GLee_Lazy_glVertexAttribI4iEXT@20 0044d000 f   cinder:GLee.obj
 0001:0004c030       _GLee_Lazy_glVertexAttribI1uiEXT@8 0044d030 f   cinder:GLee.obj
 0001:0004c060       _GLee_Lazy_glVertexAttribI2uiEXT@12 0044d060 f   cinder:GLee.obj
 0001:0004c090       _GLee_Lazy_glVertexAttribI3uiEXT@16 0044d090 f   cinder:GLee.obj
 0001:0004c0c0       _GLee_Lazy_glVertexAttribI4uiEXT@20 0044d0c0 f   cinder:GLee.obj
 0001:0004c0f0       _GLee_Lazy_glVertexAttribI1ivEXT@8 0044d0f0 f   cinder:GLee.obj
 0001:0004c120       _GLee_Lazy_glVertexAttribI2ivEXT@8 0044d120 f   cinder:GLee.obj
 0001:0004c150       _GLee_Lazy_glVertexAttribI3ivEXT@8 0044d150 f   cinder:GLee.obj
 0001:0004c180       _GLee_Lazy_glVertexAttribI4ivEXT@8 0044d180 f   cinder:GLee.obj
 0001:0004c1b0       _GLee_Lazy_glVertexAttribI1uivEXT@8 0044d1b0 f   cinder:GLee.obj
 0001:0004c1e0       _GLee_Lazy_glVertexAttribI2uivEXT@8 0044d1e0 f   cinder:GLee.obj
 0001:0004c210       _GLee_Lazy_glVertexAttribI3uivEXT@8 0044d210 f   cinder:GLee.obj
 0001:0004c240       _GLee_Lazy_glVertexAttribI4uivEXT@8 0044d240 f   cinder:GLee.obj
 0001:0004c270       _GLee_Lazy_glVertexAttribI4bvEXT@8 0044d270 f   cinder:GLee.obj
 0001:0004c2a0       _GLee_Lazy_glVertexAttribI4svEXT@8 0044d2a0 f   cinder:GLee.obj
 0001:0004c2d0       _GLee_Lazy_glVertexAttribI4ubvEXT@8 0044d2d0 f   cinder:GLee.obj
 0001:0004c300       _GLee_Lazy_glVertexAttribI4usvEXT@8 0044d300 f   cinder:GLee.obj
 0001:0004c330       _GLee_Lazy_glVertexAttribIPointerEXT@20 0044d330 f   cinder:GLee.obj
 0001:0004c360       _GLee_Lazy_glGetVertexAttribIivEXT@12 0044d360 f   cinder:GLee.obj
 0001:0004c390       _GLee_Lazy_glGetVertexAttribIuivEXT@12 0044d390 f   cinder:GLee.obj
 0001:0004c3c0       _GLee_Lazy_glDepthRangefOES@8 0044d3c0 f   cinder:GLee.obj
 0001:0004c3f0       _GLee_Lazy_glFrustumfOES@24 0044d3f0 f   cinder:GLee.obj
 0001:0004c440       _GLee_Lazy_glOrthofOES@24  0044d440 f   cinder:GLee.obj
 0001:0004c490       _GLee_Lazy_glClipPlanefOES@8 0044d490 f   cinder:GLee.obj
 0001:0004c4c0       _GLee_Lazy_glGetClipPlanefOES@8 0044d4c0 f   cinder:GLee.obj
 0001:0004c4f0       _GLee_Lazy_glClearDepthfOES@8 0044d4f0 f   cinder:GLee.obj
 0001:0004c520       _GLee_Lazy_wglCreateBufferRegionARB@12 0044d520 f   cinder:GLee.obj
 0001:0004c550       _GLee_Lazy_wglDeleteBufferRegionARB@4 0044d550 f   cinder:GLee.obj
 0001:0004c570       _GLee_Lazy_wglSaveBufferRegionARB@20 0044d570 f   cinder:GLee.obj
 0001:0004c5b0       _GLee_Lazy_wglRestoreBufferRegionARB@28 0044d5b0 f   cinder:GLee.obj
 0001:0004c5f0       _GLee_Lazy_wglGetExtensionsStringARB@4 0044d5f0 f   cinder:GLee.obj
 0001:0004c620       _GLee_Lazy_wglGetPixelFormatAttribivARB@24 0044d620 f   cinder:GLee.obj
 0001:0004c660       _GLee_Lazy_wglGetPixelFormatAttribfvARB@24 0044d660 f   cinder:GLee.obj
 0001:0004c6a0       _GLee_Lazy_wglChoosePixelFormatARB@24 0044d6a0 f   cinder:GLee.obj
 0001:0004c6e0       _GLee_Lazy_wglMakeContextCurrentARB@12 0044d6e0 f   cinder:GLee.obj
 0001:0004c710       _GLee_Lazy_wglGetCurrentReadDCARB@0 0044d710 f   cinder:GLee.obj
 0001:0004c730       _GLee_Lazy_wglCreatePbufferARB@20 0044d730 f   cinder:GLee.obj
 0001:0004c770       _GLee_Lazy_wglGetPbufferDCARB@4 0044d770 f   cinder:GLee.obj
 0001:0004c7a0       _GLee_Lazy_wglReleasePbufferDCARB@8 0044d7a0 f   cinder:GLee.obj
 0001:0004c7d0       _GLee_Lazy_wglDestroyPbufferARB@4 0044d7d0 f   cinder:GLee.obj
 0001:0004c800       _GLee_Lazy_wglQueryPbufferARB@12 0044d800 f   cinder:GLee.obj
 0001:0004c830       _GLee_Lazy_wglBindTexImageARB@8 0044d830 f   cinder:GLee.obj
 0001:0004c860       _GLee_Lazy_wglReleaseTexImageARB@8 0044d860 f   cinder:GLee.obj
 0001:0004c890       _GLee_Lazy_wglSetPbufferAttribARB@8 0044d890 f   cinder:GLee.obj
 0001:0004c8c0       _GLee_Lazy_wglCreateContextAttribsARB@12 0044d8c0 f   cinder:GLee.obj
 0001:0004c8f0       _GLee_Lazy_wglMakeContextCurrentEXT@12 0044d8f0 f   cinder:GLee.obj
 0001:0004c920       _GLee_Lazy_wglGetCurrentReadDCEXT@0 0044d920 f   cinder:GLee.obj
 0001:0004c940       _GLee_Lazy_wglGetPixelFormatAttribivEXT@24 0044d940 f   cinder:GLee.obj
 0001:0004c980       _GLee_Lazy_wglGetPixelFormatAttribfvEXT@24 0044d980 f   cinder:GLee.obj
 0001:0004c9c0       _GLee_Lazy_wglChoosePixelFormatEXT@24 0044d9c0 f   cinder:GLee.obj
 0001:0004ca00       _GLee_Lazy_wglCreatePbufferEXT@20 0044da00 f   cinder:GLee.obj
 0001:0004ca40       _GLee_Lazy_wglGetPbufferDCEXT@4 0044da40 f   cinder:GLee.obj
 0001:0004ca70       _GLee_Lazy_wglReleasePbufferDCEXT@8 0044da70 f   cinder:GLee.obj
 0001:0004caa0       _GLee_Lazy_wglDestroyPbufferEXT@4 0044daa0 f   cinder:GLee.obj
 0001:0004cad0       _GLee_Lazy_wglQueryPbufferEXT@12 0044dad0 f   cinder:GLee.obj
 0001:0004cb00       _GLee_Lazy_wglGetDigitalVideoParametersI3D@12 0044db00 f   cinder:GLee.obj
 0001:0004cb30       _GLee_Lazy_wglSetDigitalVideoParametersI3D@12 0044db30 f   cinder:GLee.obj
 0001:0004cb60       _GLee_Lazy_wglGetGammaTableParametersI3D@12 0044db60 f   cinder:GLee.obj
 0001:0004cb90       _GLee_Lazy_wglSetGammaTableParametersI3D@12 0044db90 f   cinder:GLee.obj
 0001:0004cbc0       _GLee_Lazy_wglGetGammaTableI3D@20 0044dbc0 f   cinder:GLee.obj
 0001:0004cc00       _GLee_Lazy_wglSetGammaTableI3D@20 0044dc00 f   cinder:GLee.obj
 0001:0004cc40       _GLee_Lazy_wglEnableGenlockI3D@4 0044dc40 f   cinder:GLee.obj
 0001:0004cc70       _GLee_Lazy_wglDisableGenlockI3D@4 0044dc70 f   cinder:GLee.obj
 0001:0004cca0       _GLee_Lazy_wglIsEnabledGenlockI3D@8 0044dca0 f   cinder:GLee.obj
 0001:0004ccd0       _GLee_Lazy_wglGenlockSourceI3D@8 0044dcd0 f   cinder:GLee.obj
 0001:0004cd00       _GLee_Lazy_wglGetGenlockSourceI3D@8 0044dd00 f   cinder:GLee.obj
 0001:0004cd30       _GLee_Lazy_wglGenlockSourceEdgeI3D@8 0044dd30 f   cinder:GLee.obj
 0001:0004cd60       _GLee_Lazy_wglGetGenlockSourceEdgeI3D@8 0044dd60 f   cinder:GLee.obj
 0001:0004cd90       _GLee_Lazy_wglGenlockSampleRateI3D@8 0044dd90 f   cinder:GLee.obj
 0001:0004cdc0       _GLee_Lazy_wglGetGenlockSampleRateI3D@8 0044ddc0 f   cinder:GLee.obj
 0001:0004cdf0       _GLee_Lazy_wglGenlockSourceDelayI3D@8 0044ddf0 f   cinder:GLee.obj
 0001:0004ce20       _GLee_Lazy_wglGetGenlockSourceDelayI3D@8 0044de20 f   cinder:GLee.obj
 0001:0004ce50       _GLee_Lazy_wglQueryGenlockMaxSourceDelayI3D@12 0044de50 f   cinder:GLee.obj
 0001:0004ce80       _GLee_Lazy_wglCreateImageBufferI3D@12 0044de80 f   cinder:GLee.obj
 0001:0004ceb0       _GLee_Lazy_wglDestroyImageBufferI3D@8 0044deb0 f   cinder:GLee.obj
 0001:0004cee0       _GLee_Lazy_wglAssociateImageBufferEventsI3D@20 0044dee0 f   cinder:GLee.obj
 0001:0004cf20       _GLee_Lazy_wglReleaseImageBufferEventsI3D@12 0044df20 f   cinder:GLee.obj
 0001:0004cf50       _GLee_Lazy_wglEnableFrameLockI3D@0 0044df50 f   cinder:GLee.obj
 0001:0004cf70       _GLee_Lazy_wglDisableFrameLockI3D@0 0044df70 f   cinder:GLee.obj
 0001:0004cf90       _GLee_Lazy_wglIsEnabledFrameLockI3D@4 0044df90 f   cinder:GLee.obj
 0001:0004cfc0       _GLee_Lazy_wglQueryFrameLockMasterI3D@4 0044dfc0 f   cinder:GLee.obj
 0001:0004cff0       _GLee_Lazy_wglEnumerateVideoDevicesNV@8 0044dff0 f   cinder:GLee.obj
 0001:0004d020       _GLee_Lazy_wglBindVideoDeviceNV@16 0044e020 f   cinder:GLee.obj
 0001:0004d050       _GLee_Lazy_wglQueryCurrentContextNV@8 0044e050 f   cinder:GLee.obj
 0001:0004d080       _GLee_Lazy_wglJoinSwapGroupNV@8 0044e080 f   cinder:GLee.obj
 0001:0004d0b0       _GLee_Lazy_wglBindSwapBarrierNV@8 0044e0b0 f   cinder:GLee.obj
 0001:0004d0e0       _GLee_Lazy_wglQuerySwapGroupNV@12 0044e0e0 f   cinder:GLee.obj
 0001:0004d110       _GLee_Lazy_wglQueryMaxSwapGroupsNV@12 0044e110 f   cinder:GLee.obj
 0001:0004d140       _GLee_Lazy_wglQueryFrameCountNV@8 0044e140 f   cinder:GLee.obj
 0001:0004d170       _GLee_Lazy_wglResetFrameCountNV@4 0044e170 f   cinder:GLee.obj
 0001:0004d1a0       _GLee_Lazy_wglEnumGpusNV@8 0044e1a0 f   cinder:GLee.obj
 0001:0004d1d0       _GLee_Lazy_wglEnumGpuDevicesNV@12 0044e1d0 f   cinder:GLee.obj
 0001:0004d200       _GLee_Lazy_wglCreateAffinityDCNV@4 0044e200 f   cinder:GLee.obj
 0001:0004d230       _GLee_Lazy_wglEnumGpusFromAffinityDCNV@12 0044e230 f   cinder:GLee.obj
 0001:0004d260       _GLee_Lazy_wglDeleteDCNV@4 0044e260 f   cinder:GLee.obj
 0001:0004d290       _GLee_Lazy_wglCreateDisplayColorTableEXT@4 0044e290 f   cinder:GLee.obj
 0001:0004d2c0       _GLee_Lazy_wglLoadDisplayColorTableEXT@8 0044e2c0 f   cinder:GLee.obj
 0001:0004d2f0       _GLee_Lazy_wglBindDisplayColorTableEXT@4 0044e2f0 f   cinder:GLee.obj
 0001:0004d320       _GLee_Lazy_wglDestroyDisplayColorTableEXT@4 0044e320 f   cinder:GLee.obj
 0001:0004d340       _GLee_Lazy_wglGetExtensionsStringEXT@0 0044e340 f   cinder:GLee.obj
 0001:0004d360       _GLee_Lazy_wglSwapIntervalEXT@4 0044e360 f   cinder:GLee.obj
 0001:0004d390       _GLee_Lazy_wglGetSwapIntervalEXT@0 0044e390 f   cinder:GLee.obj
 0001:0004d3b0       _GLee_Lazy_wglAllocateMemoryNV@16 0044e3b0 f   cinder:GLee.obj
 0001:0004d3f0       _GLee_Lazy_wglFreeMemoryNV@4 0044e3f0 f   cinder:GLee.obj
 0001:0004d410       _GLee_Lazy_wglGetSyncValuesOML@16 0044e410 f   cinder:GLee.obj
 0001:0004d440       _GLee_Lazy_wglGetMscRateOML@12 0044e440 f   cinder:GLee.obj
 0001:0004d470       _GLee_Lazy_wglSwapBuffersMscOML@28 0044e470 f   cinder:GLee.obj
 0001:0004d4b0       _GLee_Lazy_wglSwapLayerBuffersMscOML@32 0044e4b0 f   cinder:GLee.obj
 0001:0004d4f0       _GLee_Lazy_wglWaitForMscOML@40 0044e4f0 f   cinder:GLee.obj
 0001:0004d540       _GLee_Lazy_wglWaitForSbcOML@24 0044e540 f   cinder:GLee.obj
 0001:0004d580       _GLee_Lazy_wglGetFrameUsageI3D@4 0044e580 f   cinder:GLee.obj
 0001:0004d5b0       _GLee_Lazy_wglBeginFrameTrackingI3D@0 0044e5b0 f   cinder:GLee.obj
 0001:0004d5d0       _GLee_Lazy_wglEndFrameTrackingI3D@0 0044e5d0 f   cinder:GLee.obj
 0001:0004d5f0       _GLee_Lazy_wglQueryFrameTrackingI3D@12 0044e5f0 f   cinder:GLee.obj
 0001:0004d620       _GLee_Lazy_wglGetVideoDeviceNV@12 0044e620 f   cinder:GLee.obj
 0001:0004d650       _GLee_Lazy_wglReleaseVideoDeviceNV@4 0044e650 f   cinder:GLee.obj
 0001:0004d680       _GLee_Lazy_wglBindVideoImageNV@12 0044e680 f   cinder:GLee.obj
 0001:0004d6b0       _GLee_Lazy_wglReleaseVideoImageNV@8 0044e6b0 f   cinder:GLee.obj
 0001:0004d6e0       _GLee_Lazy_wglSendPbufferToVideoNV@16 0044e6e0 f   cinder:GLee.obj
 0001:0004d710       _GLee_Lazy_wglGetVideoInfoNV@12 0044e710 f   cinder:GLee.obj
 0001:0004d740       _GLeeEnabled               0044e740 f   cinder:GLee.obj
 0001:0004d760       ?getDc@Renderer@app@cinder@@UAEPAUHDC__@@XZ 0044e760 f i cinder:Renderer.obj
 0001:0004d760       ?setRow@ImageTarget@cinder@@UAEXHPBX@Z 0044e760 f i cinder:Surface.obj
 0001:0004d770       ??_GRenderer@app@cinder@@UAEPAXI@Z 0044e770 f i cinder:Renderer.obj
 0001:0004d770       ??_ERenderer@app@cinder@@UAEPAXI@Z 0044e770 f i cinder:Renderer.obj
 0001:0004d7a0       ?getHwnd@RendererGl@app@cinder@@UAEPAUHWND__@@XZ 0044e7a0 f i cinder:Renderer.obj
 0001:0004d7b0       ?setAntiAliasing@RendererGl@app@cinder@@QAEXH@Z 0044e7b0 f   cinder:Renderer.obj
 0001:0004d7c0       ?setup@RendererGl@app@cinder@@UAEXPAVApp@23@PAUHWND__@@PAUHDC__@@@Z 0044e7c0 f   cinder:Renderer.obj
 0001:0004d850       ?kill@RendererGl@app@cinder@@UAEXXZ 0044e850 f   cinder:Renderer.obj
 0001:0004d860       ?prepareToggleFullScreen@RendererGl@app@cinder@@UAEXXZ 0044e860 f   cinder:Renderer.obj
 0001:0004d870       ?finishToggleFullScreen@RendererGl@app@cinder@@UAEXXZ 0044e870 f   cinder:Renderer.obj
 0001:0004d880       ?startDraw@RendererGl@app@cinder@@UAEXXZ 0044e880 f   cinder:Renderer.obj
 0001:0004d890       ?finishDraw@RendererGl@app@cinder@@UAEXXZ 0044e890 f   cinder:Renderer.obj
 0001:0004d8a0       ?defaultResize@RendererGl@app@cinder@@UAEXXZ 0044e8a0 f   cinder:Renderer.obj
 0001:0004d8b0       ??0RendererGl@app@cinder@@QAE@XZ 0044e8b0 f   cinder:Renderer.obj
 0001:0004d8d0       ??_GRendererGl@app@cinder@@UAEPAXI@Z 0044e8d0 f i cinder:Renderer.obj
 0001:0004d8d0       ??_ERendererGl@app@cinder@@UAEPAXI@Z 0044e8d0 f i cinder:Renderer.obj
 0001:0004d910       ?copyWindowSurface@RendererGl@app@cinder@@UAE?AV?$SurfaceT@E@3@ABV?$AreaT@H@3@@Z 0044e910 f   cinder:Renderer.obj
 0001:0004da10       ?getWindowWidth@AppBasic@app@cinder@@UBEHXZ 0044ea10 f   cinder:AppBasic.obj
 0001:0004da20       ?getWindowHeight@AppBasic@app@cinder@@UBEHXZ 0044ea20 f   cinder:AppBasic.obj
 0001:0004da30       ?setWindowWidth@AppBasic@app@cinder@@UAEXH@Z 0044ea30 f   cinder:AppBasic.obj
 0001:0004da50       ?setWindowHeight@AppBasic@app@cinder@@UAEXH@Z 0044ea50 f   cinder:AppBasic.obj
 0001:0004da70       ?setWindowSize@AppBasic@app@cinder@@UAEXHH@Z 0044ea70 f   cinder:AppBasic.obj
 0001:0004da90       ?setWindowPos@AppBasic@app@cinder@@UAEXABV?$Vec2@H@3@@Z 0044ea90 f   cinder:AppBasic.obj
 0001:0004daa0       ?getFrameRate@AppBasic@app@cinder@@UBEMXZ 0044eaa0 f   cinder:AppBasic.obj
 0001:0004dab0       ?setFrameRate@AppBasic@app@cinder@@UAEXM@Z 0044eab0 f   cinder:AppBasic.obj
 0001:0004dad0       ?isFullScreen@AppBasic@app@cinder@@UBE_NXZ 0044ead0 f   cinder:AppBasic.obj
 0001:0004dae0       ?setFullScreen@AppBasic@app@cinder@@UAEX_N@Z 0044eae0 f   cinder:AppBasic.obj
 0001:0004db10       ?isBorderless@AppBasic@app@cinder@@UBE_NXZ 0044eb10 f   cinder:AppBasic.obj
 0001:0004db20       ?setBorderless@AppBasic@app@cinder@@UAEX_N@Z 0044eb20 f   cinder:AppBasic.obj
 0001:0004db30       ?isAlwaysOnTop@AppBasic@app@cinder@@UBE_NXZ 0044eb30 f   cinder:AppBasic.obj
 0001:0004db40       ?setAlwaysOnTop@AppBasic@app@cinder@@UAEX_N@Z 0044eb40 f   cinder:AppBasic.obj
 0001:0004db50       ?quit@AppBasic@app@cinder@@UAEXXZ 0044eb50 f   cinder:AppBasic.obj
 0001:0004db60       ?privateResize__@AppBasic@app@cinder@@UAEXABVResizeEvent@23@@Z 0044eb60 f   cinder:AppBasic.obj
 0001:0004db70       ?getWindowPos@AppBasic@app@cinder@@UBE?AV?$Vec2@H@3@XZ 0044eb70 f   cinder:AppBasic.obj
 0001:0004db90       ?allocate@?$allocator@VTouch@TouchEvent@app@cinder@@@std@@QAEPAVTouch@TouchEvent@app@cinder@@I@Z 0044eb90 f i cinder:AppBasic.obj
 0001:0004dbf0       ?_Buy@?$vector@VTouch@TouchEvent@app@cinder@@V?$allocator@VTouch@TouchEvent@app@cinder@@@std@@@std@@IAE_NI@Z 0044ebf0 f i cinder:AppBasic.obj
 0001:0004dc50       ?getAppPath@AppBasic@app@cinder@@UAE?AVpath@filesystem3@boost@@XZ 0044ec50 f   cinder:AppBasic.obj
 0001:0004dc80       ?assign@?$basic_string@_WU?$char_traits@_W@std@@V?$allocator@_W@2@@std@@QAEAAV12@PB_WI@Z 0044ec80 f i cinder:AppBasic.obj
 0001:0004dd70       ??0Settings@AppBasic@app@cinder@@QAE@XZ 0044ed70 f   cinder:AppBasic.obj
 0001:0004de10       ??$_Uninit_copy@V?$_Vector_const_iterator@V?$_Vector_val@VTouch@TouchEvent@app@cinder@@V?$allocator@VTouch@TouchEvent@app@cinder@@@std@@@std@@@std@@PAVTouch@TouchEvent@app@cinder@@V?$allocator@VTouch@TouchEvent@app@cinder@@@2@@std@@YAPAVTouch@TouchEvent@app@cinder@@V?$_Vector_const_iterator@V?$_Vector_val@VTouch@TouchEvent@app@cinder@@V?$allocator@VTouch@TouchEvent@app@cinder@@@std@@@std@@@0@0PAV1234@AAV?$allocator@VTouch@TouchEvent@app@cinder@@@0@U_Nonscalar_ptr_iterator_tag@0@@Z 0044ee10 f i cinder:AppBasic.obj
 0001:0004de60       ??0?$basic_string@_WU?$char_traits@_W@std@@V?$allocator@_W@2@@std@@QAE@PB_W@Z 0044ee60 f i cinder:AppBasic.obj
 0001:0004deb0       ??0?$vector@VTouch@TouchEvent@app@cinder@@V?$allocator@VTouch@TouchEvent@app@cinder@@@std@@@std@@QAE@ABV01@@Z 0044eeb0 f i cinder:AppBasic.obj
 0001:0004df90       ??$_Destroy_range@V?$allocator@U?$pair@IV?$function@$$A6A_NVFileDropEvent@app@cinder@@@Z@tr1@std@@@std@@@std@@@std@@YAXPAU?$pair@IV?$function@$$A6A_NVFileDropEvent@app@cinder@@@Z@tr1@std@@@0@0AAV?$allocator@U?$pair@IV?$function@$$A6A_NVFileDropEvent@app@cinder@@@Z@tr1@std@@@std@@@0@U_Nonscalar_ptr_iterator_tag@0@@Z 0044ef90 f i cinder:App.obj
 0001:0004df90       ??$_Destroy_range@V?$allocator@U?$pair@IV?$function@$$A6A_NVKeyEvent@app@cinder@@@Z@tr1@std@@@std@@@std@@@std@@YAXPAU?$pair@IV?$function@$$A6A_NVKeyEvent@app@cinder@@@Z@tr1@std@@@0@0AAV?$allocator@U?$pair@IV?$function@$$A6A_NVKeyEvent@app@cinder@@@Z@tr1@std@@@std@@@0@U_Nonscalar_ptr_iterator_tag@0@@Z 0044ef90 f i cinder:App.obj
 0001:0004df90       ??$_Destroy_range@V?$allocator@U?$pair@IV?$function@$$A6A_NVTouchEvent@app@cinder@@@Z@tr1@std@@@std@@@std@@@std@@YAXPAU?$pair@IV?$function@$$A6A_NVTouchEvent@app@cinder@@@Z@tr1@std@@@0@0AAV?$allocator@U?$pair@IV?$function@$$A6A_NVTouchEvent@app@cinder@@@Z@tr1@std@@@std@@@0@U_Nonscalar_ptr_iterator_tag@0@@Z 0044ef90 f i cinder:AppBasic.obj
 0001:0004df90       ??$_Destroy_range@V?$allocator@U?$pair@IV?$function@$$A6A_NVResizeEvent@app@cinder@@@Z@tr1@std@@@std@@@std@@@std@@YAXPAU?$pair@IV?$function@$$A6A_NVResizeEvent@app@cinder@@@Z@tr1@std@@@0@0AAV?$allocator@U?$pair@IV?$function@$$A6A_NVResizeEvent@app@cinder@@@Z@tr1@std@@@std@@@0@U_Nonscalar_ptr_iterator_tag@0@@Z 0044ef90 f i cinder:App.obj
 0001:0004df90       ??$_Destroy_range@V?$allocator@U?$pair@IV?$function@$$A6A_NVMouseEvent@app@cinder@@@Z@tr1@std@@@std@@@std@@@std@@YAXPAU?$pair@IV?$function@$$A6A_NVMouseEvent@app@cinder@@@Z@tr1@std@@@0@0AAV?$allocator@U?$pair@IV?$function@$$A6A_NVMouseEvent@app@cinder@@@Z@tr1@std@@@std@@@0@U_Nonscalar_ptr_iterator_tag@0@@Z 0044ef90 f i cinder:App.obj
 0001:0004dfd0       ??_GTouchEvent@app@cinder@@UAEPAXI@Z 0044efd0 f i cinder:AppBasic.obj
 0001:0004dfd0       ??_ETouchEvent@app@cinder@@UAEPAXI@Z 0044efd0 f i cinder:AppBasic.obj
 0001:0004e020       ?privateTouchesBegan__@AppBasic@app@cinder@@QAEXABVTouchEvent@23@@Z 0044f020 f   cinder:AppBasic.obj
 0001:0004e180       ?privateTouchesMoved__@AppBasic@app@cinder@@QAEXABVTouchEvent@23@@Z 0044f180 f   cinder:AppBasic.obj
 0001:0004e2e0       ?privateTouchesEnded__@AppBasic@app@cinder@@QAEXABVTouchEvent@23@@Z 0044f2e0 f   cinder:AppBasic.obj
 0001:0004e440       ??1?$CallbackMgr@$$A6A_NVMouseEvent@app@cinder@@@Z@cinder@@QAE@XZ 0044f440 f i cinder:App.obj
 0001:0004e440       ??1?$CallbackMgr@$$A6A_NVKeyEvent@app@cinder@@@Z@cinder@@QAE@XZ 0044f440 f i cinder:App.obj
 0001:0004e440       ??1?$CallbackMgr@$$A6A_NVResizeEvent@app@cinder@@@Z@cinder@@QAE@XZ 0044f440 f i cinder:App.obj
 0001:0004e440       ??1?$CallbackMgr@$$A6A_NVTouchEvent@app@cinder@@@Z@cinder@@QAE@XZ 0044f440 f i cinder:AppBasic.obj
 0001:0004e490       ??1AppBasic@app@cinder@@UAE@XZ 0044f490 f   cinder:AppBasic.obj
 0001:0004e670       ??0AppBasic@app@cinder@@QAE@XZ 0044f670 f   cinder:AppBasic.obj
 0001:0004e730       ??_GAppBasic@app@cinder@@UAEPAXI@Z 0044f730 f i cinder:AppBasic.obj
 0001:0004e730       ??_EAppBasic@app@cinder@@UAEPAXI@Z 0044f730 f i cinder:AppBasic.obj
 0001:0004e760       ?executeLaunch@AppBasic@app@cinder@@SAXPAV123@PAVRenderer@23@PBD@Z 0044f760 f   cinder:AppBasic.obj
 0001:0004e970       ?launch@AppBasic@app@cinder@@UAEXPBDHQBQAD@Z 0044f970 f   cinder:AppBasic.obj
 0001:0004eaf0       ??1clone_base@exception_detail@boost@@UAE@XZ 0044faf0 f i cinder:ObjLoader.obj
 0001:0004eb00       ??_Gclone_base@exception_detail@boost@@UAEPAXI@Z 0044fb00 f i cinder:ObjLoader.obj
 0001:0004eb00       ??_Eclone_base@exception_detail@boost@@UAEPAXI@Z 0044fb00 f i cinder:ObjLoader.obj
 0001:0004eb30       ?what@bad_lexical_cast@boost@@UBEPBDXZ 0044fb30 f i cinder:ObjLoader.obj
 0001:0004eb40       ??1bad_lexical_cast@boost@@UAE@XZ 0044fb40 f i cinder:ObjLoader.obj
 0001:0004eb50       ??_Gbad_lexical_cast@boost@@UAEPAXI@Z 0044fb50 f i cinder:ObjLoader.obj
 0001:0004eb50       ??_Ebad_lexical_cast@boost@@UAEPAXI@Z 0044fb50 f i cinder:ObjLoader.obj
 0001:0004eb80       ??1?$basic_istream@DU?$char_traits@D@std@@@std@@UAE@XZ 0044fb80 f i cinder:ObjLoader.obj
 0001:0004eb90       ??1?$basic_iostream@DU?$char_traits@D@std@@@std@@UAE@XZ 0044fb90 f i cinder:ObjLoader.obj
 0001:0004ebc0       ?_Rrotate@?$_Tree@V?$_Tmap_traits@V?$tuple@HHHUnull_type@tuples@boost@@U123@U123@U123@U123@U123@U123@@tuples@boost@@HU?$less@V?$tuple@HHHUnull_type@tuples@boost@@U123@U123@U123@U123@U123@U123@@tuples@boost@@@std@@V?$allocator@U?$pair@$$CBV?$tuple@HHHUnull_type@tuples@boost@@U123@U123@U123@U123@U123@U123@@tuples@boost@@H@std@@@5@$0A@@std@@@std@@IAEXPAU_Node@?$_Tree_nod@V?$_Tmap_traits@V?$tuple@HHHUnull_type@tuples@boost@@U123@U123@U123@U123@U123@U123@@tuples@boost@@HU?$less@V?$tuple@HHHUnull_type@tuples@boost@@U123@U123@U123@U123@U123@U123@@tuples@boost@@@std@@V?$allocator@U?$pair@$$CBV?$tuple@HHHUnull_type@tuples@boost@@U123@U123@U123@U123@U123@U123@@tuples@boost@@H@std@@@5@$0A@@std@@@2@@Z 0044fbc0 f i cinder:ObjLoader.obj
 0001:0004ec20       ?_Max@?$_Tree_val@V?$_Tmap_traits@V?$tuple@HHHUnull_type@tuples@boost@@U123@U123@U123@U123@U123@U123@@tuples@boost@@HU?$less@V?$tuple@HHHUnull_type@tuples@boost@@U123@U123@U123@U123@U123@U123@@tuples@boost@@@std@@V?$allocator@U?$pair@$$CBV?$tuple@HHHUnull_type@tuples@boost@@U123@U123@U123@U123@U123@U123@@tuples@boost@@H@std@@@5@$0A@@std@@@std@@SAPAU_Node@?$_Tree_nod@V?$_Tmap_traits@V?$tuple@HHHUnull_type@tuples@boost@@U123@U123@U123@U123@U123@U123@@tuples@boost@@HU?$less@V?$tuple@HHHUnull_type@tuples@boost@@U123@U123@U123@U123@U123@U123@@tuples@boost@@@std@@V?$allocator@U?$pair@$$CBV?$tuple@HHHUnull_type@tuples@boost@@U123@U123@U123@U123@U123@U123@@tuples@boost@@H@std@@@5@$0A@@std@@@2@PAU342@@Z 0044fc20 f i cinder:ObjLoader.obj
 0001:0004ec40       ?_Min@?$_Tree_val@V?$_Tmap_traits@V?$tuple@HHHUnull_type@tuples@boost@@U123@U123@U123@U123@U123@U123@@tuples@boost@@HU?$less@V?$tuple@HHHUnull_type@tuples@boost@@U123@U123@U123@U123@U123@U123@@tuples@boost@@@std@@V?$allocator@U?$pair@$$CBV?$tuple@HHHUnull_type@tuples@boost@@U123@U123@U123@U123@U123@U123@@tuples@boost@@H@std@@@5@$0A@@std@@@std@@SAPAU_Node@?$_Tree_nod@V?$_Tmap_traits@V?$tuple@HHHUnull_type@tuples@boost@@U123@U123@U123@U123@U123@U123@@tuples@boost@@HU?$less@V?$tuple@HHHUnull_type@tuples@boost@@U123@U123@U123@U123@U123@U123@@tuples@boost@@@std@@V?$allocator@U?$pair@$$CBV?$tuple@HHHUnull_type@tuples@boost@@U123@U123@U123@U123@U123@U123@@tuples@boost@@H@std@@@5@$0A@@std@@@2@PAU342@@Z 0044fc40 f i cinder:ObjLoader.obj
 0001:0004ec60       ?_Max@?$_Tree_val@V?$_Tmap_traits@HP6A?AV?$shared_ptr@VImageSource@cinder@@@tr1@std@@V?$shared_ptr@VDataSource@cinder@@@23@VOptions@ImageSource@cinder@@@ZU?$less@H@3@V?$allocator@U?$pair@$$CBHP6A?AV?$shared_ptr@VImageSource@cinder@@@tr1@std@@V?$shared_ptr@VDataSource@cinder@@@23@VOptions@ImageSource@cinder@@@Z@std@@@3@$0A@@std@@@std@@SAPAU_Node@?$_Tree_nod@V?$_Tmap_traits@HP6A?AV?$shared_ptr@VImageSource@cinder@@@tr1@std@@V?$shared_ptr@VDataSource@cinder@@@23@VOptions@ImageSource@cinder@@@ZU?$less@H@3@V?$allocator@U?$pair@$$CBHP6A?AV?$shared_ptr@VImageSource@cinder@@@tr1@std@@V?$shared_ptr@VDataSource@cinder@@@23@VOptions@ImageSource@cinder@@@Z@std@@@3@$0A@@std@@@2@PAU342@@Z 0044fc60 f i cinder:ImageIo.obj
 0001:0004ec60       ?_Max@?$_Tree_val@V?$_Tmap_traits@HP6A?AV?$shared_ptr@VImageSource@cinder@@@tr1@std@@V?$shared_ptr@VDataSource@cinder@@@23@VOptions@ImageSource@cinder@@@ZU?$less@H@3@V?$allocator@U?$pair@$$CBHP6A?AV?$shared_ptr@VImageSource@cinder@@@tr1@std@@V?$shared_ptr@VDataSource@cinder@@@23@VOptions@ImageSource@cinder@@@Z@std@@@3@$00@std@@@std@@SAPAU_Node@?$_Tree_nod@V?$_Tmap_traits@HP6A?AV?$shared_ptr@VImageSource@cinder@@@tr1@std@@V?$shared_ptr@VDataSource@cinder@@@23@VOptions@ImageSource@cinder@@@ZU?$less@H@3@V?$allocator@U?$pair@$$CBHP6A?AV?$shared_ptr@VImageSource@cinder@@@tr1@std@@V?$shared_ptr@VDataSource@cinder@@@23@VOptions@ImageSource@cinder@@@Z@std@@@3@$00@std@@@2@PAU342@@Z 0044fc60 f i cinder:ImageIo.obj
 0001:0004ec60       ?_Max@?$_Tree_val@V?$_Tmap_traits@HHU?$less@H@std@@V?$allocator@U?$pair@$$CBHH@std@@@2@$0A@@std@@@std@@SAPAU_Node@?$_Tree_nod@V?$_Tmap_traits@HHU?$less@H@std@@V?$allocator@U?$pair@$$CBHH@std@@@2@$0A@@std@@@2@PAU342@@Z 0044fc60 f i cinder:ObjLoader.obj
 0001:0004ec80       ??E?$_Tree_unchecked_const_iterator@V?$_Tree_val@V?$_Tmap_traits@V?$tuple@HHHUnull_type@tuples@boost@@U123@U123@U123@U123@U123@U123@@tuples@boost@@HU?$less@V?$tuple@HHHUnull_type@tuples@boost@@U123@U123@U123@U123@U123@U123@@tuples@boost@@@std@@V?$allocator@U?$pair@$$CBV?$tuple@HHHUnull_type@tuples@boost@@U123@U123@U123@U123@U123@U123@@tuples@boost@@H@std@@@5@$0A@@std@@@std@@U_Iterator_base0@2@@std@@QAEAAV01@XZ 0044fc80 f i cinder:ObjLoader.obj
 0001:0004ecd0       ??E?$_Tree_unchecked_const_iterator@V?$_Tree_val@V?$_Tmap_traits@V?$tuple@HHUnull_type@tuples@boost@@U123@U123@U123@U123@U123@U123@U123@@tuples@boost@@HU?$less@V?$tuple@HHUnull_type@tuples@boost@@U123@U123@U123@U123@U123@U123@U123@@tuples@boost@@@std@@V?$allocator@U?$pair@$$CBV?$tuple@HHUnull_type@tuples@boost@@U123@U123@U123@U123@U123@U123@U123@@tuples@boost@@H@std@@@5@$0A@@std@@@std@@U_Iterator_base0@2@@std@@QAEAAV01@XZ 0044fcd0 f i cinder:ObjLoader.obj
 0001:0004ecd0       ??E?$_Tree_unchecked_const_iterator@V?$_Tree_val@V?$_Tmap_traits@KV?$Vec2@M@cinder@@U?$less@K@std@@V?$allocator@U?$pair@$$CBKV?$Vec2@M@cinder@@@std@@@4@$0A@@std@@@std@@U_Iterator_base0@2@@std@@QAEAAV01@XZ 0044fcd0 f i cinder:AppImplMswBasic.obj
 0001:0004ecd0       ??E?$_Tree_unchecked_const_iterator@V?$_Tree_val@V?$_Tmap_traits@PAXV?$shared_ptr@VTimelineItem@cinder@@@tr1@std@@U?$less@PAX@3@V?$allocator@U?$pair@QAXV?$shared_ptr@VTimelineItem@cinder@@@tr1@std@@@std@@@3@$00@std@@@std@@U_Iterator_base0@2@@std@@QAEAAV01@XZ 0044fcd0 f i cinder:Timeline.obj
 0001:0004ed20       ??E?$_Tree_unchecked_const_iterator@V?$_Tree_val@V?$_Tmap_traits@HHU?$less@H@std@@V?$allocator@U?$pair@$$CBHH@std@@@2@$0A@@std@@@std@@U_Iterator_base0@2@@std@@QAEAAV01@XZ 0044fd20 f i cinder:ObjLoader.obj
 0001:0004ed20       ??E?$_Tree_unchecked_const_iterator@V?$_Tree_val@V?$_Tmap_traits@HP6A?AV?$shared_ptr@VImageSource@cinder@@@tr1@std@@V?$shared_ptr@VDataSource@cinder@@@23@VOptions@ImageSource@cinder@@@ZU?$less@H@3@V?$allocator@U?$pair@$$CBHP6A?AV?$shared_ptr@VImageSource@cinder@@@tr1@std@@V?$shared_ptr@VDataSource@cinder@@@23@VOptions@ImageSource@cinder@@@Z@std@@@3@$0A@@std@@@std@@U_Iterator_base0@2@@std@@QAEAAV01@XZ 0044fd20 f i cinder:ImageIo.obj
 0001:0004ed20       ??E?$_Tree_unchecked_const_iterator@V?$_Tree_val@V?$_Tmap_traits@HP6A?AV?$shared_ptr@VImageSource@cinder@@@tr1@std@@V?$shared_ptr@VDataSource@cinder@@@23@VOptions@ImageSource@cinder@@@ZU?$less@H@3@V?$allocator@U?$pair@$$CBHP6A?AV?$shared_ptr@VImageSource@cinder@@@tr1@std@@V?$shared_ptr@VDataSource@cinder@@@23@VOptions@ImageSource@cinder@@@Z@std@@@3@$00@std@@@std@@U_Iterator_base0@2@@std@@QAEAAV01@XZ 0044fd20 f i cinder:ImageIo.obj
 0001:0004ed70       ??F?$_Tree_unchecked_const_iterator@V?$_Tree_val@V?$_Tmap_traits@V?$tuple@HHHUnull_type@tuples@boost@@U123@U123@U123@U123@U123@U123@@tuples@boost@@HU?$less@V?$tuple@HHHUnull_type@tuples@boost@@U123@U123@U123@U123@U123@U123@@tuples@boost@@@std@@V?$allocator@U?$pair@$$CBV?$tuple@HHHUnull_type@tuples@boost@@U123@U123@U123@U123@U123@U123@@tuples@boost@@H@std@@@5@$0A@@std@@@std@@U_Iterator_base0@2@@std@@QAEAAV01@XZ 0044fd70 f i cinder:ObjLoader.obj
 0001:0004edd0       ??F?$_Tree_unchecked_const_iterator@V?$_Tree_val@V?$_Tmap_traits@V?$tuple@HHUnull_type@tuples@boost@@U123@U123@U123@U123@U123@U123@U123@@tuples@boost@@HU?$less@V?$tuple@HHUnull_type@tuples@boost@@U123@U123@U123@U123@U123@U123@U123@@tuples@boost@@@std@@V?$allocator@U?$pair@$$CBV?$tuple@HHUnull_type@tuples@boost@@U123@U123@U123@U123@U123@U123@U123@@tuples@boost@@H@std@@@5@$0A@@std@@@std@@U_Iterator_base0@2@@std@@QAEAAV01@XZ 0044fdd0 f i cinder:ObjLoader.obj
 0001:0004edd0       ??F?$_Tree_unchecked_const_iterator@V?$_Tree_val@V?$_Tmap_traits@KV?$Vec2@M@cinder@@U?$less@K@std@@V?$allocator@U?$pair@$$CBKV?$Vec2@M@cinder@@@std@@@4@$0A@@std@@@std@@U_Iterator_base0@2@@std@@QAEAAV01@XZ 0044fdd0 f i cinder:AppImplMswBasic.obj
 0001:0004ee30       ??F?$_Tree_unchecked_const_iterator@V?$_Tree_val@V?$_Tmap_traits@HP6A?AV?$shared_ptr@VImageSource@cinder@@@tr1@std@@V?$shared_ptr@VDataSource@cinder@@@23@VOptions@ImageSource@cinder@@@ZU?$less@H@3@V?$allocator@U?$pair@$$CBHP6A?AV?$shared_ptr@VImageSource@cinder@@@tr1@std@@V?$shared_ptr@VDataSource@cinder@@@23@VOptions@ImageSource@cinder@@@Z@std@@@3@$0A@@std@@@std@@U_Iterator_base0@2@@std@@QAEAAV01@XZ 0044fe30 f i cinder:ImageIo.obj
 0001:0004ee30       ??F?$_Tree_unchecked_const_iterator@V?$_Tree_val@V?$_Tmap_traits@HHU?$less@H@std@@V?$allocator@U?$pair@$$CBHH@std@@@2@$0A@@std@@@std@@U_Iterator_base0@2@@std@@QAEAAV01@XZ 0044fe30 f i cinder:ObjLoader.obj
 0001:0004ee90       ??0bad_lexical_cast@boost@@QAE@ABV01@@Z 0044fe90 f i cinder:ObjLoader.obj
 0001:0004eec0       ??1_Sentry_base@?$basic_ostream@DU?$char_traits@D@std@@@std@@QAE@XZ 0044fec0 f i CloudController.obj
 0001:0004eec0       ??1sentry@?$basic_istream@DU?$char_traits@D@std@@@std@@QAE@XZ 0044fec0 f i cinder:ObjLoader.obj
 0001:0004eec0       ??1_Sentry_base@?$basic_istream@DU?$char_traits@D@std@@@std@@QAE@XZ 0044fec0 f i cinder:ObjLoader.obj
 0001:0004eee0       ??A?$basic_string@DU?$char_traits@D@std@@V?$allocator@D@2@@std@@QBEABDI@Z 0044fee0 f i cinder:ObjLoader.obj
 0001:0004ef00       ??1?$refcount_ptr@Uerror_info_container@exception_detail@boost@@@exception_detail@boost@@QAE@XZ 0044ff00 f i cinder:ObjLoader.obj
 0001:0004ef20       ??_G?$basic_istream@DU?$char_traits@D@std@@@std@@UAEPAXI@Z 0044ff20 f i cinder:ObjLoader.obj
 0001:0004ef20       ??_E?$basic_istream@DU?$char_traits@D@std@@@std@@UAEPAXI@Z 0044ff20 f i cinder:ObjLoader.obj
 0001:0004ef60       ??_E?$basic_iostream@DU?$char_traits@D@std@@@std@@UAEPAXI@Z 0044ff60 f i cinder:ObjLoader.obj
 0001:0004ef60       ??_G?$basic_iostream@DU?$char_traits@D@std@@@std@@UAEPAXI@Z 0044ff60 f i cinder:ObjLoader.obj
 0001:0004efc0       ?find@?$basic_string@DU?$char_traits@D@std@@V?$allocator@D@2@@std@@QBEIPBDII@Z 0044ffc0 f i cinder:ObjLoader.obj
 0001:0004f070       ??1?$_Tree_val@V?$_Tmap_traits@V?$basic_string@DU?$char_traits@D@std@@V?$allocator@D@2@@std@@V?$multimap@HU?$pair@P6A?AV?$shared_ptr@VImageTarget@cinder@@@tr1@std@@V?$shared_ptr@VDataTarget@cinder@@@23@V?$shared_ptr@VImageSource@cinder@@@23@VOptions@ImageTarget@cinder@@ABV?$basic_string@DU?$char_traits@D@std@@V?$allocator@D@2@@3@@ZV93@@std@@U?$less@H@2@V?$allocator@U?$pair@$$CBHU?$pair@P6A?AV?$shared_ptr@VImageTarget@cinder@@@tr1@std@@V?$shared_ptr@VDataTarget@cinder@@@23@V?$shared_ptr@VImageSource@cinder@@@23@VOptions@ImageTarget@cinder@@ABV?$basic_string@DU?$char_traits@D@std@@V?$allocator@D@2@@3@@ZV93@@std@@@std@@@2@@2@U?$less@V?$basic_string@DU?$char_traits@D@std@@V?$allocator@D@2@@std@@@2@V?$allocator@U?$pair@$$CBV?$basic_string@DU?$char_traits@D@std@@V?$allocator@D@2@@std@@V?$multimap@HU?$pair@P6A?AV?$shared_ptr@VImageTarget@cinder@@@tr1@std@@V?$shared_ptr@VDataTarget@cinder@@@23@V?$shared_ptr@VImageSource@cinder@@@23@VOptions@ImageTarget@cinder@@ABV?$basic_string@DU?$char_traits@D@std@@V?$allocator@D@2@@3@@ZV93@@std@@U?$less@H@2@V?$allocator@U?$pair@$$CBHU?$pair@P6A?AV?$shared_ptr@VImageTarget@cinder@@@tr1@std@@V?$shared_ptr@VDataTarget@cinder@@@23@V?$shared_ptr@VImageSource@cinder@@@23@VOptions@ImageTarget@cinder@@ABV?$basic_string@DU?$char_traits@D@std@@V?$allocator@D@2@@3@@ZV93@@std@@@std@@@2@@2@@std@@@2@$0A@@std@@@std@@QAE@XZ 00450070 f i cinder:ImageIo.obj
 0001:0004f070       ??1?$_Tree_val@V?$_Tmap_traits@V?$basic_string@DU?$char_traits@D@std@@V?$allocator@D@2@@std@@PBU_GUID@@U?$less@V?$basic_string@DU?$char_traits@D@std@@V?$allocator@D@2@@std@@@2@V?$allocator@U?$pair@$$CBV?$basic_string@DU?$char_traits@D@std@@V?$allocator@D@2@@std@@PBU_GUID@@@std@@@2@$0A@@std@@@std@@QAE@XZ 00450070 f i cinder:ImageTargetFileWic.obj
 0001:0004f070       ??1?$_Tree_val@V?$_Tmap_traits@V?$basic_string@DU?$char_traits@D@std@@V?$allocator@D@2@@std@@V?$multimap@HP6A?AV?$shared_ptr@VImageSource@cinder@@@tr1@std@@V?$shared_ptr@VDataSource@cinder@@@23@VOptions@ImageSource@cinder@@@ZU?$less@H@3@V?$allocator@U?$pair@$$CBHP6A?AV?$shared_ptr@VImageSource@cinder@@@tr1@std@@V?$shared_ptr@VDataSource@cinder@@@23@VOptions@ImageSource@cinder@@@Z@std@@@3@@2@U?$less@V?$basic_string@DU?$char_traits@D@std@@V?$allocator@D@2@@std@@@2@V?$allocator@U?$pair@$$CBV?$basic_string@DU?$char_traits@D@std@@V?$allocator@D@2@@std@@V?$multimap@HP6A?AV?$shared_ptr@VImageSource@cinder@@@tr1@std@@V?$shared_ptr@VDataSource@cinder@@@23@VOptions@ImageSource@cinder@@@ZU?$less@H@3@V?$allocator@U?$pair@$$CBHP6A?AV?$shared_ptr@VImageSource@cinder@@@tr1@std@@V?$shared_ptr@VDataSource@cinder@@@23@VOptions@ImageSource@cinder@@@Z@std@@@3@@2@@std@@@2@$0A@@std@@@std@@QAE@XZ 00450070 f i cinder:ImageIo.obj
 0001:0004f070       ??1?$_Tree_val@V?$_Tmap_traits@HU?$pair@P6A?AV?$shared_ptr@VImageTarget@cinder@@@tr1@std@@V?$shared_ptr@VDataTarget@cinder@@@23@V?$shared_ptr@VImageSource@cinder@@@23@VOptions@ImageTarget@cinder@@ABV?$basic_string@DU?$char_traits@D@std@@V?$allocator@D@2@@3@@ZV93@@std@@U?$less@H@2@V?$allocator@U?$pair@$$CBHU?$pair@P6A?AV?$shared_ptr@VImageTarget@cinder@@@tr1@std@@V?$shared_ptr@VDataTarget@cinder@@@23@V?$shared_ptr@VImageSource@cinder@@@23@VOptions@ImageTarget@cinder@@ABV?$basic_string@DU?$char_traits@D@std@@V?$allocator@D@2@@3@@ZV93@@std@@@std@@@2@$00@std@@@std@@QAE@XZ 00450070 f i cinder:ImageIo.obj
 0001:0004f070       ??1?$_Tree_val@V?$_Tmap_traits@KV?$Vec2@M@cinder@@U?$less@K@std@@V?$allocator@U?$pair@$$CBKV?$Vec2@M@cinder@@@std@@@4@$0A@@std@@@std@@QAE@XZ 00450070 f i cinder:AppImplMswBasic.obj
 0001:0004f070       ??1?$_Tree_val@V?$_Tmap_traits@V?$tuple@HHUnull_type@tuples@boost@@U123@U123@U123@U123@U123@U123@U123@@tuples@boost@@HU?$less@V?$tuple@HHUnull_type@tuples@boost@@U123@U123@U123@U123@U123@U123@U123@@tuples@boost@@@std@@V?$allocator@U?$pair@$$CBV?$tuple@HHUnull_type@tuples@boost@@U123@U123@U123@U123@U123@U123@U123@@tuples@boost@@H@std@@@5@$0A@@std@@@std@@QAE@XZ 00450070 f i cinder:ObjLoader.obj
 0001:0004f070       ??1?$_Tree_val@V?$_Tmap_traits@HP6A?AV?$shared_ptr@VImageSource@cinder@@@tr1@std@@V?$shared_ptr@VDataSource@cinder@@@23@VOptions@ImageSource@cinder@@@ZU?$less@H@3@V?$allocator@U?$pair@$$CBHP6A?AV?$shared_ptr@VImageSource@cinder@@@tr1@std@@V?$shared_ptr@VDataSource@cinder@@@23@VOptions@ImageSource@cinder@@@Z@std@@@3@$00@std@@@std@@QAE@XZ 00450070 f i cinder:ImageIo.obj
 0001:0004f070       ??1?$_Tree_val@V?$_Tmap_traits@V?$tuple@HHHUnull_type@tuples@boost@@U123@U123@U123@U123@U123@U123@@tuples@boost@@HU?$less@V?$tuple@HHHUnull_type@tuples@boost@@U123@U123@U123@U123@U123@U123@@tuples@boost@@@std@@V?$allocator@U?$pair@$$CBV?$tuple@HHHUnull_type@tuples@boost@@U123@U123@U123@U123@U123@U123@@tuples@boost@@H@std@@@5@$0A@@std@@@std@@QAE@XZ 00450070 f i cinder:ObjLoader.obj
 0001:0004f070       ??1?$_Tree_val@V?$_Tmap_traits@PAXV?$shared_ptr@VTimelineItem@cinder@@@tr1@std@@U?$less@PAX@3@V?$allocator@U?$pair@QAXV?$shared_ptr@VTimelineItem@cinder@@@tr1@std@@@std@@@3@$00@std@@@std@@QAE@XZ 00450070 f i cinder:Timeline.obj
 0001:0004f070       ??1?$_Tree_val@V?$_Tmap_traits@V?$basic_string@DU?$char_traits@D@std@@V?$allocator@D@2@@std@@HU?$less@V?$basic_string@DU?$char_traits@D@std@@V?$allocator@D@2@@std@@@2@V?$allocator@U?$pair@$$CBV?$basic_string@DU?$char_traits@D@std@@V?$allocator@D@2@@std@@H@std@@@2@$0A@@std@@@std@@QAE@XZ 00450070 f i cinder:GlslProg.obj
 0001:0004f070       ??1?$_Tree_val@V?$_Tmap_traits@HP6A?AV?$shared_ptr@VImageSource@cinder@@@tr1@std@@V?$shared_ptr@VDataSource@cinder@@@23@VOptions@ImageSource@cinder@@@ZU?$less@H@3@V?$allocator@U?$pair@$$CBHP6A?AV?$shared_ptr@VImageSource@cinder@@@tr1@std@@V?$shared_ptr@VDataSource@cinder@@@23@VOptions@ImageSource@cinder@@@Z@std@@@3@$0A@@std@@@std@@QAE@XZ 00450070 f i cinder:ImageIo.obj
 0001:0004f070       ??1?$_Tree_val@V?$_Tmap_traits@V?$basic_string@DU?$char_traits@D@std@@V?$allocator@D@2@@std@@_NU?$less@V?$basic_string@DU?$char_traits@D@std@@V?$allocator@D@2@@std@@@2@V?$allocator@U?$pair@$$CBV?$basic_string@DU?$char_traits@D@std@@V?$allocator@D@2@@std@@_N@std@@@2@$0A@@std@@@std@@QAE@XZ 00450070 f i cinder:gl.obj
 0001:0004f070       ??1?$_Tree_val@V?$_Tmap_traits@HHU?$less@H@std@@V?$allocator@U?$pair@$$CBHH@std@@@2@$0A@@std@@@std@@QAE@XZ 00450070 f i cinder:ObjLoader.obj
 0001:0004f080       ?allocate@?$allocator@UFace@ObjLoader@cinder@@@std@@QAEPAUFace@ObjLoader@cinder@@I@Z 00450080 f i cinder:ObjLoader.obj
 0001:0004f0e0       ?allocate@?$allocator@UGroup@ObjLoader@cinder@@@std@@QAEPAUGroup@ObjLoader@cinder@@I@Z 004500e0 f i cinder:ObjLoader.obj
 0001:0004f140       ?_Lrotate@?$_Tree@V?$_Tmap_traits@V?$tuple@HHHUnull_type@tuples@boost@@U123@U123@U123@U123@U123@U123@@tuples@boost@@HU?$less@V?$tuple@HHHUnull_type@tuples@boost@@U123@U123@U123@U123@U123@U123@@tuples@boost@@@std@@V?$allocator@U?$pair@$$CBV?$tuple@HHHUnull_type@tuples@boost@@U123@U123@U123@U123@U123@U123@@tuples@boost@@H@std@@@5@$0A@@std@@@std@@IAEXPAU_Node@?$_Tree_nod@V?$_Tmap_traits@V?$tuple@HHHUnull_type@tuples@boost@@U123@U123@U123@U123@U123@U123@@tuples@boost@@HU?$less@V?$tuple@HHHUnull_type@tuples@boost@@U123@U123@U123@U123@U123@U123@@tuples@boost@@@std@@V?$allocator@U?$pair@$$CBV?$tuple@HHHUnull_type@tuples@boost@@U123@U123@U123@U123@U123@U123@@tuples@boost@@H@std@@@5@$0A@@std@@@2@@Z 00450140 f i cinder:ObjLoader.obj
 0001:0004f1a0       ?_Lrotate@?$_Tree@V?$_Tmap_traits@V?$tuple@HHUnull_type@tuples@boost@@U123@U123@U123@U123@U123@U123@U123@@tuples@boost@@HU?$less@V?$tuple@HHUnull_type@tuples@boost@@U123@U123@U123@U123@U123@U123@U123@@tuples@boost@@@std@@V?$allocator@U?$pair@$$CBV?$tuple@HHUnull_type@tuples@boost@@U123@U123@U123@U123@U123@U123@U123@@tuples@boost@@H@std@@@5@$0A@@std@@@std@@IAEXPAU_Node@?$_Tree_nod@V?$_Tmap_traits@V?$tuple@HHUnull_type@tuples@boost@@U123@U123@U123@U123@U123@U123@U123@@tuples@boost@@HU?$less@V?$tuple@HHUnull_type@tuples@boost@@U123@U123@U123@U123@U123@U123@U123@@tuples@boost@@@std@@V?$allocator@U?$pair@$$CBV?$tuple@HHUnull_type@tuples@boost@@U123@U123@U123@U123@U123@U123@U123@@tuples@boost@@H@std@@@5@$0A@@std@@@2@@Z 004501a0 f i cinder:ObjLoader.obj
 0001:0004f1a0       ?_Lrotate@?$_Tree@V?$_Tmap_traits@KV?$Vec2@M@cinder@@U?$less@K@std@@V?$allocator@U?$pair@$$CBKV?$Vec2@M@cinder@@@std@@@4@$0A@@std@@@std@@IAEXPAU_Node@?$_Tree_nod@V?$_Tmap_traits@KV?$Vec2@M@cinder@@U?$less@K@std@@V?$allocator@U?$pair@$$CBKV?$Vec2@M@cinder@@@std@@@4@$0A@@std@@@2@@Z 004501a0 f i cinder:AppImplMswBasic.obj
 0001:0004f1a0       ?_Lrotate@?$_Tree@V?$_Tmap_traits@PAXV?$shared_ptr@VTimelineItem@cinder@@@tr1@std@@U?$less@PAX@3@V?$allocator@U?$pair@QAXV?$shared_ptr@VTimelineItem@cinder@@@tr1@std@@@std@@@3@$00@std@@@std@@IAEXPAU_Node@?$_Tree_nod@V?$_Tmap_traits@PAXV?$shared_ptr@VTimelineItem@cinder@@@tr1@std@@U?$less@PAX@3@V?$allocator@U?$pair@QAXV?$shared_ptr@VTimelineItem@cinder@@@tr1@std@@@std@@@3@$00@std@@@2@@Z 004501a0 f i cinder:Timeline.obj
 0001:0004f200       ?_Lrotate@?$_Tree@V?$_Tmap_traits@HHU?$less@H@std@@V?$allocator@U?$pair@$$CBHH@std@@@2@$0A@@std@@@std@@IAEXPAU_Node@?$_Tree_nod@V?$_Tmap_traits@HHU?$less@H@std@@V?$allocator@U?$pair@$$CBHH@std@@@2@$0A@@std@@@2@@Z 00450200 f i cinder:ObjLoader.obj
 0001:0004f200       ?_Lrotate@?$_Tree@V?$_Tmap_traits@HP6A?AV?$shared_ptr@VImageSource@cinder@@@tr1@std@@V?$shared_ptr@VDataSource@cinder@@@23@VOptions@ImageSource@cinder@@@ZU?$less@H@3@V?$allocator@U?$pair@$$CBHP6A?AV?$shared_ptr@VImageSource@cinder@@@tr1@std@@V?$shared_ptr@VDataSource@cinder@@@23@VOptions@ImageSource@cinder@@@Z@std@@@3@$00@std@@@std@@IAEXPAU_Node@?$_Tree_nod@V?$_Tmap_traits@HP6A?AV?$shared_ptr@VImageSource@cinder@@@tr1@std@@V?$shared_ptr@VDataSource@cinder@@@23@VOptions@ImageSource@cinder@@@ZU?$less@H@3@V?$allocator@U?$pair@$$CBHP6A?AV?$shared_ptr@VImageSource@cinder@@@tr1@std@@V?$shared_ptr@VDataSource@cinder@@@23@VOptions@ImageSource@cinder@@@Z@std@@@3@$00@std@@@2@@Z 00450200 f i cinder:ImageIo.obj
 0001:0004f200       ?_Lrotate@?$_Tree@V?$_Tmap_traits@HP6A?AV?$shared_ptr@VImageSource@cinder@@@tr1@std@@V?$shared_ptr@VDataSource@cinder@@@23@VOptions@ImageSource@cinder@@@ZU?$less@H@3@V?$allocator@U?$pair@$$CBHP6A?AV?$shared_ptr@VImageSource@cinder@@@tr1@std@@V?$shared_ptr@VDataSource@cinder@@@23@VOptions@ImageSource@cinder@@@Z@std@@@3@$0A@@std@@@std@@IAEXPAU_Node@?$_Tree_nod@V?$_Tmap_traits@HP6A?AV?$shared_ptr@VImageSource@cinder@@@tr1@std@@V?$shared_ptr@VDataSource@cinder@@@23@VOptions@ImageSource@cinder@@@ZU?$less@H@3@V?$allocator@U?$pair@$$CBHP6A?AV?$shared_ptr@VImageSource@cinder@@@tr1@std@@V?$shared_ptr@VDataSource@cinder@@@23@VOptions@ImageSource@cinder@@@Z@std@@@3@$0A@@std@@@2@@Z 00450200 f i cinder:ImageIo.obj
 0001:0004f260       ??0exception@boost@@QAE@ABV01@@Z 00450260 f i cinder:ObjLoader.obj
 0001:0004f2a0       _ldexpf                    004502a0 f i cinder:ObjLoader.obj
 0001:0004f2c0       ?_Inc@?$istreambuf_iterator@DU?$char_traits@D@std@@@std@@AAEXXZ 004502c0 f i cinder:ObjLoader.obj
 0001:0004f310       ?_Peek@?$istreambuf_iterator@DU?$char_traits@D@std@@@std@@ABEDXZ 00450310 f i cinder:ObjLoader.obj
 0001:0004f360       ?equal@?$istreambuf_iterator@DU?$char_traits@D@std@@@std@@QBE_NABV12@@Z 00450360 f i cinder:ObjLoader.obj
 0001:0004f410       ?snextc@?$basic_streambuf@DU?$char_traits@D@std@@@std@@QAEHXZ 00450410 f i cinder:ObjLoader.obj
 0001:0004f490       ??1?$basic_stringstream@DU?$char_traits@D@std@@V?$allocator@D@2@@std@@UAE@XZ 00450490 f i cinder:ObjLoader.obj
 0001:0004f520       ??D?$istreambuf_iterator@DU?$char_traits@D@std@@@std@@QBEDXZ 00450520 f i cinder:ObjLoader.obj
 0001:0004f570       ??E?$istreambuf_iterator@DU?$char_traits@D@std@@@std@@QAEAAV01@XZ 00450570 f i cinder:ObjLoader.obj
 0001:0004f5c0       ?_Getcat@?$num_get@DV?$istreambuf_iterator@DU?$char_traits@D@std@@@std@@@std@@SAIPAPBVfacet@locale@2@PBV42@@Z 004505c0 f i cinder:ObjLoader.obj
 0001:0004f680       ?_Insert@?$_Tree@V?$_Tmap_traits@V?$tuple@HHHUnull_type@tuples@boost@@U123@U123@U123@U123@U123@U123@@tuples@boost@@HU?$less@V?$tuple@HHHUnull_type@tuples@boost@@U123@U123@U123@U123@U123@U123@@tuples@boost@@@std@@V?$allocator@U?$pair@$$CBV?$tuple@HHHUnull_type@tuples@boost@@U123@U123@U123@U123@U123@U123@@tuples@boost@@H@std@@@5@$0A@@std@@@std@@IAE?AV?$_Tree_iterator@V?$_Tree_val@V?$_Tmap_traits@V?$tuple@HHHUnull_type@tuples@boost@@U123@U123@U123@U123@U123@U123@@tuples@boost@@HU?$less@V?$tuple@HHHUnull_type@tuples@boost@@U123@U123@U123@U123@U123@U123@@tuples@boost@@@std@@V?$allocator@U?$pair@$$CBV?$tuple@HHHUnull_type@tuples@boost@@U123@U123@U123@U123@U123@U123@@tuples@boost@@H@std@@@5@$0A@@std@@@std@@@2@_NPAU_Node@?$_Tree_nod@V?$_Tmap_traits@V?$tuple@HHHUnull_type@tuples@boost@@U123@U123@U123@U123@U123@U123@@tuples@boost@@HU?$less@V?$tuple@HHHUnull_type@tuples@boost@@U123@U123@U123@U123@U123@U123@@tuples@boost@@@std@@V?$allocator@U?$pair@$$CBV?$tuple@HHHUnull_type@tuples@boost@@U123@U123@U123@U123@U123@U123@@tuples@boost@@H@std@@@5@$0A@@std@@@2@1@Z 00450680 f i cinder:ObjLoader.obj
 0001:0004f8b0       ?_Insert@?$_Tree@V?$_Tmap_traits@HP6A?AV?$shared_ptr@VImageSource@cinder@@@tr1@std@@V?$shared_ptr@VDataSource@cinder@@@23@VOptions@ImageSource@cinder@@@ZU?$less@H@3@V?$allocator@U?$pair@$$CBHP6A?AV?$shared_ptr@VImageSource@cinder@@@tr1@std@@V?$shared_ptr@VDataSource@cinder@@@23@VOptions@ImageSource@cinder@@@Z@std@@@3@$0A@@std@@@std@@IAE?AV?$_Tree_iterator@V?$_Tree_val@V?$_Tmap_traits@HP6A?AV?$shared_ptr@VImageSource@cinder@@@tr1@std@@V?$shared_ptr@VDataSource@cinder@@@23@VOptions@ImageSource@cinder@@@ZU?$less@H@3@V?$allocator@U?$pair@$$CBHP6A?AV?$shared_ptr@VImageSource@cinder@@@tr1@std@@V?$shared_ptr@VDataSource@cinder@@@23@VOptions@ImageSource@cinder@@@Z@std@@@3@$0A@@std@@@std@@@2@_NPAU_Node@?$_Tree_nod@V?$_Tmap_traits@HP6A?AV?$shared_ptr@VImageSource@cinder@@@tr1@std@@V?$shared_ptr@VDataSource@cinder@@@23@VOptions@ImageSource@cinder@@@ZU?$less@H@3@V?$allocator@U?$pair@$$CBHP6A?AV?$shared_ptr@VImageSource@cinder@@@tr1@std@@V?$shared_ptr@VDataSource@cinder@@@23@VOptions@ImageSource@cinder@@@Z@std@@@3@$0A@@std@@@2@1@Z 004508b0 f i cinder:ImageIo.obj
 0001:0004f8b0       ?_Insert@?$_Tree@V?$_Tmap_traits@HHU?$less@H@std@@V?$allocator@U?$pair@$$CBHH@std@@@2@$0A@@std@@@std@@IAE?AV?$_Tree_iterator@V?$_Tree_val@V?$_Tmap_traits@HHU?$less@H@std@@V?$allocator@U?$pair@$$CBHH@std@@@2@$0A@@std@@@std@@@2@_NPAU_Node@?$_Tree_nod@V?$_Tmap_traits@HHU?$less@H@std@@V?$allocator@U?$pair@$$CBHH@std@@@2@$0A@@std@@@2@1@Z 004508b0 f i cinder:ObjLoader.obj
 0001:0004fae0       ??0?$error_info_injector@Vbad_lexical_cast@boost@@@exception_detail@boost@@QAE@ABU012@@Z 00450ae0 f i cinder:ObjLoader.obj
 0001:0004fb80       ??_E?$error_info_injector@Vbad_lexical_cast@boost@@@exception_detail@boost@@WBE@AEPAXI@Z 00450b80 f i cinder:ObjLoader.obj
 0001:0004fb90       ??1?$error_info_injector@Vbad_lexical_cast@boost@@@exception_detail@boost@@UAE@XZ 00450b90 f i cinder:ObjLoader.obj
 0001:0004fbd0       ??1?$clone_impl@U?$error_info_injector@Vbad_lexical_cast@boost@@@exception_detail@boost@@@exception_detail@boost@@UAE@XZ 00450bd0 f i cinder:ObjLoader.obj
 0001:0004fc20       ?copy_boost_exception@exception_detail@boost@@YAXPAVexception@2@PBV32@@Z 00450c20 f i cinder:ObjLoader.obj
 0001:0004fd00       ??_D?$basic_stringstream@DU?$char_traits@D@std@@V?$allocator@D@2@@std@@QAEXXZ 00450d00 f i cinder:ObjLoader.obj
 0001:0004fd20       ??_G?$basic_stringstream@DU?$char_traits@D@std@@V?$allocator@D@2@@std@@UAEPAXI@Z 00450d20 f i cinder:ObjLoader.obj
 0001:0004fd20       ??_E?$basic_stringstream@DU?$char_traits@D@std@@V?$allocator@D@2@@std@@UAEPAXI@Z 00450d20 f i cinder:ObjLoader.obj
 0001:0004fd60       ?_Ipfx@?$basic_istream@DU?$char_traits@D@std@@@std@@QAE_N_N@Z 00450d60 f i cinder:ObjLoader.obj
 0001:0004ff00       ?assign@?$basic_string@DU?$char_traits@D@std@@V?$allocator@D@2@@std@@QAEAAV12@ID@Z 00450f00 f i cinder:ObjLoader.obj
 0001:0004ffc0       ?erase@?$_Tree@V?$_Tmap_traits@V?$tuple@HHHUnull_type@tuples@boost@@U123@U123@U123@U123@U123@U123@@tuples@boost@@HU?$less@V?$tuple@HHHUnull_type@tuples@boost@@U123@U123@U123@U123@U123@U123@@tuples@boost@@@std@@V?$allocator@U?$pair@$$CBV?$tuple@HHHUnull_type@tuples@boost@@U123@U123@U123@U123@U123@U123@@tuples@boost@@H@std@@@5@$0A@@std@@@std@@QAE?AV?$_Tree_iterator@V?$_Tree_val@V?$_Tmap_traits@V?$tuple@HHHUnull_type@tuples@boost@@U123@U123@U123@U123@U123@U123@@tuples@boost@@HU?$less@V?$tuple@HHHUnull_type@tuples@boost@@U123@U123@U123@U123@U123@U123@@tuples@boost@@@std@@V?$allocator@U?$pair@$$CBV?$tuple@HHHUnull_type@tuples@boost@@U123@U123@U123@U123@U123@U123@@tuples@boost@@H@std@@@5@$0A@@std@@@std@@@2@V?$_Tree_const_iterator@V?$_Tree_val@V?$_Tmap_traits@V?$tuple@HHHUnull_type@tuples@boost@@U123@U123@U123@U123@U123@U123@@tuples@boost@@HU?$less@V?$tuple@HHHUnull_type@tuples@boost@@U123@U123@U123@U123@U123@U123@@tuples@boost@@@std@@V?$allocator@U?$pair@$$CBV?$tuple@HHHUnull_type@tuples@boost@@U123@U123@U123@U123@U123@U123@@tuples@boost@@H@std@@@5@$0A@@std@@@std@@@2@@Z 00450fc0 f i cinder:ObjLoader.obj
 0001:00050210       ?erase@?$_Tree@V?$_Tmap_traits@KV?$Vec2@M@cinder@@U?$less@K@std@@V?$allocator@U?$pair@$$CBKV?$Vec2@M@cinder@@@std@@@4@$0A@@std@@@std@@QAE?AV?$_Tree_iterator@V?$_Tree_val@V?$_Tmap_traits@KV?$Vec2@M@cinder@@U?$less@K@std@@V?$allocator@U?$pair@$$CBKV?$Vec2@M@cinder@@@std@@@4@$0A@@std@@@std@@@2@V?$_Tree_const_iterator@V?$_Tree_val@V?$_Tmap_traits@KV?$Vec2@M@cinder@@U?$less@K@std@@V?$allocator@U?$pair@$$CBKV?$Vec2@M@cinder@@@std@@@4@$0A@@std@@@std@@@2@@Z 00451210 f i cinder:AppImplMswBasic.obj
 0001:00050210       ?erase@?$_Tree@V?$_Tmap_traits@V?$tuple@HHUnull_type@tuples@boost@@U123@U123@U123@U123@U123@U123@U123@@tuples@boost@@HU?$less@V?$tuple@HHUnull_type@tuples@boost@@U123@U123@U123@U123@U123@U123@U123@@tuples@boost@@@std@@V?$allocator@U?$pair@$$CBV?$tuple@HHUnull_type@tuples@boost@@U123@U123@U123@U123@U123@U123@U123@@tuples@boost@@H@std@@@5@$0A@@std@@@std@@QAE?AV?$_Tree_iterator@V?$_Tree_val@V?$_Tmap_traits@V?$tuple@HHUnull_type@tuples@boost@@U123@U123@U123@U123@U123@U123@U123@@tuples@boost@@HU?$less@V?$tuple@HHUnull_type@tuples@boost@@U123@U123@U123@U123@U123@U123@U123@@tuples@boost@@@std@@V?$allocator@U?$pair@$$CBV?$tuple@HHUnull_type@tuples@boost@@U123@U123@U123@U123@U123@U123@U123@@tuples@boost@@H@std@@@5@$0A@@std@@@std@@@2@V?$_Tree_const_iterator@V?$_Tree_val@V?$_Tmap_traits@V?$tuple@HHUnull_type@tuples@boost@@U123@U123@U123@U123@U123@U123@U123@@tuples@boost@@HU?$less@V?$tuple@HHUnull_type@tuples@boost@@U123@U123@U123@U123@U123@U123@U123@@tuples@boost@@@std@@V?$allocator@U?$pair@$$CBV?$tuple@HHUnull_type@tuples@boost@@U123@U123@U123@U123@U123@U123@U123@@tuples@boost@@H@std@@@5@$0A@@std@@@std@@@2@@Z 00451210 f i cinder:ObjLoader.obj
 0001:00050460       ?_Erase@?$_Tree@V?$_Tmap_traits@V?$tuple@HHHUnull_type@tuples@boost@@U123@U123@U123@U123@U123@U123@@tuples@boost@@HU?$less@V?$tuple@HHHUnull_type@tuples@boost@@U123@U123@U123@U123@U123@U123@@tuples@boost@@@std@@V?$allocator@U?$pair@$$CBV?$tuple@HHHUnull_type@tuples@boost@@U123@U123@U123@U123@U123@U123@@tuples@boost@@H@std@@@5@$0A@@std@@@std@@IAEXPAU_Node@?$_Tree_nod@V?$_Tmap_traits@V?$tuple@HHHUnull_type@tuples@boost@@U123@U123@U123@U123@U123@U123@@tuples@boost@@HU?$less@V?$tuple@HHHUnull_type@tuples@boost@@U123@U123@U123@U123@U123@U123@@tuples@boost@@@std@@V?$allocator@U?$pair@$$CBV?$tuple@HHHUnull_type@tuples@boost@@U123@U123@U123@U123@U123@U123@@tuples@boost@@H@std@@@5@$0A@@std@@@2@@Z 00451460 f i cinder:ObjLoader.obj
 0001:000504a0       ?_Erase@?$_Tree@V?$_Tmap_traits@HHU?$less@H@std@@V?$allocator@U?$pair@$$CBHH@std@@@2@$0A@@std@@@std@@IAEXPAU_Node@?$_Tree_nod@V?$_Tmap_traits@HHU?$less@H@std@@V?$allocator@U?$pair@$$CBHH@std@@@2@$0A@@std@@@2@@Z 004514a0 f i cinder:ObjLoader.obj
 0001:000504a0       ?_Erase@?$_Tree@V?$_Tmap_traits@HP6A?AV?$shared_ptr@VImageSource@cinder@@@tr1@std@@V?$shared_ptr@VDataSource@cinder@@@23@VOptions@ImageSource@cinder@@@ZU?$less@H@3@V?$allocator@U?$pair@$$CBHP6A?AV?$shared_ptr@VImageSource@cinder@@@tr1@std@@V?$shared_ptr@VDataSource@cinder@@@23@VOptions@ImageSource@cinder@@@Z@std@@@3@$00@std@@@std@@IAEXPAU_Node@?$_Tree_nod@V?$_Tmap_traits@HP6A?AV?$shared_ptr@VImageSource@cinder@@@tr1@std@@V?$shared_ptr@VDataSource@cinder@@@23@VOptions@ImageSource@cinder@@@ZU?$less@H@3@V?$allocator@U?$pair@$$CBHP6A?AV?$shared_ptr@VImageSource@cinder@@@tr1@std@@V?$shared_ptr@VDataSource@cinder@@@23@VOptions@ImageSource@cinder@@@Z@std@@@3@$00@std@@@2@@Z 004514a0 f i cinder:ImageIo.obj
 0001:000504a0       ?_Erase@?$_Tree@V?$_Tmap_traits@HP6A?AV?$shared_ptr@VImageSource@cinder@@@tr1@std@@V?$shared_ptr@VDataSource@cinder@@@23@VOptions@ImageSource@cinder@@@ZU?$less@H@3@V?$allocator@U?$pair@$$CBHP6A?AV?$shared_ptr@VImageSource@cinder@@@tr1@std@@V?$shared_ptr@VDataSource@cinder@@@23@VOptions@ImageSource@cinder@@@Z@std@@@3@$0A@@std@@@std@@IAEXPAU_Node@?$_Tree_nod@V?$_Tmap_traits@HP6A?AV?$shared_ptr@VImageSource@cinder@@@tr1@std@@V?$shared_ptr@VDataSource@cinder@@@23@VOptions@ImageSource@cinder@@@ZU?$less@H@3@V?$allocator@U?$pair@$$CBHP6A?AV?$shared_ptr@VImageSource@cinder@@@tr1@std@@V?$shared_ptr@VDataSource@cinder@@@23@VOptions@ImageSource@cinder@@@Z@std@@@3@$0A@@std@@@2@@Z 004514a0 f i cinder:ImageIo.obj
 0001:000504e0       ??$use_facet@V?$num_get@DV?$istreambuf_iterator@DU?$char_traits@D@std@@@std@@@std@@@std@@YAABV?$num_get@DV?$istreambuf_iterator@DU?$char_traits@D@std@@@std@@@0@ABVlocale@0@@Z 004514e0 f i cinder:ObjLoader.obj
 0001:00050620       ?_Linsert@?$_Tree@V?$_Tmap_traits@HP6A?AV?$shared_ptr@VImageSource@cinder@@@tr1@std@@V?$shared_ptr@VDataSource@cinder@@@23@VOptions@ImageSource@cinder@@@ZU?$less@H@3@V?$allocator@U?$pair@$$CBHP6A?AV?$shared_ptr@VImageSource@cinder@@@tr1@std@@V?$shared_ptr@VDataSource@cinder@@@23@VOptions@ImageSource@cinder@@@Z@std@@@3@$0A@@std@@@std@@QAE?AU?$pair@V?$_Tree_iterator@V?$_Tree_val@V?$_Tmap_traits@HP6A?AV?$shared_ptr@VImageSource@cinder@@@tr1@std@@V?$shared_ptr@VDataSource@cinder@@@23@VOptions@ImageSource@cinder@@@ZU?$less@H@3@V?$allocator@U?$pair@$$CBHP6A?AV?$shared_ptr@VImageSource@cinder@@@tr1@std@@V?$shared_ptr@VDataSource@cinder@@@23@VOptions@ImageSource@cinder@@@Z@std@@@3@$0A@@std@@@std@@@std@@_N@2@PAU_Node@?$_Tree_nod@V?$_Tmap_traits@HP6A?AV?$shared_ptr@VImageSource@cinder@@@tr1@std@@V?$shared_ptr@VDataSource@cinder@@@23@VOptions@ImageSource@cinder@@@ZU?$less@H@3@V?$allocator@U?$pair@$$CBHP6A?AV?$shared_ptr@VImageSource@cinder@@@tr1@std@@V?$shared_ptr@VDataSource@cinder@@@23@VOptions@ImageSource@cinder@@@Z@std@@@3@$0A@@std@@@2@_N@Z 00451620 f i cinder:ImageIo.obj
 0001:00050620       ?_Linsert@?$_Tree@V?$_Tmap_traits@HHU?$less@H@std@@V?$allocator@U?$pair@$$CBHH@std@@@2@$0A@@std@@@std@@QAE?AU?$pair@V?$_Tree_iterator@V?$_Tree_val@V?$_Tmap_traits@HHU?$less@H@std@@V?$allocator@U?$pair@$$CBHH@std@@@2@$0A@@std@@@std@@@std@@_N@2@PAU_Node@?$_Tree_nod@V?$_Tmap_traits@HHU?$less@H@std@@V?$allocator@U?$pair@$$CBHH@std@@@2@$0A@@std@@@2@_N@Z 00451620 f i cinder:ObjLoader.obj
 0001:00050700       ??_E?$error_info_injector@Vbad_lexical_cast@boost@@@exception_detail@boost@@UAEPAXI@Z 00451700 f i cinder:ObjLoader.obj
 0001:00050700       ??_G?$error_info_injector@Vbad_lexical_cast@boost@@@exception_detail@boost@@UAEPAXI@Z 00451700 f i cinder:ObjLoader.obj
 0001:00050760       ??$_Uninit_move@PAV?$Vec3@M@cinder@@PAV12@V?$allocator@V?$Vec3@M@cinder@@@std@@V12@@std@@YAPAV?$Vec3@M@cinder@@PAV12@00AAV?$allocator@V?$Vec3@M@cinder@@@0@0U_Nonscalar_ptr_iterator_tag@0@@Z 00451760 f i cinder:ObjLoader.obj
 0001:00050790       ??$enable_error_info@Vbad_lexical_cast@boost@@@boost@@YA?AU?$error_info_injector@Vbad_lexical_cast@boost@@@exception_detail@0@ABVbad_lexical_cast@0@@Z 00451790 f i cinder:ObjLoader.obj
 0001:000507f0       ??0clone_base@exception_detail@boost@@QAE@ABV012@@Z 004517f0 f i cinder:ObjLoader.obj
 0001:00050800       ??_E?$clone_impl@U?$error_info_injector@Vbad_lexical_cast@boost@@@exception_detail@boost@@@exception_detail@boost@@WCI@AEPAXI@Z 00451800 f i cinder:ObjLoader.obj
 0001:00050810       ??_E?$clone_impl@U?$error_info_injector@Vbad_lexical_cast@boost@@@exception_detail@boost@@@exception_detail@boost@@WBE@AEPAXI@Z 00451810 f i cinder:ObjLoader.obj
 0001:00050820       ??0?$clone_impl@U?$error_info_injector@Vbad_lexical_cast@boost@@@exception_detail@boost@@@exception_detail@boost@@QAE@ABV012@@Z 00451820 f i cinder:ObjLoader.obj
 0001:00050860       ??_E?$clone_impl@U?$error_info_injector@Vbad_lexical_cast@boost@@@exception_detail@boost@@@exception_detail@boost@@UAEPAXI@Z 00451860 f i cinder:ObjLoader.obj
 0001:00050860       ??_G?$clone_impl@U?$error_info_injector@Vbad_lexical_cast@boost@@@exception_detail@boost@@@exception_detail@boost@@UAEPAXI@Z 00451860 f i cinder:ObjLoader.obj
 0001:000508c0       ?clone@?$clone_impl@U?$error_info_injector@Vbad_lexical_cast@boost@@@exception_detail@boost@@@exception_detail@boost@@EBEPBVclone_base@23@XZ 004518c0 f i cinder:ObjLoader.obj
 0001:00050940       ?rethrow@?$clone_impl@U?$error_info_injector@Vbad_lexical_cast@boost@@@exception_detail@boost@@@exception_detail@boost@@EBEXXZ 00451940 f i cinder:ObjLoader.obj
 0001:00050980       ??$_Uninit_copy@V?$_Vector_const_iterator@V?$_Vector_val@HV?$allocator@H@std@@@std@@@std@@PAHV?$allocator@H@2@@std@@YAPAHV?$_Vector_const_iterator@V?$_Vector_val@HV?$allocator@H@std@@@std@@@0@0PAHAAV?$allocator@H@0@U_Nonscalar_ptr_iterator_tag@0@@Z 00451980 f i cinder:ObjLoader.obj
 0001:000509b0       ??1Face@ObjLoader@cinder@@QAE@XZ 004519b0 f i cinder:ObjLoader.obj
 0001:00050a10       ?clear@?$_Tree@V?$_Tmap_traits@V?$tuple@HHHUnull_type@tuples@boost@@U123@U123@U123@U123@U123@U123@@tuples@boost@@HU?$less@V?$tuple@HHHUnull_type@tuples@boost@@U123@U123@U123@U123@U123@U123@@tuples@boost@@@std@@V?$allocator@U?$pair@$$CBV?$tuple@HHHUnull_type@tuples@boost@@U123@U123@U123@U123@U123@U123@@tuples@boost@@H@std@@@5@$0A@@std@@@std@@QAEXXZ 00451a10 f i cinder:ObjLoader.obj
 0001:00050a60       ??$_Getloctxt@DV?$istreambuf_iterator@DU?$char_traits@D@std@@@std@@@std@@YAHAAV?$istreambuf_iterator@DU?$char_traits@D@std@@@0@0IPBD@Z 00451a60 f i cinder:ObjLoader.obj
 0001:00050ca0       ??$?5DU?$char_traits@D@std@@V?$allocator@D@1@@std@@YAAAV?$basic_istream@DU?$char_traits@D@std@@@0@$$QAV10@AAV?$basic_string@DU?$char_traits@D@std@@V?$allocator@D@2@@0@@Z 00451ca0 f i cinder:ObjLoader.obj
 0001:00050ed0       ??$_Buynode@U?$pair@V?$tuple@HHHUnull_type@tuples@boost@@U123@U123@U123@U123@U123@U123@@tuples@boost@@I@std@@@?$_Tree_val@V?$_Tmap_traits@V?$tuple@HHHUnull_type@tuples@boost@@U123@U123@U123@U123@U123@U123@@tuples@boost@@HU?$less@V?$tuple@HHHUnull_type@tuples@boost@@U123@U123@U123@U123@U123@U123@@tuples@boost@@@std@@V?$allocator@U?$pair@$$CBV?$tuple@HHHUnull_type@tuples@boost@@U123@U123@U123@U123@U123@U123@@tuples@boost@@H@std@@@5@$0A@@std@@@std@@QAEPAU_Node@?$_Tree_nod@V?$_Tmap_traits@V?$tuple@HHHUnull_type@tuples@boost@@U123@U123@U123@U123@U123@U123@@tuples@boost@@HU?$less@V?$tuple@HHHUnull_type@tuples@boost@@U123@U123@U123@U123@U123@U123@@tuples@boost@@@std@@V?$allocator@U?$pair@$$CBV?$tuple@HHHUnull_type@tuples@boost@@U123@U123@U123@U123@U123@U123@@tuples@boost@@H@std@@@5@$0A@@std@@@1@$$QAU?$pair@V?$tuple@HHHUnull_type@tuples@boost@@U123@U123@U123@U123@U123@U123@@tuples@boost@@I@1@@Z 00451ed0 f i cinder:ObjLoader.obj
 0001:00050f50       ??$_Buynode@U?$pair@V?$tuple@HHUnull_type@tuples@boost@@U123@U123@U123@U123@U123@U123@U123@@tuples@boost@@I@std@@@?$_Tree_val@V?$_Tmap_traits@V?$tuple@HHUnull_type@tuples@boost@@U123@U123@U123@U123@U123@U123@U123@@tuples@boost@@HU?$less@V?$tuple@HHUnull_type@tuples@boost@@U123@U123@U123@U123@U123@U123@U123@@tuples@boost@@@std@@V?$allocator@U?$pair@$$CBV?$tuple@HHUnull_type@tuples@boost@@U123@U123@U123@U123@U123@U123@U123@@tuples@boost@@H@std@@@5@$0A@@std@@@std@@QAEPAU_Node@?$_Tree_nod@V?$_Tmap_traits@V?$tuple@HHUnull_type@tuples@boost@@U123@U123@U123@U123@U123@U123@U123@@tuples@boost@@HU?$less@V?$tuple@HHUnull_type@tuples@boost@@U123@U123@U123@U123@U123@U123@U123@@tuples@boost@@@std@@V?$allocator@U?$pair@$$CBV?$tuple@HHUnull_type@tuples@boost@@U123@U123@U123@U123@U123@U123@U123@@tuples@boost@@H@std@@@5@$0A@@std@@@1@$$QAU?$pair@V?$tuple@HHUnull_type@tuples@boost@@U123@U123@U123@U123@U123@U123@U123@@tuples@boost@@I@1@@Z 00451f50 f i cinder:ObjLoader.obj
 0001:00050fd0       ??$_Buynode@U?$pair@HP6A?AV?$shared_ptr@VImageSource@cinder@@@tr1@std@@V?$shared_ptr@VDataSource@cinder@@@23@VOptions@ImageSource@cinder@@@Z@std@@@?$_Tree_val@V?$_Tmap_traits@HP6A?AV?$shared_ptr@VImageSource@cinder@@@tr1@std@@V?$shared_ptr@VDataSource@cinder@@@23@VOptions@ImageSource@cinder@@@ZU?$less@H@3@V?$allocator@U?$pair@$$CBHP6A?AV?$shared_ptr@VImageSource@cinder@@@tr1@std@@V?$shared_ptr@VDataSource@cinder@@@23@VOptions@ImageSource@cinder@@@Z@std@@@3@$0A@@std@@@std@@QAEPAU_Node@?$_Tree_nod@V?$_Tmap_traits@HP6A?AV?$shared_ptr@VImageSource@cinder@@@tr1@std@@V?$shared_ptr@VDataSource@cinder@@@23@VOptions@ImageSource@cinder@@@ZU?$less@H@3@V?$allocator@U?$pair@$$CBHP6A?AV?$shared_ptr@VImageSource@cinder@@@tr1@std@@V?$shared_ptr@VDataSource@cinder@@@23@VOptions@ImageSource@cinder@@@Z@std@@@3@$0A@@std@@@1@$$QAU?$pair@HP6A?AV?$shared_ptr@VImageSource@cinder@@@tr1@std@@V?$shared_ptr@VDataSource@cinder@@@23@VOptions@ImageSource@cinder@@@Z@1@@Z 00451fd0 f i cinder:ImageIo.obj
 0001:00050fd0       ??$_Buynode@U?$pair@HI@std@@@?$_Tree_val@V?$_Tmap_traits@HHU?$less@H@std@@V?$allocator@U?$pair@$$CBHH@std@@@2@$0A@@std@@@std@@QAEPAU_Node@?$_Tree_nod@V?$_Tmap_traits@HHU?$less@H@std@@V?$allocator@U?$pair@$$CBHH@std@@@2@$0A@@std@@@1@$$QAU?$pair@HI@1@@Z 00451fd0 f i cinder:ObjLoader.obj
 0001:00051040       ??$enable_current_exception@U?$error_info_injector@Vbad_lexical_cast@boost@@@exception_detail@boost@@@boost@@YA?AV?$clone_impl@U?$error_info_injector@Vbad_lexical_cast@boost@@@exception_detail@boost@@@exception_detail@0@ABU?$error_info_injector@Vbad_lexical_cast@boost@@@20@@Z 00452040 f i cinder:ObjLoader.obj
 0001:000510d0       ??5?$basic_istream@DU?$char_traits@D@std@@@std@@QAEAAV01@AAM@Z 004520d0 f i cinder:ObjLoader.obj
 0001:00051280       ?erase@?$_Tree@V?$_Tmap_traits@V?$tuple@HHHUnull_type@tuples@boost@@U123@U123@U123@U123@U123@U123@@tuples@boost@@HU?$less@V?$tuple@HHHUnull_type@tuples@boost@@U123@U123@U123@U123@U123@U123@@tuples@boost@@@std@@V?$allocator@U?$pair@$$CBV?$tuple@HHHUnull_type@tuples@boost@@U123@U123@U123@U123@U123@U123@@tuples@boost@@H@std@@@5@$0A@@std@@@std@@QAE?AV?$_Tree_iterator@V?$_Tree_val@V?$_Tmap_traits@V?$tuple@HHHUnull_type@tuples@boost@@U123@U123@U123@U123@U123@U123@@tuples@boost@@HU?$less@V?$tuple@HHHUnull_type@tuples@boost@@U123@U123@U123@U123@U123@U123@@tuples@boost@@@std@@V?$allocator@U?$pair@$$CBV?$tuple@HHHUnull_type@tuples@boost@@U123@U123@U123@U123@U123@U123@@tuples@boost@@H@std@@@5@$0A@@std@@@std@@@2@V?$_Tree_const_iterator@V?$_Tree_val@V?$_Tmap_traits@V?$tuple@HHHUnull_type@tuples@boost@@U123@U123@U123@U123@U123@U123@@tuples@boost@@HU?$less@V?$tuple@HHHUnull_type@tuples@boost@@U123@U123@U123@U123@U123@U123@@tuples@boost@@@std@@V?$allocator@U?$pair@$$CBV?$tuple@HHHUnull_type@tuples@boost@@U123@U123@U123@U123@U123@U123@@tuples@boost@@H@std@@@5@$0A@@std@@@std@@@2@0@Z 00452280 f i cinder:ObjLoader.obj
 0001:00051320       ?erase@?$_Tree@V?$_Tmap_traits@V?$tuple@HHUnull_type@tuples@boost@@U123@U123@U123@U123@U123@U123@U123@@tuples@boost@@HU?$less@V?$tuple@HHUnull_type@tuples@boost@@U123@U123@U123@U123@U123@U123@U123@@tuples@boost@@@std@@V?$allocator@U?$pair@$$CBV?$tuple@HHUnull_type@tuples@boost@@U123@U123@U123@U123@U123@U123@U123@@tuples@boost@@H@std@@@5@$0A@@std@@@std@@QAE?AV?$_Tree_iterator@V?$_Tree_val@V?$_Tmap_traits@V?$tuple@HHUnull_type@tuples@boost@@U123@U123@U123@U123@U123@U123@U123@@tuples@boost@@HU?$less@V?$tuple@HHUnull_type@tuples@boost@@U123@U123@U123@U123@U123@U123@U123@@tuples@boost@@@std@@V?$allocator@U?$pair@$$CBV?$tuple@HHUnull_type@tuples@boost@@U123@U123@U123@U123@U123@U123@U123@@tuples@boost@@H@std@@@5@$0A@@std@@@std@@@2@V?$_Tree_const_iterator@V?$_Tree_val@V?$_Tmap_traits@V?$tuple@HHUnull_type@tuples@boost@@U123@U123@U123@U123@U123@U123@U123@@tuples@boost@@HU?$less@V?$tuple@HHUnull_type@tuples@boost@@U123@U123@U123@U123@U123@U123@U123@@tuples@boost@@@std@@V?$allocator@U?$pair@$$CBV?$tuple@HHUnull_type@tuples@boost@@U123@U123@U123@U123@U123@U123@U123@@tuples@boost@@H@std@@@5@$0A@@std@@@std@@@2@0@Z 00452320 f i cinder:ObjLoader.obj
 0001:00051320       ?erase@?$_Tree@V?$_Tmap_traits@KV?$Vec2@M@cinder@@U?$less@K@std@@V?$allocator@U?$pair@$$CBKV?$Vec2@M@cinder@@@std@@@4@$0A@@std@@@std@@QAE?AV?$_Tree_iterator@V?$_Tree_val@V?$_Tmap_traits@KV?$Vec2@M@cinder@@U?$less@K@std@@V?$allocator@U?$pair@$$CBKV?$Vec2@M@cinder@@@std@@@4@$0A@@std@@@std@@@2@V?$_Tree_const_iterator@V?$_Tree_val@V?$_Tmap_traits@KV?$Vec2@M@cinder@@U?$less@K@std@@V?$allocator@U?$pair@$$CBKV?$Vec2@M@cinder@@@std@@@4@$0A@@std@@@std@@@2@0@Z 00452320 f i cinder:AppImplMswBasic.obj
 0001:000513c0       ?_Getifld@?$num_get@DV?$istreambuf_iterator@DU?$char_traits@D@std@@@std@@@std@@ABAHPADAAV?$istreambuf_iterator@DU?$char_traits@D@std@@@2@1HABVlocale@2@@Z 004523c0 f i cinder:ObjLoader.obj
 0001:00051820       ?_Getffldx@?$num_get@DV?$istreambuf_iterator@DU?$char_traits@D@std@@@std@@@std@@ABAHPADAAV?$istreambuf_iterator@DU?$char_traits@D@std@@@2@1AAVios_base@2@PAH@Z 00452820 f i cinder:ObjLoader.obj
 0001:000524c0       ?_Linsert@?$_Tree@V?$_Tmap_traits@V?$tuple@HHUnull_type@tuples@boost@@U123@U123@U123@U123@U123@U123@U123@@tuples@boost@@HU?$less@V?$tuple@HHUnull_type@tuples@boost@@U123@U123@U123@U123@U123@U123@U123@@tuples@boost@@@std@@V?$allocator@U?$pair@$$CBV?$tuple@HHUnull_type@tuples@boost@@U123@U123@U123@U123@U123@U123@U123@@tuples@boost@@H@std@@@5@$0A@@std@@@std@@QAE?AU?$pair@V?$_Tree_iterator@V?$_Tree_val@V?$_Tmap_traits@V?$tuple@HHUnull_type@tuples@boost@@U123@U123@U123@U123@U123@U123@U123@@tuples@boost@@HU?$less@V?$tuple@HHUnull_type@tuples@boost@@U123@U123@U123@U123@U123@U123@U123@@tuples@boost@@@std@@V?$allocator@U?$pair@$$CBV?$tuple@HHUnull_type@tuples@boost@@U123@U123@U123@U123@U123@U123@U123@@tuples@boost@@H@std@@@5@$0A@@std@@@std@@@std@@_N@2@PAU_Node@?$_Tree_nod@V?$_Tmap_traits@V?$tuple@HHUnull_type@tuples@boost@@U123@U123@U123@U123@U123@U123@U123@@tuples@boost@@HU?$less@V?$tuple@HHUnull_type@tuples@boost@@U123@U123@U123@U123@U123@U123@U123@@tuples@boost@@@std@@V?$allocator@U?$pair@$$CBV?$tuple@HHUnull_type@tuples@boost@@U123@U123@U123@U123@U123@U123@U123@@tuples@boost@@H@std@@@5@$0A@@std@@@2@_N@Z 004534c0 f i cinder:ObjLoader.obj
 0001:000525d0       ??$throw_exception@Vbad_lexical_cast@boost@@@boost@@YAXABVbad_lexical_cast@0@@Z 004535d0 f i cinder:ObjLoader.obj
 0001:00052630       ?substr@?$basic_string@DU?$char_traits@D@std@@V?$allocator@D@2@@std@@QBE?AV12@II@Z 00453630 f i cinder:ObjLoader.obj
 0001:00052670       ?do_get@?$num_get@DV?$istreambuf_iterator@DU?$char_traits@D@std@@@std@@@std@@MBE?AV?$istreambuf_iterator@DU?$char_traits@D@std@@@2@V32@0AAVios_base@2@AAHAA_N@Z 00453670 f i cinder:ObjLoader.obj
 0001:000528f0       ?do_get@?$num_get@DV?$istreambuf_iterator@DU?$char_traits@D@std@@@std@@@std@@MBE?AV?$istreambuf_iterator@DU?$char_traits@D@std@@@2@V32@0AAVios_base@2@AAHAAG@Z 004538f0 f i cinder:ObjLoader.obj
 0001:00052a40       ?do_get@?$num_get@DV?$istreambuf_iterator@DU?$char_traits@D@std@@@std@@@std@@MBE?AV?$istreambuf_iterator@DU?$char_traits@D@std@@@2@V32@0AAVios_base@2@AAHAAI@Z 00453a40 f i cinder:ObjLoader.obj
 0001:00052b80       ?do_get@?$num_get@DV?$istreambuf_iterator@DU?$char_traits@D@std@@@std@@@std@@MBE?AV?$istreambuf_iterator@DU?$char_traits@D@std@@@2@V32@0AAVios_base@2@AAHAAJ@Z 00453b80 f i cinder:ObjLoader.obj
 0001:00052cb0       ?do_get@?$num_get@DV?$istreambuf_iterator@DU?$char_traits@D@std@@@std@@@std@@MBE?AV?$istreambuf_iterator@DU?$char_traits@D@std@@@2@V32@0AAVios_base@2@AAHAAK@Z 00453cb0 f i cinder:ObjLoader.obj
 0001:00052de0       ?do_get@?$num_get@DV?$istreambuf_iterator@DU?$char_traits@D@std@@@std@@@std@@MBE?AV?$istreambuf_iterator@DU?$char_traits@D@std@@@2@V32@0AAVios_base@2@AAHAA_J@Z 00453de0 f i cinder:ObjLoader.obj
 0001:00052f20       ?do_get@?$num_get@DV?$istreambuf_iterator@DU?$char_traits@D@std@@@std@@@std@@MBE?AV?$istreambuf_iterator@DU?$char_traits@D@std@@@2@V32@0AAVios_base@2@AAHAA_K@Z 00453f20 f i cinder:ObjLoader.obj
 0001:00053060       ?do_get@?$num_get@DV?$istreambuf_iterator@DU?$char_traits@D@std@@@std@@@std@@MBE?AV?$istreambuf_iterator@DU?$char_traits@D@std@@@2@V32@0AAVios_base@2@AAHAAPAX@Z 00454060 f i cinder:ObjLoader.obj
 0001:000531a0       ?reserve@?$vector@V?$Vec3@M@cinder@@V?$allocator@V?$Vec3@M@cinder@@@std@@@std@@QAEXI@Z 004541a0 f i cinder:ObjLoader.obj
 0001:00053290       ?_Getffld@?$num_get@DV?$istreambuf_iterator@DU?$char_traits@D@std@@@std@@@std@@ABAHPADAAV?$istreambuf_iterator@DU?$char_traits@D@std@@@2@1AAVios_base@2@PAH@Z 00454290 f i cinder:ObjLoader.obj
 0001:00053e10       ?_Linsert@?$_Tree@V?$_Tmap_traits@V?$tuple@HHHUnull_type@tuples@boost@@U123@U123@U123@U123@U123@U123@@tuples@boost@@HU?$less@V?$tuple@HHHUnull_type@tuples@boost@@U123@U123@U123@U123@U123@U123@@tuples@boost@@@std@@V?$allocator@U?$pair@$$CBV?$tuple@HHHUnull_type@tuples@boost@@U123@U123@U123@U123@U123@U123@@tuples@boost@@H@std@@@5@$0A@@std@@@std@@QAE?AU?$pair@V?$_Tree_iterator@V?$_Tree_val@V?$_Tmap_traits@V?$tuple@HHHUnull_type@tuples@boost@@U123@U123@U123@U123@U123@U123@@tuples@boost@@HU?$less@V?$tuple@HHHUnull_type@tuples@boost@@U123@U123@U123@U123@U123@U123@@tuples@boost@@@std@@V?$allocator@U?$pair@$$CBV?$tuple@HHHUnull_type@tuples@boost@@U123@U123@U123@U123@U123@U123@@tuples@boost@@H@std@@@5@$0A@@std@@@std@@@std@@_N@2@PAU_Node@?$_Tree_nod@V?$_Tmap_traits@V?$tuple@HHHUnull_type@tuples@boost@@U123@U123@U123@U123@U123@U123@@tuples@boost@@HU?$less@V?$tuple@HHHUnull_type@tuples@boost@@U123@U123@U123@U123@U123@U123@@tuples@boost@@@std@@V?$allocator@U?$pair@$$CBV?$tuple@HHHUnull_type@tuples@boost@@U123@U123@U123@U123@U123@U123@@tuples@boost@@H@std@@@5@$0A@@std@@@2@_N@Z 00454e10 f i cinder:ObjLoader.obj
 0001:00053f50       ??0?$vector@HV?$allocator@H@std@@@std@@QAE@ABV01@@Z 00454f50 f i cinder:ObjLoader.obj
 0001:00054020       ?name@locale@std@@QBE?AV?$basic_string@DU?$char_traits@D@std@@V?$allocator@D@2@@2@XZ 00455020 f i cinder:ObjLoader.obj
 0001:00054070       ??8locale@std@@QBE_NABV01@@Z 00455070 f i cinder:ObjLoader.obj
 0001:00054200       ?_Reserve@?$vector@V?$Vec3@M@cinder@@V?$allocator@V?$Vec3@M@cinder@@@std@@@std@@IAEXI@Z 00455200 f i cinder:ObjLoader.obj
 0001:00054280       ?do_get@?$num_get@DV?$istreambuf_iterator@DU?$char_traits@D@std@@@std@@@std@@MBE?AV?$istreambuf_iterator@DU?$char_traits@D@std@@@2@V32@0AAVios_base@2@AAHAAM@Z 00455280 f i cinder:ObjLoader.obj
 0001:00054350       ?do_get@?$num_get@DV?$istreambuf_iterator@DU?$char_traits@D@std@@@std@@@std@@MBE?AV?$istreambuf_iterator@DU?$char_traits@D@std@@@2@V32@0AAVios_base@2@AAHAAN@Z 00455350 f i cinder:ObjLoader.obj
 0001:00054420       ?do_get@?$num_get@DV?$istreambuf_iterator@DU?$char_traits@D@std@@@std@@@std@@MBE?AV?$istreambuf_iterator@DU?$char_traits@D@std@@@2@V32@0AAVios_base@2@AAHAAO@Z 00455420 f i cinder:ObjLoader.obj
 0001:000544f0       ??$_Dest_val@V?$allocator@UFace@ObjLoader@cinder@@@std@@UFace@ObjLoader@cinder@@@std@@YAXAAV?$allocator@UFace@ObjLoader@cinder@@@0@PAUFace@ObjLoader@cinder@@@Z 004554f0 f i cinder:ObjLoader.obj
 0001:00054550       ??$lcast_ret_unsigned@U?$char_traits@D@std@@ID@detail@boost@@YA_NAAIQBDPBD@Z 00455550 f i cinder:ObjLoader.obj
 0001:00054780       ??1?$map@V?$tuple@HHHUnull_type@tuples@boost@@U123@U123@U123@U123@U123@U123@@tuples@boost@@HU?$less@V?$tuple@HHHUnull_type@tuples@boost@@U123@U123@U123@U123@U123@U123@@tuples@boost@@@std@@V?$allocator@U?$pair@$$CBV?$tuple@HHHUnull_type@tuples@boost@@U123@U123@U123@U123@U123@U123@@tuples@boost@@H@std@@@5@@std@@QAE@XZ 00455780 f i cinder:ObjLoader.obj
 0001:000547e0       ??1?$map@V?$tuple@HHUnull_type@tuples@boost@@U123@U123@U123@U123@U123@U123@U123@@tuples@boost@@HU?$less@V?$tuple@HHUnull_type@tuples@boost@@U123@U123@U123@U123@U123@U123@U123@@tuples@boost@@@std@@V?$allocator@U?$pair@$$CBV?$tuple@HHUnull_type@tuples@boost@@U123@U123@U123@U123@U123@U123@U123@@tuples@boost@@H@std@@@5@@std@@QAE@XZ 004557e0 f i cinder:ObjLoader.obj
 0001:00054840       ?push_back@?$vector@V?$Vec3@M@cinder@@V?$allocator@V?$Vec3@M@cinder@@@std@@@std@@QAEX$$QAV?$Vec3@M@cinder@@@Z 00455840 f i cinder:ObjLoader.obj
 0001:00054840       ?push_back@?$vector@V?$Vec3@M@cinder@@V?$allocator@V?$Vec3@M@cinder@@@std@@@std@@QAEXABV?$Vec3@M@cinder@@@Z 00455840 f i cinder:ObjLoader.obj
 0001:000548d0       ??$_Destroy_range@V?$allocator@UFace@ObjLoader@cinder@@@std@@@std@@YAXPAUFace@ObjLoader@cinder@@0AAV?$allocator@UFace@ObjLoader@cinder@@@0@U_Nonscalar_ptr_iterator_tag@0@@Z 004558d0 f i cinder:ObjLoader.obj
 0001:00054940       ??$shr_signed@H@?$lexical_stream_limited_src@DU?$char_traits@D@std@@$0A@@detail@boost@@AAE_NAAH@Z 00455940 f i cinder:ObjLoader.obj
 0001:000549d0       ?loadInternalNoOptimize@ObjLoader@cinder@@AAEXABUGroup@12@PAVTriMesh@2@_N2@Z 004559d0 f   cinder:ObjLoader.obj
 0001:000550b0       ?loadInternalNormalsTextures@ObjLoader@cinder@@AAEXABUGroup@12@AAV?$map@V?$tuple@HHHUnull_type@tuples@boost@@U123@U123@U123@U123@U123@U123@@tuples@boost@@HU?$less@V?$tuple@HHHUnull_type@tuples@boost@@U123@U123@U123@U123@U123@U123@@tuples@boost@@@std@@V?$allocator@U?$pair@$$CBV?$tuple@HHHUnull_type@tuples@boost@@U123@U123@U123@U123@U123@U123@@tuples@boost@@H@std@@@5@@std@@PAVTriMesh@2@@Z 004560b0 f   cinder:ObjLoader.obj
 0001:00055b50       ?loadInternalNormals@ObjLoader@cinder@@AAEXABUGroup@12@AAV?$map@V?$tuple@HHUnull_type@tuples@boost@@U123@U123@U123@U123@U123@U123@U123@@tuples@boost@@HU?$less@V?$tuple@HHUnull_type@tuples@boost@@U123@U123@U123@U123@U123@U123@U123@@tuples@boost@@@std@@V?$allocator@U?$pair@$$CBV?$tuple@HHUnull_type@tuples@boost@@U123@U123@U123@U123@U123@U123@U123@@tuples@boost@@H@std@@@5@@std@@PAVTriMesh@2@@Z 00456b50 f   cinder:ObjLoader.obj
 0001:00056300       ?loadInternalTextures@ObjLoader@cinder@@AAEXABUGroup@12@AAV?$map@V?$tuple@HHUnull_type@tuples@boost@@U123@U123@U123@U123@U123@U123@U123@@tuples@boost@@HU?$less@V?$tuple@HHUnull_type@tuples@boost@@U123@U123@U123@U123@U123@U123@U123@@tuples@boost@@@std@@V?$allocator@U?$pair@$$CBV?$tuple@HHUnull_type@tuples@boost@@U123@U123@U123@U123@U123@U123@U123@@tuples@boost@@H@std@@@5@@std@@PAVTriMesh@2@@Z 00457300 f   cinder:ObjLoader.obj
 0001:00056c00       ?loadInternal@ObjLoader@cinder@@AAEXABUGroup@12@AAV?$map@HHU?$less@H@std@@V?$allocator@U?$pair@$$CBHH@std@@@2@@std@@PAVTriMesh@2@@Z 00457c00 f   cinder:ObjLoader.obj
 0001:000570f0       ??$_Uninit_move@PAUFace@ObjLoader@cinder@@PAU123@V?$allocator@UFace@ObjLoader@cinder@@@std@@U123@@std@@YAPAUFace@ObjLoader@cinder@@PAU123@00AAV?$allocator@UFace@ObjLoader@cinder@@@0@0U_Nonscalar_ptr_iterator_tag@0@@Z 004580f0 f i cinder:ObjLoader.obj
 0001:000571c0       ?load@ObjLoader@cinder@@QAEXPAVTriMesh@2@Vtribool@logic@boost@@1_N@Z 004581c0 f   cinder:ObjLoader.obj
 0001:00057550       ??$_Uninit_copy@V?$_Vector_const_iterator@V?$_Vector_val@UFace@ObjLoader@cinder@@V?$allocator@UFace@ObjLoader@cinder@@@std@@@std@@@std@@PAUFace@ObjLoader@cinder@@V?$allocator@UFace@ObjLoader@cinder@@@2@@std@@YAPAUFace@ObjLoader@cinder@@V?$_Vector_const_iterator@V?$_Vector_val@UFace@ObjLoader@cinder@@V?$allocator@UFace@ObjLoader@cinder@@@std@@@std@@@0@0PAU123@AAV?$allocator@UFace@ObjLoader@cinder@@@0@U_Nonscalar_ptr_iterator_tag@0@@Z 00458550 f i cinder:ObjLoader.obj
 0001:00057630       ?_Tidy@?$vector@UFace@ObjLoader@cinder@@V?$allocator@UFace@ObjLoader@cinder@@@std@@@std@@IAEXXZ 00458630 f i cinder:ObjLoader.obj
 0001:00057680       ?reserve@?$vector@UFace@ObjLoader@cinder@@V?$allocator@UFace@ObjLoader@cinder@@@std@@@std@@QAEXI@Z 00458680 f i cinder:ObjLoader.obj
 0001:00057790       ??1Group@ObjLoader@cinder@@QAE@XZ 00458790 f i cinder:ObjLoader.obj
 0001:000577f0       ?_Reserve@?$vector@UFace@ObjLoader@cinder@@V?$allocator@UFace@ObjLoader@cinder@@@std@@@std@@IAEXI@Z 004587f0 f i cinder:ObjLoader.obj
 0001:00057870       ??0?$vector@UFace@ObjLoader@cinder@@V?$allocator@UFace@ObjLoader@cinder@@@std@@@std@@QAE@ABV01@@Z 00458870 f i cinder:ObjLoader.obj
 0001:00057950       ?push_back@?$vector@UFace@ObjLoader@cinder@@V?$allocator@UFace@ObjLoader@cinder@@@std@@@std@@QAEXABUFace@ObjLoader@cinder@@@Z 00458950 f i cinder:ObjLoader.obj
 0001:00057a60       ??0Group@ObjLoader@cinder@@QAE@ABU012@@Z 00458a60 f i cinder:ObjLoader.obj
 0001:00057af0       ?parseFace@ObjLoader@cinder@@AAEXPAUGroup@12@ABV?$basic_string@DU?$char_traits@D@std@@V?$allocator@D@2@@std@@_N@Z 00458af0 f   cinder:ObjLoader.obj
 0001:00058130       ??$_Dest_val@V?$allocator@UGroup@ObjLoader@cinder@@@std@@UGroup@ObjLoader@cinder@@@std@@YAXAAV?$allocator@UGroup@ObjLoader@cinder@@@0@PAUGroup@ObjLoader@cinder@@@Z 00459130 f i cinder:ObjLoader.obj
 0001:00058190       ??$_Destroy_range@V?$allocator@UGroup@ObjLoader@cinder@@@std@@@std@@YAXPAUGroup@ObjLoader@cinder@@0AAV?$allocator@UGroup@ObjLoader@cinder@@@0@U_Nonscalar_ptr_iterator_tag@0@@Z 00459190 f i cinder:ObjLoader.obj
 0001:00058200       ??$_Uninit_move@PAUGroup@ObjLoader@cinder@@PAU123@V?$allocator@UGroup@ObjLoader@cinder@@@std@@U123@@std@@YAPAUGroup@ObjLoader@cinder@@PAU123@00AAV?$allocator@UGroup@ObjLoader@cinder@@@0@0U_Nonscalar_ptr_iterator_tag@0@@Z 00459200 f i cinder:ObjLoader.obj
 0001:000582f0       ?reserve@?$vector@UGroup@ObjLoader@cinder@@V?$allocator@UGroup@ObjLoader@cinder@@@std@@@std@@QAEXI@Z 004592f0 f i cinder:ObjLoader.obj
 0001:00058410       ??1?$vector@UGroup@ObjLoader@cinder@@V?$allocator@UGroup@ObjLoader@cinder@@@std@@@std@@QAE@XZ 00459410 f i cinder:ObjLoader.obj
 0001:00058460       ?_Reserve@?$vector@UGroup@ObjLoader@cinder@@V?$allocator@UGroup@ObjLoader@cinder@@@std@@@std@@IAEXI@Z 00459460 f i cinder:ObjLoader.obj
 0001:000584e0       ??1ObjLoader@cinder@@QAE@XZ 004594e0 f   cinder:ObjLoader.obj
 0001:000585a0       ?push_back@?$vector@UGroup@ObjLoader@cinder@@V?$allocator@UGroup@ObjLoader@cinder@@@std@@@std@@QAEX$$QAUGroup@ObjLoader@cinder@@@Z 004595a0 f i cinder:ObjLoader.obj
 0001:00058660       ?parse@ObjLoader@cinder@@AAEX_N@Z 00459660 f   cinder:ObjLoader.obj
 0001:00058f60       ??0ObjLoader@cinder@@QAE@V?$shared_ptr@VDataSource@cinder@@@tr1@std@@_N@Z 00459f60 f   cinder:ObjLoader.obj
 0001:00059020       ?setPerspective@CameraPersp@cinder@@QAEXMMMM@Z 0045a020 f   cinder:Camera.obj
 0001:00059050       ?calcProjection@CameraPersp@cinder@@MAEXXZ 0045a050 f   cinder:Camera.obj
 0001:00059260       ??D?$Quaternion@M@cinder@@QAE?BV?$Vec3@M@1@ABV21@@Z 0045a260 f i cinder:Camera.obj
 0001:00059320       ?set@?$Quaternion@M@cinder@@QAEXABV?$Matrix44@M@2@@Z 0045a320 f i cinder:Camera.obj
 0001:00059480       ??0Camera@cinder@@QAE@XZ   0045a480 f i cinder:Camera.obj
 0001:00059660       ?calcModelView@Camera@cinder@@IAEXXZ 0045a660 f   cinder:Camera.obj
 0001:00059840       ?getsWindowsPaintEvents@AppBasic@app@cinder@@UAE_NXZ 0045a840 f i godComplexApp.obj
 0001:00059840       ?receivesEvents@App@app@cinder@@UBE_NXZ 0045a840 f i godComplexApp.obj
 0001:00059840       ?isPersp@CameraPersp@cinder@@UBE_NXZ 0045a840 f i cinder:Camera.obj
 0001:00059850       ?normalized@?$Quaternion@M@cinder@@QBE?AV12@XZ 0045a850 f i cinder:Camera.obj
 0001:00059900       ?alignZAxisWithTarget@?$Matrix44@M@cinder@@SA?AV12@V?$Vec3@M@2@0@Z 0045a900 f i cinder:Camera.obj
 0001:00059c60       ?lookAt@Camera@cinder@@QAEXABV?$Vec3@M@2@0@Z 0045ac60 f   cinder:Camera.obj
 0001:00059d90       ?lookAt@Camera@cinder@@QAEXABV?$Vec3@M@2@00@Z 0045ad90 f   cinder:Camera.obj
 0001:00059f20       ??0CameraPersp@cinder@@QAE@HHM@Z 0045af20 f   cinder:Camera.obj
 0001:0005a020       ??0CameraPersp@cinder@@QAE@HHMMM@Z 0045b020 f   cinder:Camera.obj
 0001:0005a110       ??0CameraPersp@cinder@@QAE@XZ 0045b110 f   cinder:Camera.obj
 0001:0005a1d0       ?isAlwaysOnTop@App@app@cinder@@UBE_NXZ 0045b1d0 f i cinder:App.obj
 0001:0005a1d0       ?do_always_noconv@windows_file_codecvt@@MBE_NXZ 0045b1d0 f i libboost_filesystem-vc100-mt-s-1_48:path.obj
 0001:0005a1d0       ?isBorderless@App@app@cinder@@UBE_NXZ 0045b1d0 f i cinder:App.obj
 0001:0005a1d0       ?isUrl@DataSourceBuffer@cinder@@UAE_NXZ 0045b1d0 f i cinder:DataSource.obj
 0001:0005a1d0       ?do_always_noconv@?$codecvt@_WDH@std@@MBE_NXZ 0045b1d0 f i libboost_filesystem-vc100-mt-s-1_48:path.obj
 0001:0005a1d0       ?hasAlpha@?$ImageTargetChannel@M@cinder@@UBE_NXZ 0045b1d0 f i cinder:Channel.obj
 0001:0005a1d0       ?updateAtLoopStart@TimelineItem@cinder@@UAE_NXZ 0045b1d0 f i cinder:Timeline.obj
 0001:0005a1d0       ?isFilePath@DataSourceBuffer@cinder@@UAE_NXZ 0045b1d0 f i cinder:DataSource.obj
 0001:0005a1e0       ?_Destroy@?$_Ref_count@UObj@?$ChannelT@E@cinder@@@tr1@std@@EAEXXZ 0045b1e0 f i cinder:Channel.obj
 0001:0005a1e0       ?_Destroy@?$_Ref_count@UObj@?$ChannelT@M@cinder@@@tr1@std@@EAEXXZ 0045b1e0 f i cinder:Channel.obj
 0001:0005a220       ??_E?$_Ref_count@VImageSourceFileWic@cinder@@@tr1@std@@UAEPAXI@Z 0045b220 f i cinder:ImageSourceFileWic.obj
 0001:0005a220       ??_E?$_Ref_count_del@UIWICBitmapFrameEncode@@P6AXPAX@Z@tr1@std@@UAEPAXI@Z 0045b220 f i cinder:ImageTargetFileWic.obj
 0001:0005a220       ??_G?$_Ref_count@VImageSourceFileWic@cinder@@@tr1@std@@UAEPAXI@Z 0045b220 f i cinder:ImageSourceFileWic.obj
 0001:0005a220       ??_E?$_Ref_count@UObj@?$ChannelT@M@cinder@@@tr1@std@@UAEPAXI@Z 0045b220 f i cinder:Channel.obj
 0001:0005a220       ??_E?$_Ref_count@UObj@Renderbuffer@gl@cinder@@@tr1@std@@UAEPAXI@Z 0045b220 f i cinder:Fbo.obj
 0001:0005a220       ??_E?$_Ref_count_del@UIWICBitmapFrameDecode@@P6AXPAX@Z@tr1@std@@UAEPAXI@Z 0045b220 f i cinder:ImageSourceFileWic.obj
 0001:0005a220       ??_E?$_Ref_count@UObj@GlslProg@gl@cinder@@@tr1@std@@UAEPAXI@Z 0045b220 f i cinder:GlslProg.obj
 0001:0005a220       ??_G?$_Ref_count_del@MU?$checked_array_deleter@M@boost@@@tr1@std@@UAEPAXI@Z 0045b220 f i cinder:Texture.obj
 0001:0005a220       ??_E?$_Ref_count@V?$ImageTargetChannel@M@cinder@@@tr1@std@@UAEPAXI@Z 0045b220 f i cinder:Channel.obj
 0001:0005a220       ??_G?$_Ref_count_del@DU?$checked_array_deleter@D@boost@@@tr1@std@@UAEPAXI@Z 0045b220 f i cinder:GlslProg.obj
 0001:0005a220       ??_G?$_Ref_count@VRenderer@app@cinder@@@tr1@std@@UAEPAXI@Z 0045b220 f i cinder:App.obj
 0001:0005a220       ??_G?$_Ref_count_del@UIWICBitmapDecoder@@P6AXPAX@Z@tr1@std@@UAEPAXI@Z 0045b220 f i cinder:ImageSourceFileWic.obj
 0001:0005a220       ??_G?$_Ref_count@V?$ImageTargetGLTexture@M@gl@cinder@@@tr1@std@@UAEPAXI@Z 0045b220 f i cinder:Texture.obj
 0001:0005a220       ??_E?$_Ref_count@V?$ImageTargetGLTexture@G@gl@cinder@@@tr1@std@@UAEPAXI@Z 0045b220 f i cinder:Texture.obj
 0001:0005a220       ??_E?$_Ref_count_del@MU?$checked_array_deleter@M@boost@@@tr1@std@@UAEPAXI@Z 0045b220 f i cinder:Texture.obj
 0001:0005a220       ??_E?$_Ref_count@VDisplay@cinder@@@tr1@std@@UAEPAXI@Z 0045b220 f i cinder:Display.obj
 0001:0005a220       ??_G?$_Ref_count_del@UIWICBitmapEncoder@@P6AXPAX@Z@tr1@std@@UAEPAXI@Z 0045b220 f i cinder:ImageTargetFileWic.obj
 0001:0005a220       ??_E?$_Ref_count@V?$basic_dostream@DU?$char_traits@D@std@@@msw@cinder@@@tr1@std@@UAEPAXI@Z 0045b220 f i cinder:App.obj
 0001:0005a220       ??_G?$_Ref_count_del@UIWICStream@@P6AXPAX@Z@tr1@std@@UAEPAXI@Z 0045b220 f i cinder:ImageSourceFileWic.obj
 0001:0005a220       ??_G?$_Ref_count@UObj@?$SurfaceT@E@cinder@@@tr1@std@@UAEPAXI@Z 0045b220 f i cinder:Surface.obj
 0001:0005a220       ??_E?$_Ref_count@VRenderer@app@cinder@@@tr1@std@@UAEPAXI@Z 0045b220 f i cinder:App.obj
 0001:0005a220       ??_G?$_Ref_count_del@UIWICBitmapFrameEncode@@P6AXPAX@Z@tr1@std@@UAEPAXI@Z 0045b220 f i cinder:ImageTargetFileWic.obj
 0001:0005a220       ??_E?$_Ref_count_del@UIWICImagingFactory@@P6AXPAX@Z@tr1@std@@UAEPAXI@Z 0045b220 f i cinder:ImageSourceFileWic.obj
 0001:0005a220       ??_E?$_Ref_count@UObj@Vbo@gl@cinder@@@tr1@std@@UAEPAXI@Z 0045b220 f i cinder:VBO.obj
 0001:0005a220       ??_G?$_Ref_count@UObj@Vbo@gl@cinder@@@tr1@std@@UAEPAXI@Z 0045b220 f i cinder:VBO.obj
 0001:0005a220       ??_E?$_Ref_count@V?$ImageTargetGLTexture@E@gl@cinder@@@tr1@std@@UAEPAXI@Z 0045b220 f i cinder:Texture.obj
 0001:0005a220       ??_G?$_Ref_count@UObj@Fbo@gl@cinder@@@tr1@std@@UAEPAXI@Z 0045b220 f i cinder:Fbo.obj
 0001:0005a220       ??_G_Ref_count_base@tr1@std@@UAEPAXI@Z 0045b220 f i cinder:App.obj
 0001:0005a220       ??_G?$_Ref_count@VDisplay@cinder@@@tr1@std@@UAEPAXI@Z 0045b220 f i cinder:Display.obj
 0001:0005a220       ??_E?$_Ref_count_del@UtagTOUCHINPUT@@U?$checked_array_deleter@UtagTOUCHINPUT@@@boost@@@tr1@std@@UAEPAXI@Z 0045b220 f i cinder:AppImplMswBasic.obj
 0001:0005a220       ??_E?$_Ref_count@V?$ImageTargetGLTexture@M@gl@cinder@@@tr1@std@@UAEPAXI@Z 0045b220 f i cinder:Texture.obj
 0001:0005a220       ??_E?$_Ref_count@VTimeline@cinder@@@tr1@std@@UAEPAXI@Z 0045b220 f i cinder:App.obj
 0001:0005a220       ??_E_Ref_count_base@tr1@std@@UAEPAXI@Z 0045b220 f i cinder:App.obj
 0001:0005a220       ??_E?$_Ref_count_del@UIWICFormatConverter@@P6AXPAX@Z@tr1@std@@UAEPAXI@Z 0045b220 f i cinder:ImageSourceFileWic.obj
 0001:0005a220       ??_G?$_Ref_count@UObj@?$ChannelT@E@cinder@@@tr1@std@@UAEPAXI@Z 0045b220 f i cinder:Channel.obj
 0001:0005a220       ??_E?$_Ref_count@UObj@?$SurfaceT@M@cinder@@@tr1@std@@UAEPAXI@Z 0045b220 f i cinder:Surface.obj
 0001:0005a220       ??_E?$_Ref_count@VDataSourceBuffer@cinder@@@tr1@std@@UAEPAXI@Z 0045b220 f i cinder:DataSource.obj
 0001:0005a220       ??_E?$_Ref_count@VIStreamMem@cinder@@@tr1@std@@UAEPAXI@Z 0045b220 f i cinder:Stream.obj
 0001:0005a220       ??_G?$_Ref_count@V?$map@V?$basic_string@DU?$char_traits@D@std@@V?$allocator@D@2@@std@@PBU_GUID@@U?$less@V?$basic_string@DU?$char_traits@D@std@@V?$allocator@D@2@@std@@@2@V?$allocator@U?$pair@$$CBV?$basic_string@DU?$char_traits@D@std@@V?$allocator@D@2@@std@@PBU_GUID@@@std@@@2@@std@@@tr1@std@@UAEPAXI@Z 0045b220 f i cinder:ImageTargetFileWic.obj
 0001:0005a220       ??_E?$_Ref_count_del@VComOStream@msw@cinder@@P6AXPAX@Z@tr1@std@@UAEPAXI@Z 0045b220 f i cinder:ImageTargetFileWic.obj
 0001:0005a220       ??_G?$_Ref_count@UObj@?$ChannelT@M@cinder@@@tr1@std@@UAEPAXI@Z 0045b220 f i cinder:Channel.obj
 0001:0005a220       ??_E?$_Ref_count_del@EP6AXPAE@Z@tr1@std@@UAEPAXI@Z 0045b220 f i cinder:Texture.obj
 0001:0005a220       ??_G?$_Ref_count@UObj@Texture@gl@cinder@@@tr1@std@@UAEPAXI@Z 0045b220 f i cinder:Texture.obj
 0001:0005a220       ??_G?$_Ref_count_del@EP6AXPAE@Z@tr1@std@@UAEPAXI@Z 0045b220 f i cinder:Texture.obj
 0001:0005a220       ??_E?$_Ref_count_del@UIWICStream@@P6AXPAX@Z@tr1@std@@UAEPAXI@Z 0045b220 f i cinder:ImageSourceFileWic.obj
 0001:0005a220       ??_E?$_Ref_count@VImageTargetFileWic@cinder@@@tr1@std@@UAEPAXI@Z 0045b220 f i cinder:ImageTargetFileWic.obj
 0001:0005a220       ??_G?$_Ref_count@UObj@Renderbuffer@gl@cinder@@@tr1@std@@UAEPAXI@Z 0045b220 f i cinder:Fbo.obj
 0001:0005a220       ??_G?$_Ref_count@UObj@?$SurfaceT@M@cinder@@@tr1@std@@UAEPAXI@Z 0045b220 f i cinder:Surface.obj
 0001:0005a220       ??_G?$_Ref_count_del@VComOStream@msw@cinder@@P6AXPAX@Z@tr1@std@@UAEPAXI@Z 0045b220 f i cinder:ImageTargetFileWic.obj
 0001:0005a220       ??_G?$_Ref_count@VIStreamMem@cinder@@@tr1@std@@UAEPAXI@Z 0045b220 f i cinder:Stream.obj
 0001:0005a220       ??_G?$_Ref_count@V?$ImageTargetGLTexture@E@gl@cinder@@@tr1@std@@UAEPAXI@Z 0045b220 f i cinder:Texture.obj
 0001:0005a220       ??_E?$_Ref_count_del@UIWICBitmapEncoder@@P6AXPAX@Z@tr1@std@@UAEPAXI@Z 0045b220 f i cinder:ImageTargetFileWic.obj
 0001:0005a220       ??_E?$_Ref_count@UInst@ImageIoRegistrar@cinder@@@tr1@std@@UAEPAXI@Z 0045b220 f i cinder:ImageIo.obj
 0001:0005a220       ??_E?$_Ref_count_del@UIWICBitmapDecoder@@P6AXPAX@Z@tr1@std@@UAEPAXI@Z 0045b220 f i cinder:ImageSourceFileWic.obj
 0001:0005a220       ??_G?$_Ref_count@V?$basic_dostream@DU?$char_traits@D@std@@@msw@cinder@@@tr1@std@@UAEPAXI@Z 0045b220 f i cinder:App.obj
 0001:0005a220       ??_G?$_Ref_count@UObj@Buffer@cinder@@@tr1@std@@UAEPAXI@Z 0045b220 f i cinder:Buffer.obj
 0001:0005a220       ??_G?$_Ref_count@VImageTargetFileWic@cinder@@@tr1@std@@UAEPAXI@Z 0045b220 f i cinder:ImageTargetFileWic.obj
 0001:0005a220       ??_G?$_Ref_count_del@UtagTOUCHINPUT@@U?$checked_array_deleter@UtagTOUCHINPUT@@@boost@@@tr1@std@@UAEPAXI@Z 0045b220 f i cinder:AppImplMswBasic.obj
 0001:0005a220       ??_E?$_Ref_count_del@DU?$checked_array_deleter@D@boost@@@tr1@std@@UAEPAXI@Z 0045b220 f i cinder:GlslProg.obj
 0001:0005a220       ??_G?$_Ref_count_del@UIWICFormatConverter@@P6AXPAX@Z@tr1@std@@UAEPAXI@Z 0045b220 f i cinder:ImageSourceFileWic.obj
 0001:0005a220       ??_G?$_Ref_count@UObj@VboMesh@gl@cinder@@@tr1@std@@UAEPAXI@Z 0045b220 f i cinder:VBO.obj
 0001:0005a220       ??_E?$_Ref_count@UObj@?$ChannelT@E@cinder@@@tr1@std@@UAEPAXI@Z 0045b220 f i cinder:Channel.obj
 0001:0005a220       ??_G?$_Ref_count_del@UIWICBitmapFrameDecode@@P6AXPAX@Z@tr1@std@@UAEPAXI@Z 0045b220 f i cinder:ImageSourceFileWic.obj
 0001:0005a220       ??_G?$_Ref_count_del@UIWICImagingFactory@@P6AXPAX@Z@tr1@std@@UAEPAXI@Z 0045b220 f i cinder:ImageSourceFileWic.obj
 0001:0005a220       ??_E?$_Ref_count@UObj@Texture@gl@cinder@@@tr1@std@@UAEPAXI@Z 0045b220 f i cinder:Texture.obj
 0001:0005a220       ??_G?$_Ref_count@UObj@GlslProg@gl@cinder@@@tr1@std@@UAEPAXI@Z 0045b220 f i cinder:GlslProg.obj
 0001:0005a220       ??_E?$_Ref_count@UObj@?$SurfaceT@E@cinder@@@tr1@std@@UAEPAXI@Z 0045b220 f i cinder:Surface.obj
 0001:0005a220       ??_E?$_Ref_count@UObj@VboMesh@gl@cinder@@@tr1@std@@UAEPAXI@Z 0045b220 f i cinder:VBO.obj
 0001:0005a220       ??_G?$_Ref_count@V?$ImageTargetGLTexture@G@gl@cinder@@@tr1@std@@UAEPAXI@Z 0045b220 f i cinder:Texture.obj
 0001:0005a220       ??_G?$_Ref_count@V?$ImageTargetChannel@M@cinder@@@tr1@std@@UAEPAXI@Z 0045b220 f i cinder:Channel.obj
 0001:0005a220       ??_E?$_Ref_count@V?$map@V?$basic_string@DU?$char_traits@D@std@@V?$allocator@D@2@@std@@PBU_GUID@@U?$less@V?$basic_string@DU?$char_traits@D@std@@V?$allocator@D@2@@std@@@2@V?$allocator@U?$pair@$$CBV?$basic_string@DU?$char_traits@D@std@@V?$allocator@D@2@@std@@PBU_GUID@@@std@@@2@@std@@@tr1@std@@UAEPAXI@Z 0045b220 f i cinder:ImageTargetFileWic.obj
 0001:0005a220       ??_G?$_Ref_count@VTimeline@cinder@@@tr1@std@@UAEPAXI@Z 0045b220 f i cinder:App.obj
 0001:0005a220       ??_G?$_Ref_count@UInst@ImageIoRegistrar@cinder@@@tr1@std@@UAEPAXI@Z 0045b220 f i cinder:ImageIo.obj
 0001:0005a220       ??_E?$_Ref_count@UObj@Buffer@cinder@@@tr1@std@@UAEPAXI@Z 0045b220 f i cinder:Buffer.obj
 0001:0005a220       ??_E?$_Ref_count@UObj@Fbo@gl@cinder@@@tr1@std@@UAEPAXI@Z 0045b220 f i cinder:Fbo.obj
 0001:0005a220       ??_G?$_Ref_count@VDataSourceBuffer@cinder@@@tr1@std@@UAEPAXI@Z 0045b220 f i cinder:DataSource.obj
 0001:0005a250       ?getRowPointer@?$ImageTargetChannel@M@cinder@@UAEPAXH@Z 0045b250 f i cinder:Channel.obj
 0001:0005a270       ??$_Resetp@UObj@?$ChannelT@E@cinder@@@?$shared_ptr@UObj@?$ChannelT@E@cinder@@@tr1@std@@AAEXPAUObj@?$ChannelT@E@cinder@@@Z 0045b270 f i cinder:Channel.obj
 0001:0005a330       ??$_Resetp@UObj@?$ChannelT@M@cinder@@@?$shared_ptr@UObj@?$ChannelT@M@cinder@@@tr1@std@@AAEXPAUObj@?$ChannelT@M@cinder@@@Z 0045b330 f i cinder:Channel.obj
 0001:0005a3f0       ??$_Resetp@V?$ImageTargetChannel@M@cinder@@@?$shared_ptr@V?$ImageTargetChannel@M@cinder@@@tr1@std@@AAEXPAV?$ImageTargetChannel@M@cinder@@@Z 0045b3f0 f i cinder:Channel.obj
 0001:0005a490       ??0?$ChannelT@E@cinder@@QAE@HHHEPAE@Z 0045b490 f i cinder:Channel.obj
 0001:0005a500       ??0?$ChannelT@M@cinder@@QAE@HHHEPAM@Z 0045b500 f i cinder:Channel.obj
 0001:0005a570       ?createRef@?$ImageTargetChannel@M@cinder@@SA?AV?$shared_ptr@V?$ImageTargetChannel@M@cinder@@@tr1@std@@PAV?$ChannelT@M@2@@Z 0045b570 f i cinder:Channel.obj
 0001:0005a620       ??0?$ChannelT@M@cinder@@QAE@V?$shared_ptr@VImageSource@cinder@@@tr1@std@@@Z 0045b620 f i cinder:Channel.obj
 0001:0005a7d0       ?reset@TimelineItem@cinder@@UAEX_N@Z 0045b7d0 f i cinder:Timeline.obj
 0001:0005a7f0       ?loopStart@Timeline@cinder@@MAEXXZ 0045b7f0 f   cinder:Timeline.obj
 0001:0005a800       ?_Rrotate@?$_Tree@V?$_Tmap_traits@KV?$Vec2@M@cinder@@U?$less@K@std@@V?$allocator@U?$pair@$$CBKV?$Vec2@M@cinder@@@std@@@4@$0A@@std@@@std@@IAEXPAU_Node@?$_Tree_nod@V?$_Tmap_traits@KV?$Vec2@M@cinder@@U?$less@K@std@@V?$allocator@U?$pair@$$CBKV?$Vec2@M@cinder@@@std@@@4@$0A@@std@@@2@@Z 0045b800 f i cinder:AppImplMswBasic.obj
 0001:0005a800       ?_Rrotate@?$_Tree@V?$_Tmap_traits@PAXV?$shared_ptr@VTimelineItem@cinder@@@tr1@std@@U?$less@PAX@3@V?$allocator@U?$pair@QAXV?$shared_ptr@VTimelineItem@cinder@@@tr1@std@@@std@@@3@$00@std@@@std@@IAEXPAU_Node@?$_Tree_nod@V?$_Tmap_traits@PAXV?$shared_ptr@VTimelineItem@cinder@@@tr1@std@@U?$less@PAX@3@V?$allocator@U?$pair@QAXV?$shared_ptr@VTimelineItem@cinder@@@tr1@std@@@std@@@3@$00@std@@@2@@Z 0045b800 f i cinder:Timeline.obj
 0001:0005a800       ?_Rrotate@?$_Tree@V?$_Tmap_traits@V?$tuple@HHUnull_type@tuples@boost@@U123@U123@U123@U123@U123@U123@U123@@tuples@boost@@HU?$less@V?$tuple@HHUnull_type@tuples@boost@@U123@U123@U123@U123@U123@U123@U123@@tuples@boost@@@std@@V?$allocator@U?$pair@$$CBV?$tuple@HHUnull_type@tuples@boost@@U123@U123@U123@U123@U123@U123@U123@@tuples@boost@@H@std@@@5@$0A@@std@@@std@@IAEXPAU_Node@?$_Tree_nod@V?$_Tmap_traits@V?$tuple@HHUnull_type@tuples@boost@@U123@U123@U123@U123@U123@U123@U123@@tuples@boost@@HU?$less@V?$tuple@HHUnull_type@tuples@boost@@U123@U123@U123@U123@U123@U123@U123@@tuples@boost@@@std@@V?$allocator@U?$pair@$$CBV?$tuple@HHUnull_type@tuples@boost@@U123@U123@U123@U123@U123@U123@U123@@tuples@boost@@H@std@@@5@$0A@@std@@@2@@Z 0045b800 f i cinder:ObjLoader.obj
 0001:0005a860       ??1TimelineItem@cinder@@UAE@XZ 0045b860 f i cinder:Timeline.obj
 0001:0005a890       ?calcDuration@TimelineItem@cinder@@UBEMXZ 0045b890 f i cinder:Timeline.obj
 0001:0005a8a0       ??_ETimelineItem@cinder@@UAEPAXI@Z 0045b8a0 f i cinder:Timeline.obj
 0001:0005a8a0       ??_GTimelineItem@cinder@@UAEPAXI@Z 0045b8a0 f i cinder:Timeline.obj
 0001:0005a8e0       ??0TimelineItem@cinder@@QAE@ABV01@@Z 0045b8e0 f i cinder:Timeline.obj
 0001:0005a970       ?calcDuration@Timeline@cinder@@MBEMXZ 0045b970 f   cinder:Timeline.obj
 0001:0005aa00       ?reset@Timeline@cinder@@UAEX_N@Z 0045ba00 f   cinder:Timeline.obj
 0001:0005aa80       ?reverse@Timeline@cinder@@MAEXXZ 0045ba80 f   cinder:Timeline.obj
 0001:0005aaf0       ??1?$pair@PAXV?$shared_ptr@VTimelineItem@cinder@@@tr1@std@@@std@@QAE@XZ 0045baf0 f i cinder:Timeline.obj
 0001:0005ab30       ??$make_pair@PAXV?$shared_ptr@VTimelineItem@cinder@@@tr1@std@@@std@@YA?AU?$pair@PAXV?$shared_ptr@VTimelineItem@cinder@@@tr1@std@@@0@ABQAX$$QAV?$shared_ptr@VTimelineItem@cinder@@@tr1@0@@Z 0045bb30 f i cinder:Timeline.obj
 0001:0005ab70       ?_Insert@?$_Tree@V?$_Tmap_traits@PAXV?$shared_ptr@VTimelineItem@cinder@@@tr1@std@@U?$less@PAX@3@V?$allocator@U?$pair@QAXV?$shared_ptr@VTimelineItem@cinder@@@tr1@std@@@std@@@3@$00@std@@@std@@IAE?AV?$_Tree_iterator@V?$_Tree_val@V?$_Tmap_traits@PAXV?$shared_ptr@VTimelineItem@cinder@@@tr1@std@@U?$less@PAX@3@V?$allocator@U?$pair@QAXV?$shared_ptr@VTimelineItem@cinder@@@tr1@std@@@std@@@3@$00@std@@@std@@@2@_NPAU_Node@?$_Tree_nod@V?$_Tmap_traits@PAXV?$shared_ptr@VTimelineItem@cinder@@@tr1@std@@U?$less@PAX@3@V?$allocator@U?$pair@QAXV?$shared_ptr@VTimelineItem@cinder@@@tr1@std@@@std@@@3@$00@std@@@2@1@Z 0045bb70 f i cinder:Timeline.obj
 0001:0005adc0       ?erase@?$_Tree@V?$_Tmap_traits@PAXV?$shared_ptr@VTimelineItem@cinder@@@tr1@std@@U?$less@PAX@3@V?$allocator@U?$pair@QAXV?$shared_ptr@VTimelineItem@cinder@@@tr1@std@@@std@@@3@$00@std@@@std@@QAE?AV?$_Tree_iterator@V?$_Tree_val@V?$_Tmap_traits@PAXV?$shared_ptr@VTimelineItem@cinder@@@tr1@std@@U?$less@PAX@3@V?$allocator@U?$pair@QAXV?$shared_ptr@VTimelineItem@cinder@@@tr1@std@@@std@@@3@$00@std@@@std@@@2@V?$_Tree_const_iterator@V?$_Tree_val@V?$_Tmap_traits@PAXV?$shared_ptr@VTimelineItem@cinder@@@tr1@std@@U?$less@PAX@3@V?$allocator@U?$pair@QAXV?$shared_ptr@VTimelineItem@cinder@@@tr1@std@@@std@@@3@$00@std@@@std@@@2@@Z 0045bdc0 f i cinder:Timeline.obj
 0001:0005b040       ?_Erase@?$_Tree@V?$_Tmap_traits@PAXV?$shared_ptr@VTimelineItem@cinder@@@tr1@std@@U?$less@PAX@3@V?$allocator@U?$pair@QAXV?$shared_ptr@VTimelineItem@cinder@@@tr1@std@@@std@@@3@$00@std@@@std@@IAEXPAU_Node@?$_Tree_nod@V?$_Tmap_traits@PAXV?$shared_ptr@VTimelineItem@cinder@@@tr1@std@@U?$less@PAX@3@V?$allocator@U?$pair@QAXV?$shared_ptr@VTimelineItem@cinder@@@tr1@std@@@std@@@3@$00@std@@@2@@Z 0045c040 f i cinder:Timeline.obj
 0001:0005b0b0       ?eraseMarked@Timeline@cinder@@IAEXXZ 0045c0b0 f   cinder:Timeline.obj
 0001:0005b190       ?erase@?$_Tree@V?$_Tmap_traits@PAXV?$shared_ptr@VTimelineItem@cinder@@@tr1@std@@U?$less@PAX@3@V?$allocator@U?$pair@QAXV?$shared_ptr@VTimelineItem@cinder@@@tr1@std@@@std@@@3@$00@std@@@std@@QAE?AV?$_Tree_iterator@V?$_Tree_val@V?$_Tmap_traits@PAXV?$shared_ptr@VTimelineItem@cinder@@@tr1@std@@U?$less@PAX@3@V?$allocator@U?$pair@QAXV?$shared_ptr@VTimelineItem@cinder@@@tr1@std@@@std@@@3@$00@std@@@std@@@2@V?$_Tree_const_iterator@V?$_Tree_val@V?$_Tmap_traits@PAXV?$shared_ptr@VTimelineItem@cinder@@@tr1@std@@U?$less@PAX@3@V?$allocator@U?$pair@QAXV?$shared_ptr@VTimelineItem@cinder@@@tr1@std@@@std@@@3@$00@std@@@std@@@2@0@Z 0045c190 f i cinder:Timeline.obj
 0001:0005b250       ??$_Buynode@U?$pair@PAXV?$shared_ptr@VTimelineItem@cinder@@@tr1@std@@@std@@@?$_Tree_val@V?$_Tmap_traits@PAXV?$shared_ptr@VTimelineItem@cinder@@@tr1@std@@U?$less@PAX@3@V?$allocator@U?$pair@QAXV?$shared_ptr@VTimelineItem@cinder@@@tr1@std@@@std@@@3@$00@std@@@std@@QAEPAU_Node@?$_Tree_nod@V?$_Tmap_traits@PAXV?$shared_ptr@VTimelineItem@cinder@@@tr1@std@@U?$less@PAX@3@V?$allocator@U?$pair@QAXV?$shared_ptr@VTimelineItem@cinder@@@tr1@std@@@std@@@3@$00@std@@@1@$$QAU?$pair@PAXV?$shared_ptr@VTimelineItem@cinder@@@tr1@std@@@1@@Z 0045c250 f i cinder:Timeline.obj
 0001:0005b2e0       ?stepTo@Timeline@cinder@@QAEXM@Z 0045c2e0 f   cinder:Timeline.obj
 0001:0005b3a0       ?update@Timeline@cinder@@MAEXM@Z 0045c3a0 f   cinder:Timeline.obj
 0001:0005b3d0       ??1?$multimap@PAXV?$shared_ptr@VTimelineItem@cinder@@@tr1@std@@U?$less@PAX@3@V?$allocator@U?$pair@QAXV?$shared_ptr@VTimelineItem@cinder@@@tr1@std@@@std@@@3@@std@@QAE@XZ 0045c3d0 f i cinder:Timeline.obj
 0001:0005b430       ??0Timeline@cinder@@IAE@XZ 0045c430 f   cinder:Timeline.obj
 0001:0005b500       ?stepTo@Timeline@cinder@@UAEXM_N@Z 0045c500 f i cinder:Timeline.obj
 0001:0005b520       ??1Timeline@cinder@@UAE@XZ 0045c520 f i cinder:Timeline.obj
 0001:0005b5c0       ??_GTimeline@cinder@@UAEPAXI@Z 0045c5c0 f i cinder:Timeline.obj
 0001:0005b5c0       ??_ETimeline@cinder@@UAEPAXI@Z 0045c5c0 f i cinder:Timeline.obj
 0001:0005b5f0       ??0Timeline@cinder@@AAE@ABV01@@Z 0045c5f0 f   cinder:Timeline.obj
 0001:0005b7f0       ?clone@Timeline@cinder@@MBE?AV?$shared_ptr@VTimelineItem@cinder@@@tr1@std@@XZ 0045c7f0 f   cinder:Timeline.obj
 0001:0005b880       ?cloneReverse@Timeline@cinder@@MBE?AV?$shared_ptr@VTimelineItem@cinder@@@tr1@std@@XZ 0045c880 f   cinder:Timeline.obj
 0001:0005b980       ??0Exception@cinder@@QAE@XZ 0045c980 f   cinder:Exception.obj
 0001:0005b9a0       ?getFilePathHint@DataSource@cinder@@QAEABV?$basic_string@DU?$char_traits@D@std@@V?$allocator@D@2@@std@@XZ 0045c9a0 f   cinder:DataSource.obj
 0001:0005b9b0       ?_Destroy@?$_Ref_count@VDataSourceBuffer@cinder@@@tr1@std@@EAEXXZ 0045c9b0 f i cinder:DataSource.obj
 0001:0005b9d0       ?getBuffer@DataSource@cinder@@QAEAAVBuffer@2@XZ 0045c9d0 f   cinder:DataSource.obj
 0001:0005b9f0       ?createStream@DataSourceBuffer@cinder@@UAE?AV?$shared_ptr@VIStream@cinder@@@tr1@std@@XZ 0045c9f0 f   cinder:DataSource.obj
 0001:0005baa0       ??$_Resetp@VDataSourceBuffer@cinder@@@?$shared_ptr@VDataSourceBuffer@cinder@@@tr1@std@@AAEXPAVDataSourceBuffer@cinder@@@Z 0045caa0 f i cinder:DataSource.obj
 0001:0005bb40       ??1DataSource@cinder@@MAE@XZ 0045cb40 f i cinder:DataSource.obj
 0001:0005bbe0       ??_EDataSource@cinder@@MAEPAXI@Z 0045cbe0 f i cinder:DataSource.obj
 0001:0005bbe0       ??_GDataSource@cinder@@MAEPAXI@Z 0045cbe0 f i cinder:DataSource.obj
 0001:0005bc10       ??0StreamExc@cinder@@QAE@ABV01@@Z 0045cc10 f i cinder:DataSource.obj
 0001:0005bc30       ??$?0$$BY00$$CBD@path@filesystem3@boost@@QAE@AAY00$$CBDPAX@Z 0045cc30 f i cinder:DataSource.obj
 0001:0005bd10       ??0DataSource@cinder@@IAE@ABVpath@filesystem3@boost@@ABVUrl@1@@Z 0045cd10 f i cinder:DataSource.obj
 0001:0005bdb0       ??0DataSourceBuffer@cinder@@IAE@VBuffer@1@@Z 0045cdb0 f   cinder:DataSource.obj
 0001:0005bef0       ??_EDataSourceBuffer@cinder@@UAEPAXI@Z 0045cef0 f i cinder:DataSource.obj
 0001:0005bef0       ??_GDataSourceBuffer@cinder@@UAEPAXI@Z 0045cef0 f i cinder:DataSource.obj
 0001:0005bf90       ?create@DataSourceBuffer@cinder@@SA?AV?$shared_ptr@VDataSourceBuffer@cinder@@@tr1@std@@VBuffer@2@ABV?$basic_string@DU?$char_traits@D@std@@V?$allocator@D@2@@5@@Z 0045cf90 f   cinder:DataSource.obj
 0001:0005c070       ??1AppImplMsw@app@cinder@@UAE@XZ 0045d070 f   cinder:AppImplMsw.obj
 0001:0005c080       ?setWindowSize@AppImplMsw@app@cinder@@UAEXHH@Z 0045d080 f i cinder:AppImplMsw.obj
 0001:0005c090       ?setFrameRate@AppImplMsw@app@cinder@@UAEMM@Z 0045d090 f i cinder:AppImplMsw.obj
 0001:0005c0a0       ?privateSetWindowOffset__@AppImplMsw@app@cinder@@UAEXABV?$Vec2@H@3@@Z 0045d0a0 f i cinder:AppImplMsw.obj
 0001:0005c0c0       ??0AppImplMsw@app@cinder@@QAE@PAVApp@12@@Z 0045d0c0 f   cinder:AppImplMsw.obj
 0001:0005c110       ??_GAppImplMsw@app@cinder@@UAEPAXI@Z 0045d110 f i cinder:AppImplMsw.obj
 0001:0005c110       ??_EAppImplMsw@app@cinder@@UAEPAXI@Z 0045d110 f i cinder:AppImplMsw.obj
 0001:0005c140       ?mouseLocation@AppImplMsw@app@cinder@@UAE?AV?$Vec2@H@3@XZ 0045d140 f   cinder:AppImplMsw.obj
 0001:0005c170       ?loadResource@AppImplMsw@app@cinder@@SA?AVBuffer@3@HABV?$basic_string@DU?$char_traits@D@std@@V?$allocator@D@2@@std@@@Z 0045d170 f   cinder:AppImplMsw.obj
 0001:0005c270       ??0ResourceLoadExc@app@cinder@@QAE@ABV012@@Z 0045d270 f i cinder:AppImplMsw.obj
 0001:0005c2b0       ?getAppPath@AppImplMsw@app@cinder@@SA?AVpath@filesystem3@boost@@XZ 0045d2b0 f   cinder:AppImplMsw.obj
 0001:0005c400       ?assign@?$basic_string@_WU?$char_traits@_W@std@@V?$allocator@_W@2@@std@@QAEAAV12@$$QAV12@@Z 0045d400 f i cinder:Text.obj
 0001:0005c480       ??$_Allocate@G@std@@YAPAGIPAG@Z 0045d480 f i cinder:Font.obj
 0001:0005c4e0       _IsEqualGUID               0045d4e0 f i cinder:ImageSourceFileWic.obj
 0001:0005c550       ?_Destroy@?$_Ref_count_del@UIWICBitmapDecoder@@P6AXPAX@Z@tr1@std@@EAEXXZ 0045d550 f i cinder:ImageSourceFileWic.obj
 0001:0005c550       ?_Destroy@?$_Ref_count_del@EP6AXPAE@Z@tr1@std@@EAEXXZ 0045d550 f i cinder:Texture.obj
 0001:0005c550       ?_Destroy@?$_Ref_count_del@VComOStream@msw@cinder@@P6AXPAX@Z@tr1@std@@EAEXXZ 0045d550 f i cinder:ImageTargetFileWic.obj
 0001:0005c550       ?_Destroy@?$_Ref_count_del@UIWICStream@@P6AXPAX@Z@tr1@std@@EAEXXZ 0045d550 f i cinder:ImageSourceFileWic.obj
 0001:0005c550       ?_Destroy@?$_Ref_count_del@UIWICBitmapEncoder@@P6AXPAX@Z@tr1@std@@EAEXXZ 0045d550 f i cinder:ImageTargetFileWic.obj
 0001:0005c550       ?_Destroy@?$_Ref_count_del@UIWICFormatConverter@@P6AXPAX@Z@tr1@std@@EAEXXZ 0045d550 f i cinder:ImageSourceFileWic.obj
 0001:0005c550       ?_Destroy@?$_Ref_count_del@UIWICImagingFactory@@P6AXPAX@Z@tr1@std@@EAEXXZ 0045d550 f i cinder:ImageSourceFileWic.obj
 0001:0005c550       ?_Destroy@?$_Ref_count_del@UIWICBitmapFrameEncode@@P6AXPAX@Z@tr1@std@@EAEXXZ 0045d550 f i cinder:ImageTargetFileWic.obj
 0001:0005c550       ?_Destroy@?$_Ref_count_del@UIWICBitmapFrameDecode@@P6AXPAX@Z@tr1@std@@EAEXXZ 0045d550 f i cinder:ImageSourceFileWic.obj
 0001:0005c560       ?_Get_deleter@?$_Ref_count_del@UIWICImagingFactory@@P6AXPAX@Z@tr1@std@@UBEPAXABVtype_info@@@Z 0045d560 f i cinder:ImageSourceFileWic.obj
 0001:0005c560       ?_Get_deleter@?$_Ref_count_del@UIWICBitmapFrameDecode@@P6AXPAX@Z@tr1@std@@UBEPAXABVtype_info@@@Z 0045d560 f i cinder:ImageSourceFileWic.obj
 0001:0005c560       ?_Get_deleter@?$_Ref_count_del@UIWICBitmapFrameEncode@@P6AXPAX@Z@tr1@std@@UBEPAXABVtype_info@@@Z 0045d560 f i cinder:ImageTargetFileWic.obj
 0001:0005c560       ?_Get_deleter@?$_Ref_count_del@UIWICBitmapEncoder@@P6AXPAX@Z@tr1@std@@UBEPAXABVtype_info@@@Z 0045d560 f i cinder:ImageTargetFileWic.obj
 0001:0005c560       ?_Get_deleter@?$_Ref_count_del@UIWICBitmapDecoder@@P6AXPAX@Z@tr1@std@@UBEPAXABVtype_info@@@Z 0045d560 f i cinder:ImageSourceFileWic.obj
 0001:0005c560       ?_Get_deleter@?$_Ref_count_del@VComOStream@msw@cinder@@P6AXPAX@Z@tr1@std@@UBEPAXABVtype_info@@@Z 0045d560 f i cinder:ImageTargetFileWic.obj
 0001:0005c560       ?_Get_deleter@?$_Ref_count_del@UIWICStream@@P6AXPAX@Z@tr1@std@@UBEPAXABVtype_info@@@Z 0045d560 f i cinder:ImageSourceFileWic.obj
 0001:0005c560       ?_Get_deleter@?$_Ref_count_del@UIWICFormatConverter@@P6AXPAX@Z@tr1@std@@UBEPAXABVtype_info@@@Z 0045d560 f i cinder:ImageSourceFileWic.obj
 0001:0005c590       ?processFormat@ImageSourceFileWic@cinder@@IAE_NABU_GUID@@PAU3@@Z 0045d590 f   cinder:ImageSourceFileWic.obj
 0001:0005c8b0       ??$_Resetp@VImageSourceFileWic@cinder@@@?$shared_ptr@VImageSourceFileWic@cinder@@@tr1@std@@AAEXPAVImageSourceFileWic@cinder@@@Z 0045d8b0 f i cinder:ImageSourceFileWic.obj
 0001:0005c950       ??$_Resetp@UIWICImagingFactory@@P6AXPAX@Z@?$shared_ptr@UIWICImagingFactory@@@tr1@std@@AAEXPAUIWICImagingFactory@@P6AXPAX@Z@Z 0045d950 f i cinder:ImageSourceFileWic.obj
 0001:0005c9f0       ??$_Resetp@UIWICStream@@P6AXPAX@Z@?$shared_ptr@UIWICStream@@@tr1@std@@AAEXPAUIWICStream@@P6AXPAX@Z@Z 0045d9f0 f i cinder:ImageSourceFileWic.obj
